

Microchip MPLAB XC8 Assembler V2.36 build 20220127204148 
                                                                                               Sat Jul 09 17:54:24 2022

Microchip MPLAB XC8 C Compiler v2.36 (Free license) build 20220127204148 Og1 
     1                           	processor	18F4620
     2                           	fnconf	rparam,??,?,0
     3                           	pagewidth 120
     4                           	opt	flic
     5                           	psect	idataCOMRAM,global,class=CODE,delta=1,noexec
     6                           	psect	idataBANK0,global,class=CODE,delta=1,noexec
     7                           	psect	idataBANK1,global,class=CODE,delta=1,noexec
     8                           	psect	smallconst,global,reloc=2,class=SMALLCONST,delta=1,noexec
     9                           	psect	cinit,global,reloc=2,class=CODE,delta=1
    10                           	psect	bssCOMRAM,global,class=COMRAM,space=1,delta=1,lowdata,noexec
    11                           	psect	dataCOMRAM,global,class=COMRAM,space=1,delta=1,lowdata,noexec
    12                           	psect	bssBANK0,global,class=BANK0,space=1,delta=1,lowdata,noexec
    13                           	psect	dataBANK0,global,class=BANK0,space=1,delta=1,lowdata,noexec
    14                           	psect	bssBANK1,global,class=BANK1,space=1,delta=1,lowdata,noexec
    15                           	psect	dataBANK1,global,class=BANK1,space=1,delta=1,lowdata,noexec
    16                           	psect	cstackBANK1,global,class=BANK1,space=1,delta=1,lowdata,noexec
    17                           	psect	cstackBANK0,global,class=BANK0,space=1,delta=1,lowdata,noexec
    18                           	psect	cstackCOMRAM,global,class=COMRAM,space=1,delta=1,lowdata,noexec
    19                           	psect	text0,global,reloc=2,class=CODE,delta=1
    20                           	psect	text1,global,reloc=2,class=CODE,delta=1
    21                           	psect	text2,global,reloc=2,class=CODE,delta=1
    22                           	psect	text3,global,reloc=2,class=CODE,delta=1
    23                           	psect	text4,global,reloc=2,class=CODE,delta=1
    24                           	psect	text5,global,reloc=2,class=CODE,delta=1
    25                           	psect	text6,global,reloc=2,class=CODE,delta=1
    26                           	psect	text7,global,reloc=2,class=CODE,delta=1
    27                           	psect	text8,global,reloc=2,class=CODE,delta=1
    28                           	psect	text9,global,reloc=2,class=CODE,delta=1
    29                           	psect	text10,global,reloc=2,class=CODE,delta=1
    30                           	psect	text11,global,reloc=2,class=CODE,delta=1
    31                           	psect	text12,global,reloc=2,class=CODE,delta=1
    32                           	psect	text13,global,reloc=2,class=CODE,delta=1
    33                           	psect	text14,global,reloc=2,class=CODE,delta=1
    34                           	psect	text15,global,reloc=2,class=CODE,delta=1
    35                           	psect	text16,global,reloc=2,class=CODE,delta=1,inline
    36                           	psect	text17,global,reloc=2,class=CODE,delta=1
    37                           	psect	text18,global,reloc=2,class=CODE,delta=1
    38                           	psect	text19,global,reloc=2,class=CODE,delta=1
    39                           	psect	text20,global,reloc=2,class=CODE,delta=1
    40                           	psect	text21,global,reloc=2,class=CODE,delta=1
    41                           	psect	text22,global,reloc=2,class=CODE,delta=1,group=2
    42                           	psect	text23,global,reloc=2,class=CODE,delta=1,group=2
    43                           	psect	text24,global,reloc=2,class=CODE,delta=1,group=2
    44                           	psect	text25,global,reloc=2,class=CODE,delta=1,group=2
    45                           	psect	text26,global,reloc=2,class=CODE,delta=1,group=2
    46                           	psect	text27,global,reloc=2,class=CODE,delta=1
    47                           	psect	text28,global,reloc=2,class=CODE,delta=1,group=3
    48                           	psect	text29,global,reloc=2,class=CODE,delta=1,group=1
    49                           	psect	text30,global,reloc=2,class=CODE,delta=1,group=1
    50                           	psect	text31,global,reloc=2,class=CODE,delta=1,group=1
    51                           	psect	text32,global,reloc=2,class=CODE,delta=1,group=1
    52                           	psect	text33,global,reloc=2,class=CODE,delta=1,group=3
    53                           	psect	text34,global,reloc=2,class=CODE,delta=1,group=3
    54                           	psect	text35,global,reloc=2,class=CODE,delta=1,group=3
    55                           	psect	text36,global,reloc=2,class=CODE,delta=1,group=3
    56                           	psect	text37,global,reloc=2,class=CODE,delta=1,group=3
    57                           	psect	text38,global,reloc=2,class=CODE,delta=1,group=2
    58                           	psect	text39,global,reloc=2,class=CODE,delta=1,group=2
    59                           	psect	text40,global,reloc=2,class=CODE,delta=1,group=3
    60                           	psect	intcode,global,reloc=2,class=CODE,delta=1
    61                           	psect	intcode_body,global,reloc=2,class=CODE,delta=1
    62                           	psect	text42,global,reloc=2,class=CODE,delta=1
    63                           	psect	text43,global,reloc=2,class=CODE,delta=1
    64                           	psect	text44,global,reloc=2,class=CODE,delta=1
    65                           	psect	text45,global,reloc=2,class=CODE,delta=1
    66                           	psect	text46,global,reloc=2,class=CODE,delta=1
    67                           	psect	text47,global,reloc=2,class=CODE,delta=1
    68                           	psect	text48,global,reloc=2,class=CODE,delta=1
    69                           	psect	text49,global,reloc=2,class=CODE,delta=1
    70                           	psect	text50,global,reloc=2,class=CODE,delta=1
    71                           	psect	text51,global,reloc=2,class=CODE,delta=1
    72                           	psect	text52,global,reloc=2,class=CODE,delta=1
    73                           	psect	text53,global,reloc=2,class=CODE,delta=1
    74                           	psect	text54,global,reloc=2,class=CODE,delta=1
    75                           	psect	text55,global,reloc=2,class=CODE,delta=1
    76                           	psect	text56,global,reloc=2,class=CODE,delta=1
    77                           	psect	text57,global,reloc=2,class=CODE,delta=1
    78                           	psect	text58,global,reloc=2,class=CODE,delta=1
    79                           	psect	text59,global,reloc=2,class=CODE,delta=1
    80                           	psect	text60,global,reloc=2,class=CODE,delta=1
    81                           	psect	intsave_regs,global,class=BIGRAM,space=1,delta=1,noexec
    82                           	psect	text61,global,reloc=2,class=CODE,delta=1
    83                           	psect	rparam,global,class=COMRAM,space=1,delta=1,noexec
    84                           	psect	temp,global,ovrld,common,class=COMRAM,space=1,delta=1
    85                           	psect	idloc,global,abs,ovrld,class=IDLOC,space=5,delta=1,noexec
    86                           	psect	config,global,abs,ovrld,class=CONFIG,space=4,delta=1,noexec
    87  0000                     
    88                           ; Version 2.40
    89                           ; Generated 17/11/2021 GMT
    90                           ; 
    91                           ; Copyright © 2021, Microchip Technology Inc. and its subsidiaries ("Microchip")
    92                           ; All rights reserved.
    93                           ; 
    94                           ; This software is developed by Microchip Technology Inc. and its subsidiaries ("Microch
      +                          ip").
    95                           ; 
    96                           ; Redistribution and use in source and binary forms, with or without modification, are
    97                           ; permitted provided that the following conditions are met:
    98                           ; 
    99                           ;     1. Redistributions of source code must retain the above copyright notice, this lis
      +                          t of
   100                           ;        conditions and the following disclaimer.
   101                           ; 
   102                           ;     2. Redistributions in binary form must reproduce the above copyright notice, this 
      +                          list
   103                           ;        of conditions and the following disclaimer in the documentation and/or other
   104                           ;        materials provided with the distribution. Publication is not required when
   105                           ;        this file is used in an embedded application.
   106                           ; 
   107                           ;     3. Microchip's name may not be used to endorse or promote products derived from th
      +                          is
   108                           ;        software without specific prior written permission.
   109                           ; 
   110                           ; THIS SOFTWARE IS PROVIDED BY MICROCHIP "AS IS" AND ANY EXPRESS OR IMPLIED WARRANTIES,
   111                           ; INCLUDING, BUT NOT LIMITED TO, THE IMPLIED WARRANTIES OF MERCHANTABILITY AND FITNESS F
      +                          OR
   112                           ; PURPOSE ARE DISCLAIMED.  IN NO EVENT SHALL MICROCHIP BE LIABLE FOR ANY DIRECT, INDIREC
      +                          T,
   113                           ; INCIDENTAL, SPECIAL, EXEMPLARY, OR CONSEQUENTIAL DAMAGES (INCLUDING BUT NOT LIMITED TO
   114                           ; PROCUREMENT OF SUBSTITUTE GOODS OR SERVICES; LOSS OF USE, DATA OR PROFITS; OR BUSINESS
   115                           ; INTERRUPTION) HOWSOEVER CAUSED AND ON ANY THEORY OF LIABILITY, WHETHER IN CONTRACT, ST
      +                          RICT
   116                           ; LIABILITY, OR TORT (INCLUDING NEGLIGENCE OR OTHERWISE) ARISING IN ANY WAY OUT OF THE U
      +                          SE OF
   117                           ; THIS SOFTWARE, EVEN IF ADVISED OF THE POSSIBILITY OF SUCH DAMAGE.
   118                           ; 
   119                           ; 
   120                           ; Code-generator required, PIC18F4620 Definitions
   121                           ; 
   122                           ; SFR Addresses
   123  0000                     
   124                           	psect	idataCOMRAM
   125  004420                     __pidataCOMRAM:
   126                           	callstack 0
   127                           
   128                           ;initializer for _RB7_Flag
   129  004420  01                 	db	1
   130                           
   131                           ;initializer for _RB6_Flag
   132  004421  01                 	db	1
   133                           
   134                           ;initializer for _RB5_Flag
   135  004422  01                 	db	1
   136                           
   137                           ;initializer for _RB4_Flag
   138  004423  01                 	db	1
   139                           
   140                           	psect	idataBANK0
   141  0042F6                     __pidataBANK0:
   142                           	callstack 0
   143                           
   144                           ;initializer for _lat_registers
   145  0042F6  89                 	db	137
   146  0042F7  0F                 	db	15
   147  0042F8  8A                 	db	138
   148  0042F9  0F                 	db	15
   149  0042FA  8B                 	db	139
   150  0042FB  0F                 	db	15
   151  0042FC  8C                 	db	140
   152  0042FD  0F                 	db	15
   153  0042FE  8D                 	db	141
   154  0042FF  0F                 	db	15
   155                           
   156                           ;initializer for _tris_registers
   157  004300  92                 	db	146
   158  004301  0F                 	db	15
   159  004302  93                 	db	147
   160  004303  0F                 	db	15
   161  004304  94                 	db	148
   162  004305  0F                 	db	15
   163  004306  95                 	db	149
   164  004307  0F                 	db	15
   165  004308  96                 	db	150
   166  004309  0F                 	db	15
   167                           
   168                           ;initializer for main@F3567
   169  00430A  31                 	db	49
   170  00430B  30                 	db	48
   171  00430C  31                 	db	49
   172  00430D  00                 	db	0
   173                           
   174                           ;initializer for _tmr1
   175  00430E  18                 	db	low _timer1_app_isr
   176  00430F  44                 	db	high _timer1_app_isr
   177  004310  01                 	db	1
   178  004311  0000               	dw	0
   179  004313  00                 	db	0
   180  004314  20                 	db	32
   181                           
   182                           ;initializer for _ccp1_pin
   183  004315  52                 	db	82
   184                           
   185                           	psect	idataBANK1
   186  004292                     __pidataBANK1:
   187                           	callstack 0
   188                           
   189                           ;initializer for _port_registers
   190  004292  80                 	db	128
   191  004293  0F                 	db	15
   192  004294  81                 	db	129
   193  004295  0F                 	db	15
   194  004296  82                 	db	130
   195  004297  0F                 	db	15
   196  004298  83                 	db	131
   197  004299  0F                 	db	15
   198  00429A  84                 	db	132
   199  00429B  0F                 	db	15
   200                           
   201                           ;initializer for _ccp1obj
   202  00429C  A4                 	db	low _ccp1_app_isr
   203  00429D  3D                 	db	high _ccp1_app_isr
   204  00429E  00                 	db	0
   205  00429F  00                 	db	0
   206  0042A0  01                 	db	1
   207  0042A1  00                 	db	0
   208  0042A2  00                 	db	0
   209  0042A3  01                 	db	1
   210  0042A4  05                 	db	5
   211  0042A5  00                 	db	0
   212  0042A6  00                 	db	0
   213  0042A7  00                 	db	0
   214  0042A8  00                 	db	0
   215  0042A9  00                 	db	0
   216  0042AA  00                 	db	0
   217  0042AB  00                 	db	0
   218                           
   219                           ;initializer for _lcd8bit
   220  0042AC  03                 	db	3
   221  0042AD  0B                 	db	11
   222  0042AE  01                 	db	1
   223  0042AF  09                 	db	9
   224  0042B0  11                 	db	17
   225  0042B1  19                 	db	25
   226  0042B2  21                 	db	33
   227  0042B3  29                 	db	41
   228  0042B4  31                 	db	49
   229  0042B5  39                 	db	57
   230                           
   231                           ;initializer for _lcd_2
   232  0042B6  32                 	db	50
   233  0042B7  3A                 	db	58
   234  0042B8  03                 	db	3
   235  0042B9  0B                 	db	11
   236  0042BA  13                 	db	19
   237  0042BB  1B                 	db	27
   238  0042BC  23                 	db	35
   239  0042BD  2B                 	db	43
   240  0042BE  33                 	db	51
   241  0042BF  3B                 	db	59
   242                           
   243                           ;initializer for _lcd_1
   244  0042C0  02                 	db	2
   245  0042C1  0A                 	db	10
   246  0042C2  12                 	db	18
   247  0042C3  1A                 	db	26
   248  0042C4  22                 	db	34
   249  0042C5  2A                 	db	42
   250                           
   251                           	psect	smallconst
   252  001000                     __psmallconst:
   253                           	callstack 0
   254  001000  00                 	db	0
   255  001001  37                 	db	55
   256  001002  38                 	db	56
   257  001003  39                 	db	57
   258  001004  2F                 	db	47
   259  001005  34                 	db	52
   260  001006  35                 	db	53
   261  001007  36                 	db	54
   262  001008  2A                 	db	42
   263  001009  31                 	db	49
   264  00100A  32                 	db	50
   265  00100B  33                 	db	51
   266  00100C  2D                 	db	45
   267  00100D  23                 	db	35
   268  00100E  30                 	db	48
   269  00100F  3D                 	db	61
   270  001010  2B                 	db	43
   271  001011                     __end_of_keypad_btns:
   272                           	callstack 0
   273  0000                     _CCPR2H	set	4028
   274  0000                     _CCPR2L	set	4027
   275  0000                     _CCPR1H	set	4031
   276  0000                     _CCPR1L	set	4030
   277  0000                     _TMR2	set	4044
   278  0000                     _TMR0L	set	4054
   279  0000                     _TMR0H	set	4055
   280  0000                     _INTCON2bits	set	4081
   281  0000                     _EECON2	set	4007
   282  0000                     _PR2	set	4043
   283  0000                     _TMR3H	set	4019
   284  0000                     _TMR3L	set	4018
   285  0000                     _TMR1H	set	4047
   286  0000                     _TMR1L	set	4046
   287  0000                     _PORTBbits	set	3969
   288  0000                     _PIE1bits	set	3997
   289  0000                     _PORTE	set	3972
   290  0000                     _PORTD	set	3971
   291  0000                     _PORTC	set	3970
   292  0000                     _PORTB	set	3969
   293  0000                     _PORTA	set	3968
   294  0000                     _LATA	set	3977
   295  0000                     _TRISA	set	3986
   296  0000                     _PIE2bits	set	4000
   297  0000                     _EECON1bits	set	4006
   298  0000                     _EEDATA	set	4008
   299  0000                     _EEADR	set	4009
   300  0000                     _EEADRH	set	4010
   301  0000                     _PIR1bits	set	3998
   302  0000                     _ADCON2bits	set	4032
   303  0000                     _ADCON1bits	set	4033
   304  0000                     _ADCON0bits	set	4034
   305  0000                     _TMR1	set	4046
   306  0000                     _T2CONbits	set	4042
   307  0000                     _T1CONbits	set	4045
   308  0000                     _T0CONbits	set	4053
   309  0000                     _INTCON3bits	set	4080
   310  0000                     _ADRESH	set	4036
   311  0000                     _ADRESL	set	4035
   312  0000                     _INTCONbits	set	4082
   313  0000                     _TMR3	set	4018
   314  0000                     _T3CONbits	set	4017
   315  0000                     _TRISE	set	3990
   316  0000                     _TRISD	set	3989
   317  0000                     _TRISC	set	3988
   318  0000                     _TRISB	set	3987
   319  0000                     _LATE	set	3981
   320  0000                     _LATD	set	3980
   321  0000                     _LATC	set	3979
   322  0000                     _LATB	set	3978
   323  0000                     _PIR2bits	set	4001
   324  0000                     _CCP2CONbits	set	4026
   325  0000                     _CCP1CONbits	set	4029
   326  001011                     STR_4:
   327  001011  46                 	db	70	;'F'
   328  001012  72                 	db	114	;'r'
   329  001013  65                 	db	101	;'e'
   330  001014  71                 	db	113	;'q'
   331  001015  75                 	db	117	;'u'
   332  001016  65                 	db	101	;'e'
   333  001017  6E                 	db	110	;'n'
   334  001018  63                 	db	99	;'c'
   335  001019  79                 	db	121	;'y'
   336  00101A  00                 	db	0
   337  00101B                     STR_1:
   338  00101B  25                 	db	37
   339  00101C  69                 	db	105	;'i'
   340  00101D  00                 	db	0
   341  00101E  00                 	db	0	; dummy byte at the end
   342  0000                     
   343                           ; #config settings
   344                           
   345                           	psect	cinit
   346  003C8A                     __pcinit:
   347                           	callstack 0
   348  003C8A                     start_initialization:
   349                           	callstack 0
   350  003C8A                     __initialization:
   351                           	callstack 0
   352                           
   353                           ; Initialize objects allocated to BANK1 (52 bytes)
   354                           ; load TBLPTR registers with __pidataBANK1
   355  003C8A  0E92               	movlw	low __pidataBANK1
   356  003C8C  6EF6               	movwf	tblptrl,c
   357  003C8E  0E42               	movlw	high __pidataBANK1
   358  003C90  6EF7               	movwf	tblptrh,c
   359  003C92  0E00               	movlw	low (__pidataBANK1 shr (0+16))
   360  003C94  6EF8               	movwf	tblptru,c
   361  003C96  EE01  F000         	lfsr	0,__pdataBANK1
   362  003C9A  EE10 F034          	lfsr	1,52
   363  003C9E                     copy_data0:
   364  003C9E  0009               	tblrd		*+
   365  003CA0  CFF5 FFEE          	movff	tablat,postinc0
   366  003CA4  50E5               	movf	postdec1,w,c
   367  003CA6  50E1               	movf	fsr1l,w,c
   368  003CA8  E1FA               	bnz	copy_data0
   369                           
   370                           ; Initialize objects allocated to BANK0 (32 bytes)
   371                           ; load TBLPTR registers with __pidataBANK0
   372  003CAA  0EF6               	movlw	low __pidataBANK0
   373  003CAC  6EF6               	movwf	tblptrl,c
   374  003CAE  0E42               	movlw	high __pidataBANK0
   375  003CB0  6EF7               	movwf	tblptrh,c
   376  003CB2  0E00               	movlw	low (__pidataBANK0 shr (0+16))
   377  003CB4  6EF8               	movwf	tblptru,c
   378  003CB6  EE00  F0C5         	lfsr	0,__pdataBANK0
   379  003CBA  EE10 F020          	lfsr	1,32
   380  003CBE                     copy_data1:
   381  003CBE  0009               	tblrd		*+
   382  003CC0  CFF5 FFEE          	movff	tablat,postinc0
   383  003CC4  50E5               	movf	postdec1,w,c
   384  003CC6  50E1               	movf	fsr1l,w,c
   385  003CC8  E1FA               	bnz	copy_data1
   386                           
   387                           ; Initialize objects allocated to COMRAM (4 bytes)
   388                           ; load TBLPTR registers with __pidataCOMRAM
   389  003CCA  0E20               	movlw	low __pidataCOMRAM
   390  003CCC  6EF6               	movwf	tblptrl,c
   391  003CCE  0E44               	movlw	high __pidataCOMRAM
   392  003CD0  6EF7               	movwf	tblptrh,c
   393  003CD2  0E00               	movlw	low (__pidataCOMRAM shr (0+16))
   394  003CD4  6EF8               	movwf	tblptru,c
   395  003CD6  EE00  F06E         	lfsr	0,__pdataCOMRAM
   396  003CDA  EE10 F004          	lfsr	1,4
   397  003CDE                     copy_data2:
   398  003CDE  0009               	tblrd		*+
   399  003CE0  CFF5 FFEE          	movff	tablat,postinc0
   400  003CE4  50E5               	movf	postdec1,w,c
   401  003CE6  50E1               	movf	fsr1l,w,c
   402  003CE8  E1FA               	bnz	copy_data2
   403                           
   404                           ; Clear objects allocated to BANK1 (32 bytes)
   405  003CEA  EE01  F034         	lfsr	0,__pbssBANK1
   406  003CEE  0E20               	movlw	32
   407  003CF0                     clear_0:
   408  003CF0  6AEE               	clrf	postinc0,c
   409  003CF2  06E8               	decf	wreg,f,c
   410  003CF4  E1FD               	bnz	clear_0
   411                           
   412                           ; Clear objects allocated to BANK0 (69 bytes)
   413  003CF6  EE00  F080         	lfsr	0,__pbssBANK0
   414  003CFA  0E45               	movlw	69
   415  003CFC                     clear_1:
   416  003CFC  6AEE               	clrf	postinc0,c
   417  003CFE  06E8               	decf	wreg,f,c
   418  003D00  E1FD               	bnz	clear_1
   419                           
   420                           ; Clear objects allocated to COMRAM (9 bytes)
   421  003D02  EE00  F065         	lfsr	0,__pbssCOMRAM
   422  003D06  0E09               	movlw	9
   423  003D08                     clear_2:
   424  003D08  6AEE               	clrf	postinc0,c
   425  003D0A  06E8               	decf	wreg,f,c
   426  003D0C  E1FD               	bnz	clear_2
   427  003D0E                     end_of_initialization:
   428                           	callstack 0
   429  003D0E                     __end_of__initialization:
   430                           	callstack 0
   431  003D0E  9072               	bcf	int$flags,0,c	;clear compiler interrupt flag (level 1)
   432  003D10  9272               	bcf	int$flags,1,c	;clear compiler interrupt flag (level 2)
   433  003D12  0100               	movlb	0
   434  003D14  EFE9  F015         	goto	_main	;jump to C main() function
   435                           
   436                           	psect	bssCOMRAM
   437  000065                     __pbssCOMRAM:
   438                           	callstack 0
   439  000065                     _flags:
   440                           	callstack 0
   441  000065                     	ds	2
   442  000067                     _timer3_isr_preload_value:
   443                           	callstack 0
   444  000067                     	ds	2
   445  000069                     _timer1_isr_preload_value:
   446                           	callstack 0
   447  000069                     	ds	2
   448  00006B                     _st_en_flag:
   449                           	callstack 0
   450  00006B                     	ds	1
   451  00006C                     _end:
   452                           	callstack 0
   453  00006C                     	ds	2
   454                           
   455                           	psect	dataCOMRAM
   456  00006E                     __pdataCOMRAM:
   457                           	callstack 0
   458  00006E                     _RB7_Flag:
   459                           	callstack 0
   460  00006E                     	ds	1
   461  00006F                     _RB6_Flag:
   462                           	callstack 0
   463  00006F                     	ds	1
   464  000070                     _RB5_Flag:
   465                           	callstack 0
   466  000070                     	ds	1
   467  000071                     _RB4_Flag:
   468                           	callstack 0
   469  000071                     	ds	1
   470                           
   471                           	psect	bssBANK0
   472  000080                     __pbssBANK0:
   473                           	callstack 0
   474  000080                     	ds	4
   475  000084                     _freq:
   476                           	callstack 0
   477  000084                     	ds	4
   478  000088                     _nout:
   479                           	callstack 0
   480  000088                     	ds	2
   481  00008A                     _width:
   482                           	callstack 0
   483  00008A                     	ds	2
   484  00008C                     _prec:
   485                           	callstack 0
   486  00008C                     	ds	2
   487  00008E                     _CCP2_InterruptHandler:
   488                           	callstack 0
   489  00008E                     	ds	2
   490  000090                     _CCP1_InterruptHandler:
   491                           	callstack 0
   492  000090                     	ds	2
   493  000092                     _start:
   494                           	callstack 0
   495  000092                     	ds	2
   496  000094                     _last_ovf:
   497                           	callstack 0
   498  000094                     	ds	2
   499  000096                     _ovf:
   500                           	callstack 0
   501  000096                     	ds	2
   502  000098                     _TMR3_InterruptHandler:
   503                           	callstack 0
   504  000098                     	ds	2
   505  00009A                     _TMR2_InterruptHandler:
   506                           	callstack 0
   507  00009A                     	ds	2
   508  00009C                     _TMR1_InterruptHandler:
   509                           	callstack 0
   510  00009C                     	ds	2
   511  00009E                     _TMR0_InterruptHandler:
   512                           	callstack 0
   513  00009E                     	ds	2
   514  0000A0                     _RB7_InterruptHandler_Low:
   515                           	callstack 0
   516  0000A0                     	ds	2
   517  0000A2                     _RB7_InterruptHandler_High:
   518                           	callstack 0
   519  0000A2                     	ds	2
   520  0000A4                     _RB6_InterruptHandler_Low:
   521                           	callstack 0
   522  0000A4                     	ds	2
   523  0000A6                     _RB6_InterruptHandler_High:
   524                           	callstack 0
   525  0000A6                     	ds	2
   526  0000A8                     _RB5_InterruptHandler_Low:
   527                           	callstack 0
   528  0000A8                     	ds	2
   529  0000AA                     _RB5_InterruptHandler_High:
   530                           	callstack 0
   531  0000AA                     	ds	2
   532  0000AC                     _RB4_InterruptHandler_Low:
   533                           	callstack 0
   534  0000AC                     	ds	2
   535  0000AE                     _RB4_InterruptHandler_High:
   536                           	callstack 0
   537  0000AE                     	ds	2
   538  0000B0                     _INT2_InterruptHandler:
   539                           	callstack 0
   540  0000B0                     	ds	2
   541  0000B2                     _INT1_InterruptHandler:
   542                           	callstack 0
   543  0000B2                     	ds	2
   544  0000B4                     _INT0_InterruptHandler:
   545                           	callstack 0
   546  0000B4                     	ds	2
   547  0000B6                     _ADC_InterruptHandler:
   548                           	callstack 0
   549  0000B6                     	ds	2
   550  0000B8                     _second_edge_flag:
   551                           	callstack 0
   552  0000B8                     	ds	1
   553  0000B9                     _timer2_preload:
   554                           	callstack 0
   555  0000B9                     	ds	1
   556  0000BA                     relay_Off@F2889:
   557                           	callstack 0
   558  0000BA                     	ds	1
   559  0000BB                     relay_On@F2884:
   560                           	callstack 0
   561  0000BB                     	ds	1
   562  0000BC                     relay_initialize@F2879:
   563                           	callstack 0
   564  0000BC                     	ds	1
   565  0000BD                     led_toggle@F2896:
   566                           	callstack 0
   567  0000BD                     	ds	1
   568  0000BE                     led_turn_off@F2891:
   569                           	callstack 0
   570  0000BE                     	ds	1
   571  0000BF                     led_turn_on@F2886:
   572                           	callstack 0
   573  0000BF                     	ds	1
   574  0000C0                     led_initialize@F2881:
   575                           	callstack 0
   576  0000C0                     	ds	1
   577  0000C1                     _period:
   578                           	callstack 0
   579  0000C1                     	ds	4
   580                           
   581                           	psect	dataBANK0
   582  0000C5                     __pdataBANK0:
   583                           	callstack 0
   584  0000C5                     _lat_registers:
   585                           	callstack 0
   586  0000C5                     	ds	10
   587  0000CF                     _tris_registers:
   588                           	callstack 0
   589  0000CF                     	ds	10
   590  0000D9                     main@F3567:
   591                           	callstack 0
   592  0000D9                     	ds	4
   593  0000DD                     _tmr1:
   594                           	callstack 0
   595  0000DD                     	ds	7
   596  0000E4                     _ccp1_pin:
   597                           	callstack 0
   598  0000E4                     	ds	1
   599                           
   600                           	psect	bssBANK1
   601  000134                     __pbssBANK1:
   602                           	callstack 0
   603  000134                     _dbuf:
   604                           	callstack 0
   605  000134                     	ds	32
   606                           
   607                           	psect	dataBANK1
   608  000100                     __pdataBANK1:
   609                           	callstack 0
   610  000100                     _port_registers:
   611                           	callstack 0
   612  000100                     	ds	10
   613  00010A                     _ccp1obj:
   614                           	callstack 0
   615  00010A                     	ds	16
   616  00011A                     _lcd8bit:
   617                           	callstack 0
   618  00011A                     	ds	10
   619  000124                     _lcd_2:
   620                           	callstack 0
   621  000124                     	ds	10
   622  00012E                     _lcd_1:
   623                           	callstack 0
   624  00012E                     	ds	6
   625                           
   626                           	psect	cstackBANK1
   627  000154                     __pcstackBANK1:
   628                           	callstack 0
   629  000154                     main@x:
   630                           	callstack 0
   631                           
   632                           ; 4 bytes @ 0x0
   633  000154                     	ds	4
   634  000158                     _main$4670:
   635                           	callstack 0
   636                           
   637                           ; 4 bytes @ 0x4
   638  000158                     	ds	4
   639  00015C                     main@arr:
   640                           	callstack 0
   641                           
   642                           ; 4 bytes @ 0x8
   643  00015C                     	ds	4
   644                           
   645                           	psect	cstackBANK0
   646  0000E5                     __pcstackBANK0:
   647                           	callstack 0
   648  0000E5                     ??___fltol:
   649  0000E5                     ?_sprintf:
   650                           	callstack 0
   651  0000E5                     sprintf@s:
   652                           	callstack 0
   653                           
   654                           ; 2 bytes @ 0x0
   655  0000E5                     	ds	2
   656  0000E7                     sprintf@fmt:
   657                           	callstack 0
   658                           
   659                           ; 2 bytes @ 0x2
   660  0000E7                     	ds	2
   661  0000E9                     hal_ccp_init@ccpobj:
   662                           	callstack 0
   663                           
   664                           ; 2 bytes @ 0x4
   665  0000E9                     	ds	2
   666  0000EB                     ??_hal_ccp_init:
   667  0000EB                     sprintf@ap:
   668                           	callstack 0
   669                           
   670                           ; 2 bytes @ 0x6
   671  0000EB                     	ds	2
   672  0000ED                     _hal_ccp_init$4709:
   673                           	callstack 0
   674  0000ED                     sprintf@f:
   675                           	callstack 0
   676                           
   677                           ; 11 bytes @ 0x8
   678  0000ED                     	ds	4
   679  0000F1                     _hal_ccp_init$4710:
   680                           	callstack 0
   681                           
   682                           ; 4 bytes @ 0xC
   683  0000F1                     	ds	7
   684  0000F8                     convert_byte_to_string@str:
   685                           	callstack 0
   686                           
   687                           ; 2 bytes @ 0x13
   688  0000F8                     	ds	2
   689  0000FA                     convert_byte_to_string@value:
   690                           	callstack 0
   691                           
   692                           ; 1 bytes @ 0x15
   693  0000FA                     	ds	1
   694  0000FB                     ??_main:
   695                           
   696                           ; 1 bytes @ 0x16
   697  0000FB                     	ds	4
   698                           
   699                           	psect	cstackCOMRAM
   700  000001                     __pcstackCOMRAM:
   701                           	callstack 0
   702  000001                     RB4_ISR@source:
   703                           	callstack 0
   704  000001                     RB5_ISR@source:
   705                           	callstack 0
   706  000001                     RB6_ISR@source:
   707                           	callstack 0
   708  000001                     RB7_ISR@source:
   709                           	callstack 0
   710  000001                     hal_ccp_readCaptureValue@ccpobj:
   711                           	callstack 0
   712  000001                     i2hal_timer1_enable@timer1:
   713                           	callstack 0
   714  000001                     i2hal_timer1_disable@timer1:
   715                           	callstack 0
   716                           
   717                           ; 2 bytes @ 0x0
   718  000001                     	ds	2
   719  000003                     hal_ccp_readCaptureValue@value:
   720                           	callstack 0
   721                           
   722                           ; 2 bytes @ 0x2
   723  000003                     	ds	2
   724  000005                     
   725                           ; 1 bytes @ 0x4
   726  000005                     	ds	1
   727  000006                     hal_ccp_readCaptureValue@ccpr_val:
   728                           	callstack 0
   729                           
   730                           ; 2 bytes @ 0x5
   731  000006                     	ds	2
   732  000008                     hal_ccp_readCaptureValue@ccpr_val_3553:
   733                           	callstack 0
   734                           
   735                           ; 2 bytes @ 0x7
   736  000008                     	ds	2
   737  00000A                     ??_InterruptManager:
   738                           
   739                           ; 1 bytes @ 0x9
   740  00000A                     	ds	4
   741  00000E                     ?_strlen:
   742                           	callstack 0
   743  00000E                     ?___xxtofl:
   744                           	callstack 0
   745  00000E                     ?___aodiv:
   746                           	callstack 0
   747  00000E                     ?___aomod:
   748                           	callstack 0
   749  00000E                     gpio_pin_direction_initialize@pin_config:
   750                           	callstack 0
   751  00000E                     gpio_pin_write_logic@pin_config:
   752                           	callstack 0
   753  00000E                     hal_timer1_write_value@timer1:
   754                           	callstack 0
   755  00000E                     hal_timer1_select_clock_source@timer1:
   756                           	callstack 0
   757  00000E                     hal_timer1_synchronize_external_clock@timer1:
   758                           	callstack 0
   759  00000E                     hal_timer1_rw_8bit_16bit_mode@timer1:
   760                           	callstack 0
   761  00000E                     hal_timer1_set_prescaler@timer1:
   762                           	callstack 0
   763  00000E                     hal_timer1_config_timer1_oscillator@timer1:
   764                           	callstack 0
   765  00000E                     hal_timer1_interrupt_enable@timer1:
   766                           	callstack 0
   767  00000E                     hal_timer1_enable@timer1:
   768                           	callstack 0
   769  00000E                     hal_timer1_disable@timer1:
   770                           	callstack 0
   771  00000E                     hal_timer1_interrupt_handler_init@timer1:
   772                           	callstack 0
   773  00000E                     memset@dest:
   774                           	callstack 0
   775  00000E                     fputc@c:
   776                           	callstack 0
   777  00000E                     strlen@s:
   778                           	callstack 0
   779  00000E                     ___xxtofl@val:
   780                           	callstack 0
   781  00000E                     ___aodiv@dividend:
   782                           	callstack 0
   783  00000E                     ___aomod@dividend:
   784                           	callstack 0
   785                           
   786                           ; 8 bytes @ 0xD
   787  00000E                     	ds	2
   788  000010                     ??_gpio_pin_direction_initialize:
   789  000010                     ??_hal_timer1_set_prescaler:
   790  000010                     gpio_pin_write_logic@logic:
   791                           	callstack 0
   792  000010                     hal_timer1_write_value@value:
   793                           	callstack 0
   794  000010                     memset@c:
   795                           	callstack 0
   796  000010                     fputc@fp:
   797                           	callstack 0
   798  000010                     strlen@a:
   799                           	callstack 0
   800                           
   801                           ; 2 bytes @ 0xF
   802  000010                     	ds	1
   803  000011                     ??_gpio_pin_write_logic:
   804                           
   805                           ; 1 bytes @ 0x10
   806  000011                     	ds	1
   807  000012                     ??_fputc:
   808  000012                     ??___xxtofl:
   809  000012                     hal_timer1_initialize@timer1:
   810                           	callstack 0
   811  000012                     memset@n:
   812                           	callstack 0
   813                           
   814                           ; 2 bytes @ 0x11
   815  000012                     	ds	2
   816  000014                     ??_memset:
   817  000014                     
   818                           ; 1 bytes @ 0x13
   819  000014                     	ds	2
   820  000016                     gpio_pin_direction_initialize@Status:
   821                           	callstack 0
   822  000016                     ___xxtofl@sign:
   823                           	callstack 0
   824  000016                     memset@k:
   825                           	callstack 0
   826  000016                     ___aodiv@divisor:
   827                           	callstack 0
   828  000016                     ___aomod@divisor:
   829                           	callstack 0
   830                           
   831                           ; 8 bytes @ 0x15
   832  000016                     	ds	1
   833  000017                     gpio_pin_write_logic@Status:
   834                           	callstack 0
   835  000017                     ___xxtofl@exp:
   836                           	callstack 0
   837  000017                     fputs@s:
   838                           	callstack 0
   839                           
   840                           ; 2 bytes @ 0x16
   841  000017                     	ds	1
   842  000018                     lcd_8bit_send_command@lcd:
   843                           	callstack 0
   844  000018                     lcd_8bit_send_char_data@lcd:
   845                           	callstack 0
   846  000018                     gpio_pin_initialize@pin_config:
   847                           	callstack 0
   848  000018                     memset@s:
   849                           	callstack 0
   850  000018                     ___xxtofl@arg:
   851                           	callstack 0
   852                           
   853                           ; 4 bytes @ 0x17
   854  000018                     	ds	1
   855  000019                     fputs@fp:
   856                           	callstack 0
   857                           
   858                           ; 2 bytes @ 0x18
   859  000019                     	ds	1
   860  00001A                     ??_gpio_pin_initialize:
   861  00001A                     lcd_8bit_send_command@command:
   862                           	callstack 0
   863  00001A                     lcd_8bit_send_char_data@data:
   864                           	callstack 0
   865                           
   866                           ; 1 bytes @ 0x19
   867  00001A                     	ds	1
   868  00001B                     ??_lcd_8bit_send_command:
   869  00001B                     ??_lcd_8bit_send_char_data:
   870  00001B                     gpio_pin_initialize@Status:
   871                           	callstack 0
   872  00001B                     fputs@c:
   873                           	callstack 0
   874                           
   875                           ; 1 bytes @ 0x1A
   876  00001B                     	ds	1
   877  00001C                     ?___flmul:
   878                           	callstack 0
   879  00001C                     fputs@i:
   880                           	callstack 0
   881  00001C                     ___flmul@b:
   882                           	callstack 0
   883                           
   884                           ; 4 bytes @ 0x1B
   885  00001C                     	ds	2
   886  00001E                     ?_pad:
   887                           	callstack 0
   888  00001E                     ___aodiv@counter:
   889                           	callstack 0
   890  00001E                     ___aomod@counter:
   891                           	callstack 0
   892  00001E                     pad@fp:
   893                           	callstack 0
   894                           
   895                           ; 2 bytes @ 0x1D
   896  00001E                     	ds	1
   897  00001F                     lcd_8bit_send_command@Status:
   898                           	callstack 0
   899  00001F                     lcd_8bit_send_char_data@Status:
   900                           	callstack 0
   901  00001F                     ___aodiv@sign:
   902                           	callstack 0
   903  00001F                     ___aomod@sign:
   904                           	callstack 0
   905                           
   906                           ; 1 bytes @ 0x1E
   907  00001F                     	ds	1
   908  000020                     ?_abs:
   909                           	callstack 0
   910  000020                     lcd_8bit_send_command@l_lcd_pins_counter:
   911                           	callstack 0
   912  000020                     lcd_8bit_send_char_data@l_lcd_pins_counter:
   913                           	callstack 0
   914  000020                     pad@buf:
   915                           	callstack 0
   916  000020                     abs@a:
   917                           	callstack 0
   918  000020                     ___flmul@a:
   919                           	callstack 0
   920  000020                     ___aodiv@quotient:
   921                           	callstack 0
   922                           
   923                           ; 8 bytes @ 0x1F
   924  000020                     	ds	1
   925  000021                     lcd_8bit_initialize@lcd:
   926                           	callstack 0
   927  000021                     lcd_8bit_send_string@lcd:
   928                           	callstack 0
   929  000021                     lcd_8bit_set_cursor@lcd:
   930                           	callstack 0
   931                           
   932                           ; 2 bytes @ 0x20
   933  000021                     	ds	1
   934  000022                     ??_abs:
   935  000022                     pad@p:
   936                           	callstack 0
   937                           
   938                           ; 2 bytes @ 0x21
   939  000022                     	ds	1
   940  000023                     ??_lcd_8bit_initialize:
   941  000023                     lcd_8bit_set_cursor@row:
   942                           	callstack 0
   943  000023                     lcd_8bit_send_string@str:
   944                           	callstack 0
   945                           
   946                           ; 2 bytes @ 0x22
   947  000023                     	ds	1
   948  000024                     ??___flmul:
   949  000024                     ??_pad:
   950  000024                     lcd_8bit_set_cursor@column:
   951                           	callstack 0
   952                           
   953                           ; 1 bytes @ 0x23
   954  000024                     	ds	1
   955  000025                     ??_lcd_8bit_set_cursor:
   956  000025                     lcd_8bit_initialize@l_data_pins_counter:
   957                           	callstack 0
   958  000025                     lcd_8bit_send_string@Status:
   959                           	callstack 0
   960  000025                     pad@i:
   961                           	callstack 0
   962                           
   963                           ; 2 bytes @ 0x24
   964  000025                     	ds	1
   965  000026                     lcd_8bit_initialize@Status:
   966                           	callstack 0
   967                           
   968                           ; 1 bytes @ 0x25
   969  000026                     	ds	1
   970  000027                     lcd_8bit_set_cursor@Status:
   971                           	callstack 0
   972  000027                     pad@w:
   973                           	callstack 0
   974                           
   975                           ; 2 bytes @ 0x26
   976  000027                     	ds	1
   977  000028                     ___flmul@sign:
   978                           	callstack 0
   979  000028                     lcd_8bit_send_string_pos@lcd:
   980                           	callstack 0
   981                           
   982                           ; 2 bytes @ 0x27
   983  000028                     	ds	1
   984  000029                     ?_dtoa:
   985                           	callstack 0
   986  000029                     ___flmul@aexp:
   987                           	callstack 0
   988  000029                     dtoa@fp:
   989                           	callstack 0
   990                           
   991                           ; 2 bytes @ 0x28
   992  000029                     	ds	1
   993  00002A                     lcd_8bit_send_string_pos@row:
   994                           	callstack 0
   995  00002A                     ___flmul@grs:
   996                           	callstack 0
   997                           
   998                           ; 4 bytes @ 0x29
   999  00002A                     	ds	1
  1000  00002B                     lcd_8bit_send_string_pos@column:
  1001                           	callstack 0
  1002  00002B                     dtoa@d:
  1003                           	callstack 0
  1004                           
  1005                           ; 8 bytes @ 0x2A
  1006  00002B                     	ds	1
  1007  00002C                     lcd_8bit_send_string_pos@str:
  1008                           	callstack 0
  1009                           
  1010                           ; 2 bytes @ 0x2B
  1011  00002C                     	ds	2
  1012  00002E                     ___flmul@bexp:
  1013                           	callstack 0
  1014                           
  1015                           ; 1 bytes @ 0x2D
  1016  00002E                     	ds	1
  1017  00002F                     ___flmul@prod:
  1018                           	callstack 0
  1019                           
  1020                           ; 4 bytes @ 0x2E
  1021  00002F                     	ds	4
  1022  000033                     ??_dtoa:
  1023  000033                     ___flmul@temp:
  1024                           	callstack 0
  1025                           
  1026                           ; 2 bytes @ 0x32
  1027  000033                     	ds	2
  1028  000035                     ?___fldiv:
  1029                           	callstack 0
  1030  000035                     ___fldiv@b:
  1031                           	callstack 0
  1032                           
  1033                           ; 4 bytes @ 0x34
  1034  000035                     	ds	4
  1035  000039                     ___fldiv@a:
  1036                           	callstack 0
  1037                           
  1038                           ; 4 bytes @ 0x38
  1039  000039                     	ds	2
  1040  00003B                     _dtoa$4175:
  1041                           	callstack 0
  1042                           
  1043                           ; 2 bytes @ 0x3A
  1044  00003B                     	ds	2
  1045  00003D                     ??___fldiv:
  1046  00003D                     dtoa@p:
  1047                           	callstack 0
  1048                           
  1049                           ; 2 bytes @ 0x3C
  1050  00003D                     	ds	2
  1051  00003F                     dtoa@w:
  1052                           	callstack 0
  1053                           
  1054                           ; 2 bytes @ 0x3E
  1055  00003F                     	ds	2
  1056  000041                     dtoa@s:
  1057                           	callstack 0
  1058  000041                     ___fldiv@rem:
  1059                           	callstack 0
  1060                           
  1061                           ; 4 bytes @ 0x40
  1062  000041                     	ds	2
  1063  000043                     dtoa@n:
  1064                           	callstack 0
  1065                           
  1066                           ; 8 bytes @ 0x42
  1067  000043                     	ds	2
  1068  000045                     ___fldiv@sign:
  1069                           	callstack 0
  1070                           
  1071                           ; 1 bytes @ 0x44
  1072  000045                     	ds	1
  1073  000046                     ___fldiv@new_exp:
  1074                           	callstack 0
  1075                           
  1076                           ; 2 bytes @ 0x45
  1077  000046                     	ds	2
  1078  000048                     ___fldiv@grs:
  1079                           	callstack 0
  1080                           
  1081                           ; 4 bytes @ 0x47
  1082  000048                     	ds	3
  1083  00004B                     dtoa@i:
  1084                           	callstack 0
  1085                           
  1086                           ; 2 bytes @ 0x4A
  1087  00004B                     	ds	1
  1088  00004C                     ___fldiv@bexp:
  1089                           	callstack 0
  1090                           
  1091                           ; 1 bytes @ 0x4B
  1092  00004C                     	ds	1
  1093  00004D                     ?_vfpfcnvrt:
  1094                           	callstack 0
  1095  00004D                     ___fldiv@aexp:
  1096                           	callstack 0
  1097  00004D                     vfpfcnvrt@fp:
  1098                           	callstack 0
  1099                           
  1100                           ; 2 bytes @ 0x4C
  1101  00004D                     	ds	1
  1102  00004E                     ?___fladd:
  1103                           	callstack 0
  1104  00004E                     ___fladd@b:
  1105                           	callstack 0
  1106                           
  1107                           ; 4 bytes @ 0x4D
  1108  00004E                     	ds	1
  1109  00004F                     vfpfcnvrt@fmt:
  1110                           	callstack 0
  1111                           
  1112                           ; 2 bytes @ 0x4E
  1113  00004F                     	ds	2
  1114  000051                     vfpfcnvrt@ap:
  1115                           	callstack 0
  1116                           
  1117                           ; 2 bytes @ 0x50
  1118  000051                     	ds	1
  1119  000052                     ___fladd@a:
  1120                           	callstack 0
  1121                           
  1122                           ; 4 bytes @ 0x51
  1123  000052                     	ds	1
  1124  000053                     ??_vfpfcnvrt:
  1125                           
  1126                           ; 1 bytes @ 0x52
  1127  000053                     	ds	2
  1128  000055                     vfpfcnvrt@ll:
  1129                           	callstack 0
  1130                           
  1131                           ; 8 bytes @ 0x54
  1132  000055                     	ds	1
  1133  000056                     ??___fladd:
  1134                           
  1135                           ; 1 bytes @ 0x55
  1136  000056                     	ds	4
  1137  00005A                     ___fladd@signs:
  1138                           	callstack 0
  1139                           
  1140                           ; 1 bytes @ 0x59
  1141  00005A                     	ds	1
  1142  00005B                     ___fladd@aexp:
  1143                           	callstack 0
  1144                           
  1145                           ; 1 bytes @ 0x5A
  1146  00005B                     	ds	1
  1147  00005C                     ___fladd@bexp:
  1148                           	callstack 0
  1149                           
  1150                           ; 1 bytes @ 0x5B
  1151  00005C                     	ds	1
  1152  00005D                     ?_vfprintf:
  1153                           	callstack 0
  1154  00005D                     ___fladd@grs:
  1155                           	callstack 0
  1156  00005D                     vfprintf@fp:
  1157                           	callstack 0
  1158                           
  1159                           ; 2 bytes @ 0x5C
  1160  00005D                     	ds	1
  1161  00005E                     ?___fltol:
  1162                           	callstack 0
  1163  00005E                     ___fltol@f1:
  1164                           	callstack 0
  1165                           
  1166                           ; 4 bytes @ 0x5D
  1167  00005E                     	ds	1
  1168  00005F                     vfprintf@fmt:
  1169                           	callstack 0
  1170                           
  1171                           ; 2 bytes @ 0x5E
  1172  00005F                     	ds	2
  1173  000061                     vfprintf@ap:
  1174                           	callstack 0
  1175                           
  1176                           ; 2 bytes @ 0x60
  1177  000061                     	ds	1
  1178  000062                     ___fltol@sign1:
  1179                           	callstack 0
  1180                           
  1181                           ; 1 bytes @ 0x61
  1182  000062                     	ds	1
  1183  000063                     ___fltol@exp1:
  1184                           	callstack 0
  1185  000063                     vfprintf@cfmt:
  1186                           	callstack 0
  1187                           
  1188                           ; 2 bytes @ 0x62
  1189  000063                     	ds	2
  1190  000065                     
  1191                           ; 1 bytes @ 0x64
  1192 ;;
  1193 ;;Main: autosize = 0, tempsize = 4, incstack = 0, save=0
  1194 ;;
  1195 ;; *************** function _main *****************
  1196 ;; Defined at:
  1197 ;;		line 149 in file "application.c"
  1198 ;; Parameters:    Size  Location     Type
  1199 ;;		None
  1200 ;; Auto vars:     Size  Location     Type
  1201 ;;  arr             4    8[BANK1 ] unsigned char [4]
  1202 ;;  x               4    0[BANK1 ] unsigned char [4]
  1203 ;; Return value:  Size  Location     Type
  1204 ;;                  2  1433[None  ] int 
  1205 ;; Registers used:
  1206 ;;		wreg, fsr0l, fsr0h, fsr1l, fsr1h, fsr2l, fsr2h, status,2, status,0, tblptrl, tblptrh, tblptru, prodl, prodh, cstack
  1207 ;; Tracked objects:
  1208 ;;		On entry : 0/0
  1209 ;;		On exit  : 0/0
  1210 ;;		Unchanged: 0/0
  1211 ;; Data sizes:     COMRAM   BANK0   BANK1   BANK2   BANK3   BANK4   BANK5   BANK6   BANK7   BANK8   BANK9  BANK10  BANK1
      +1  BANK12  BANK13  BANK14  BANK15
  1212 ;;      Params:         0       0       0       0       0       0       0       0       0       0       0       0       
      +0       0       0       0       0
  1213 ;;      Locals:         0       0      12       0       0       0       0       0       0       0       0       0       
      +0       0       0       0       0
  1214 ;;      Temps:          0       4       0       0       0       0       0       0       0       0       0       0       
      +0       0       0       0       0
  1215 ;;      Totals:         0       4      12       0       0       0       0       0       0       0       0       0       
      +0       0       0       0       0
  1216 ;;Total ram usage:       16 bytes
  1217 ;; Hardware stack levels required when called: 13
  1218 ;; This function calls:
  1219 ;;		___fldiv
  1220 ;;		___fltol
  1221 ;;		___xxtofl
  1222 ;;		_convert_byte_to_string
  1223 ;;		_gpio_pin_direction_initialize
  1224 ;;		_hal_ccp_init
  1225 ;;		_hal_timer1_initialize
  1226 ;;		_lcd_8bit_initialize
  1227 ;;		_lcd_8bit_send_char_data
  1228 ;;		_lcd_8bit_send_string
  1229 ;;		_lcd_8bit_send_string_pos
  1230 ;; This function is called by:
  1231 ;;		Startup code after reset
  1232 ;; This function uses a non-reentrant model
  1233 ;;
  1234                           
  1235                           	psect	text0
  1236  002BD2                     __ptext0:
  1237                           	callstack 0
  1238  002BD2                     _main:
  1239                           	callstack 18
  1240  002BD2                     
  1241                           ;application.c: 152:     lcd_8bit_initialize(&lcd8bit);
  1242  002BD2  0E1A               	movlw	low _lcd8bit
  1243  002BD4  6E21               	movwf	lcd_8bit_initialize@lcd^0,c
  1244  002BD6  0E01               	movlw	high _lcd8bit
  1245  002BD8  6E22               	movwf	(lcd_8bit_initialize@lcd+1)^0,c
  1246  002BDA  EC1B  F01A         	call	_lcd_8bit_initialize	;wreg free
  1247  002BDE                     
  1248                           ;application.c: 154:     char x[4]= "101";
  1249  002BDE  C0D9  F154         	movff	main@F3567,main@x
  1250  002BE2  C0DA  F155         	movff	main@F3567+1,main@x+1
  1251  002BE6  C0DB  F156         	movff	main@F3567+2,main@x+2
  1252  002BEA  C0DC  F157         	movff	main@F3567+3,main@x+3
  1253                           
  1254                           ;application.c: 158:     hal_ccp_init(&ccp1obj);
  1255  002BEE  0E0A               	movlw	low _ccp1obj
  1256  002BF0  0100               	movlb	0	; () banked
  1257  002BF2  6FE9               	movwf	hal_ccp_init@ccpobj& (0+255),b
  1258  002BF4  0E01               	movlw	high _ccp1obj
  1259  002BF6  6FEA               	movwf	(hal_ccp_init@ccpobj+1)& (0+255),b
  1260  002BF8  EC10  F008         	call	_hal_ccp_init	;wreg free
  1261                           
  1262                           ;application.c: 159:     gpio_pin_direction_initialize(&ccp1_pin);
  1263  002BFC  0EE4               	movlw	low _ccp1_pin
  1264  002BFE  6E0E               	movwf	gpio_pin_direction_initialize@pin_config^0,c
  1265  002C00  0E00               	movlw	high _ccp1_pin
  1266  002C02  6E0F               	movwf	(gpio_pin_direction_initialize@pin_config+1)^0,c
  1267  002C04  ECDF  F018         	call	_gpio_pin_direction_initialize	;wreg free
  1268  002C08                     
  1269                           ;application.c: 160:     hal_timer1_initialize(&tmr1);
  1270  002C08  0EDD               	movlw	low _tmr1
  1271  002C0A  6E12               	movwf	hal_timer1_initialize@timer1^0,c
  1272  002C0C  0E00               	movlw	high _tmr1
  1273  002C0E  6E13               	movwf	(hal_timer1_initialize@timer1+1)^0,c
  1274  002C10  EC54  F01C         	call	_hal_timer1_initialize	;wreg free
  1275  002C14                     
  1276                           ;application.c: 162:     T3CONbits.T3CCP2 = 0;
  1277  002C14  9CB1               	bcf	177,6,c	;volatile
  1278  002C16                     
  1279                           ;application.c: 163:     T3CONbits.T3CCP1 = 0;
  1280  002C16  96B1               	bcf	177,3,c	;volatile
  1281  002C18                     
  1282                           ;application.c: 165:     char arr[4]={0};
  1283  002C18  0E00               	movlw	0
  1284  002C1A  0101               	movlb	1	; () banked
  1285  002C1C  6F5C               	movwf	main@arr& (0+255),b
  1286  002C1E  0E00               	movlw	0
  1287  002C20  6F5D               	movwf	(main@arr+1)& (0+255),b
  1288  002C22  0E00               	movlw	0
  1289  002C24  6F5E               	movwf	(main@arr+2)& (0+255),b
  1290  002C26  0E00               	movlw	0
  1291  002C28  6F5F               	movwf	(main@arr+3)& (0+255),b
  1292  002C2A                     
  1293                           ; BSR set to: 1
  1294                           ;application.c: 166:     lcd_8bit_send_string(&lcd8bit,"Frequency");
  1295  002C2A  0E1A               	movlw	low _lcd8bit
  1296  002C2C  6E21               	movwf	lcd_8bit_send_string@lcd^0,c
  1297  002C2E  0E01               	movlw	high _lcd8bit
  1298  002C30  6E22               	movwf	(lcd_8bit_send_string@lcd+1)^0,c
  1299  002C32  0E11               	movlw	low STR_4
  1300  002C34  6E23               	movwf	lcd_8bit_send_string@str^0,c
  1301  002C36  0E10               	movlw	high STR_4
  1302  002C38  6E24               	movwf	(lcd_8bit_send_string@str+1)^0,c
  1303  002C3A  EC62  F01D         	call	_lcd_8bit_send_string	;wreg free
  1304  002C3E                     
  1305                           ;application.c: 167:     lcd_8bit_send_char_data(&lcd8bit,'=');
  1306  002C3E  0E1A               	movlw	low _lcd8bit
  1307  002C40  6E18               	movwf	lcd_8bit_send_char_data@lcd^0,c
  1308  002C42  0E01               	movlw	high _lcd8bit
  1309  002C44  6E19               	movwf	(lcd_8bit_send_char_data@lcd+1)^0,c
  1310  002C46  0E3D               	movlw	61
  1311  002C48  6E1A               	movwf	lcd_8bit_send_char_data@data^0,c
  1312  002C4A  ECB0  F01C         	call	_lcd_8bit_send_char_data	;wreg free
  1313  002C4E                     l11344:
  1314                           
  1315                           ;application.c: 169:         if(second_edge_flag == 2){
  1316  002C4E  0E02               	movlw	2
  1317  002C50  0100               	movlb	0	; () banked
  1318  002C52  19B8               	xorwf	_second_edge_flag& (0+255),w,b	;volatile
  1319  002C54  A4D8               	btfss	status,2,c
  1320  002C56  EF2F  F016         	goto	u11861
  1321  002C5A  EF31  F016         	goto	u11860
  1322  002C5E                     u11861:
  1323  002C5E  EF95  F016         	goto	l11354
  1324  002C62                     u11860:
  1325  002C62                     
  1326                           ; BSR set to: 0
  1327                           ;application.c: 170:             period = end + (last_ovf * 65536);
  1328  002C62  5194               	movf	_last_ovf& (0+255),w,b	;volatile
  1329  002C64  6FFB               	movwf	??_main& (0+255),b
  1330  002C66  5195               	movf	(_last_ovf+1)& (0+255),w,b	;volatile
  1331  002C68  6FFC               	movwf	(??_main+1)& (0+255),b
  1332  002C6A  6BFD               	clrf	(??_main+2)& (0+255),b
  1333  002C6C  6BFE               	clrf	(??_main+3)& (0+255),b
  1334  002C6E  C0FC  F0FE         	movff	??_main+1,??_main+3
  1335  002C72  C0FB  F0FD         	movff	??_main,??_main+2
  1336  002C76  6BFC               	clrf	(??_main+1)& (0+255),b
  1337  002C78  6BFB               	clrf	??_main& (0+255),b
  1338  002C7A  506C               	movf	_end^0,w,c	;volatile
  1339  002C7C  25FB               	addwf	??_main& (0+255),w,b
  1340  002C7E  6FC1               	movwf	_period& (0+255),b	;volatile
  1341  002C80  506D               	movf	(_end+1)^0,w,c	;volatile
  1342  002C82  21FC               	addwfc	(??_main+1)& (0+255),w,b
  1343  002C84  6FC2               	movwf	(_period+1)& (0+255),b	;volatile
  1344  002C86  0E00               	movlw	0
  1345  002C88  21FD               	addwfc	(??_main+2)& (0+255),w,b
  1346  002C8A  6FC3               	movwf	(_period+2)& (0+255),b	;volatile
  1347  002C8C  0E00               	movlw	0
  1348  002C8E  21FE               	addwfc	(??_main+3)& (0+255),w,b
  1349  002C90  6FC4               	movwf	(_period+3)& (0+255),b	;volatile
  1350  002C92                     
  1351                           ; BSR set to: 0
  1352                           ;application.c: 171:             freq = (uint32_t)(1 / (period / 1000000.0));
  1353  002C92  0E00               	movlw	0
  1354  002C94  6E39               	movwf	___fldiv@a^0,c
  1355  002C96  0E24               	movlw	36
  1356  002C98  6E3A               	movwf	(___fldiv@a+1)^0,c
  1357  002C9A  0E74               	movlw	116
  1358  002C9C  6E3B               	movwf	(___fldiv@a+2)^0,c
  1359  002C9E  0E49               	movlw	73
  1360  002CA0  6E3C               	movwf	(___fldiv@a+3)^0,c
  1361  002CA2  C0C1  F00E         	movff	_period,___xxtofl@val	;volatile
  1362  002CA6  C0C2  F00F         	movff	_period+1,___xxtofl@val+1	;volatile
  1363  002CAA  C0C3  F010         	movff	_period+2,___xxtofl@val+2	;volatile
  1364  002CAE  C0C4  F011         	movff	_period+3,___xxtofl@val+3	;volatile
  1365  002CB2  0E00               	movlw	0
  1366  002CB4  EC0F  F015         	call	___xxtofl
  1367  002CB8  C00E  F035         	movff	?___xxtofl,___fldiv@b
  1368  002CBC  C00F  F036         	movff	?___xxtofl+1,___fldiv@b+1
  1369  002CC0  C010  F037         	movff	?___xxtofl+2,___fldiv@b+2
  1370  002CC4  C011  F038         	movff	?___xxtofl+3,___fldiv@b+3
  1371  002CC8  EC30  F00F         	call	___fldiv	;wreg free
  1372  002CCC  C035  F158         	movff	?___fldiv,_main$4670
  1373  002CD0  C036  F159         	movff	?___fldiv+1,_main$4670+1
  1374  002CD4  C037  F15A         	movff	?___fldiv+2,_main$4670+2
  1375  002CD8  C038  F15B         	movff	?___fldiv+3,_main$4670+3
  1376  002CDC                     
  1377                           ;application.c: 171:             freq = (uint32_t)(1 / (period / 1000000.0));
  1378  002CDC  C158  F039         	movff	_main$4670,___fldiv@a
  1379  002CE0  C159  F03A         	movff	_main$4670+1,___fldiv@a+1
  1380  002CE4  C15A  F03B         	movff	_main$4670+2,___fldiv@a+2
  1381  002CE8  C15B  F03C         	movff	_main$4670+3,___fldiv@a+3
  1382  002CEC  0E00               	movlw	0
  1383  002CEE  6E35               	movwf	___fldiv@b^0,c
  1384  002CF0  0E00               	movlw	0
  1385  002CF2  6E36               	movwf	(___fldiv@b+1)^0,c
  1386  002CF4  0E80               	movlw	128
  1387  002CF6  6E37               	movwf	(___fldiv@b+2)^0,c
  1388  002CF8  0E3F               	movlw	63
  1389  002CFA  6E38               	movwf	(___fldiv@b+3)^0,c
  1390  002CFC  EC30  F00F         	call	___fldiv	;wreg free
  1391  002D00  C035  F05E         	movff	?___fldiv,___fltol@f1
  1392  002D04  C036  F05F         	movff	?___fldiv+1,___fltol@f1+1
  1393  002D08  C037  F060         	movff	?___fldiv+2,___fltol@f1+2
  1394  002D0C  C038  F061         	movff	?___fldiv+3,___fltol@f1+3
  1395  002D10  ECAB  F01A         	call	___fltol	;wreg free
  1396  002D14  C05E  F084         	movff	?___fltol,_freq	;volatile
  1397  002D18  C05F  F085         	movff	?___fltol+1,_freq+1	;volatile
  1398  002D1C  C060  F086         	movff	?___fltol+2,_freq+2	;volatile
  1399  002D20  C061  F087         	movff	?___fltol+3,_freq+3	;volatile
  1400  002D24                     
  1401                           ;application.c: 172:             second_edge_flag = 0;
  1402  002D24  0E00               	movlw	0
  1403  002D26  0100               	movlb	0	; () banked
  1404  002D28  6FB8               	movwf	_second_edge_flag& (0+255),b	;volatile
  1405  002D2A                     l11354:
  1406                           
  1407                           ; BSR set to: 0
  1408                           ;application.c: 175:         convert_byte_to_string(freq,arr);
  1409  002D2A  0E5C               	movlw	low main@arr
  1410  002D2C  6FF8               	movwf	convert_byte_to_string@str& (0+255),b
  1411  002D2E  0E01               	movlw	high main@arr
  1412  002D30  6FF9               	movwf	(convert_byte_to_string@str+1)& (0+255),b
  1413  002D32  5184               	movf	_freq& (0+255),w,b	;volatile
  1414  002D34  ECFE  F01F         	call	_convert_byte_to_string
  1415  002D38                     
  1416                           ;application.c: 176:         lcd_8bit_send_string_pos(&lcd8bit,1,11,arr);
  1417  002D38  0E1A               	movlw	low _lcd8bit
  1418  002D3A  6E28               	movwf	lcd_8bit_send_string_pos@lcd^0,c
  1419  002D3C  0E01               	movlw	high _lcd8bit
  1420  002D3E  6E29               	movwf	(lcd_8bit_send_string_pos@lcd+1)^0,c
  1421  002D40  0E01               	movlw	1
  1422  002D42  6E2A               	movwf	lcd_8bit_send_string_pos@row^0,c
  1423  002D44  0E0B               	movlw	11
  1424  002D46  6E2B               	movwf	lcd_8bit_send_string_pos@column^0,c
  1425  002D48  0E5C               	movlw	low main@arr
  1426  002D4A  6E2C               	movwf	lcd_8bit_send_string_pos@str^0,c
  1427  002D4C  0E01               	movlw	high main@arr
  1428  002D4E  6E2D               	movwf	(lcd_8bit_send_string_pos@str+1)^0,c
  1429  002D50  ECA7  F01F         	call	_lcd_8bit_send_string_pos	;wreg free
  1430  002D54  EF27  F016         	goto	l11344
  1431  002D58  EF07  F000         	goto	start
  1432  002D5C                     __end_of_main:
  1433                           	callstack 0
  1434                           
  1435 ;; *************** function _lcd_8bit_send_string_pos *****************
  1436 ;; Defined at:
  1437 ;;		line 348 in file "ECU_Layer/Chr_LCD/ecu_chr_lcd.c"
  1438 ;; Parameters:    Size  Location     Type
  1439 ;;  lcd             2   39[COMRAM] PTR const struct .
  1440 ;;		 -> lcd8bit(10), 
  1441 ;;  row             1   41[COMRAM] unsigned char 
  1442 ;;  column          1   42[COMRAM] unsigned char 
  1443 ;;  str             2   43[COMRAM] PTR unsigned char 
  1444 ;;		 -> main@arr(4), 
  1445 ;; Auto vars:     Size  Location     Type
  1446 ;;  Status          1    0        unsigned char 
  1447 ;; Return value:  Size  Location     Type
  1448 ;;                  1    wreg      unsigned char 
  1449 ;; Registers used:
  1450 ;;		wreg, fsr0l, fsr0h, fsr2l, fsr2h, status,2, status,0, tblptrl, tblptrh, tblptru, prodl, prodh, cstack
  1451 ;; Tracked objects:
  1452 ;;		On entry : 0/0
  1453 ;;		On exit  : 0/0
  1454 ;;		Unchanged: 0/0
  1455 ;; Data sizes:     COMRAM   BANK0   BANK1   BANK2   BANK3   BANK4   BANK5   BANK6   BANK7   BANK8   BANK9  BANK10  BANK1
      +1  BANK12  BANK13  BANK14  BANK15
  1456 ;;      Params:         6       0       0       0       0       0       0       0       0       0       0       0       
      +0       0       0       0       0
  1457 ;;      Locals:         0       0       0       0       0       0       0       0       0       0       0       0       
      +0       0       0       0       0
  1458 ;;      Temps:          0       0       0       0       0       0       0       0       0       0       0       0       
      +0       0       0       0       0
  1459 ;;      Totals:         6       0       0       0       0       0       0       0       0       0       0       0       
      +0       0       0       0       0
  1460 ;;Total ram usage:        6 bytes
  1461 ;; Hardware stack levels used: 1
  1462 ;; Hardware stack levels required when called: 7
  1463 ;; This function calls:
  1464 ;;		_lcd_8bit_send_string
  1465 ;;		_lcd_8bit_set_cursor
  1466 ;; This function is called by:
  1467 ;;		_main
  1468 ;; This function uses a non-reentrant model
  1469 ;;
  1470                           
  1471                           	psect	text1
  1472  003F4E                     __ptext1:
  1473                           	callstack 0
  1474  003F4E                     _lcd_8bit_send_string_pos:
  1475                           	callstack 23
  1476  003F4E                     
  1477                           ;ECU_Layer/Chr_LCD/ecu_chr_lcd.c: 350:     if(lcd != ((void*)0) && *str!= ((void*)0)){
  1478  003F4E  5028               	movf	lcd_8bit_send_string_pos@lcd^0,w,c
  1479  003F50  1029               	iorwf	(lcd_8bit_send_string_pos@lcd+1)^0,w,c
  1480  003F52  B4D8               	btfsc	status,2,c
  1481  003F54  EFAE  F01F         	goto	u11251
  1482  003F58  EFB0  F01F         	goto	u11250
  1483  003F5C                     u11251:
  1484  003F5C  EFD2  F01F         	goto	l10694
  1485  003F60                     u11250:
  1486  003F60  C02C  FFD9         	movff	lcd_8bit_send_string_pos@str,fsr2l
  1487  003F64  C02D  FFDA         	movff	lcd_8bit_send_string_pos@str+1,fsr2h
  1488  003F68  50DF               	movf	indf2,w,c
  1489  003F6A  B4D8               	btfsc	status,2,c
  1490  003F6C  EFBA  F01F         	goto	u11261
  1491  003F70  EFBC  F01F         	goto	u11260
  1492  003F74                     u11261:
  1493  003F74  EFD2  F01F         	goto	l10694
  1494  003F78                     u11260:
  1495  003F78  C028  F021         	movff	lcd_8bit_send_string_pos@lcd,lcd_8bit_set_cursor@lcd
  1496  003F7C  C029  F022         	movff	lcd_8bit_send_string_pos@lcd+1,lcd_8bit_set_cursor@lcd+1
  1497  003F80  C02A  F023         	movff	lcd_8bit_send_string_pos@row,lcd_8bit_set_cursor@row
  1498  003F84  C02B  F024         	movff	lcd_8bit_send_string_pos@column,lcd_8bit_set_cursor@column
  1499  003F88  ECF5  F01B         	call	_lcd_8bit_set_cursor	;wreg free
  1500  003F8C  C028  F021         	movff	lcd_8bit_send_string_pos@lcd,lcd_8bit_send_string@lcd
  1501  003F90  C029  F022         	movff	lcd_8bit_send_string_pos@lcd+1,lcd_8bit_send_string@lcd+1
  1502  003F94  C02C  F023         	movff	lcd_8bit_send_string_pos@str,lcd_8bit_send_string@str
  1503  003F98  C02D  F024         	movff	lcd_8bit_send_string_pos@str+1,lcd_8bit_send_string@str+1
  1504  003F9C  EC62  F01D         	call	_lcd_8bit_send_string	;wreg free
  1505                           
  1506                           ;ECU_Layer/Chr_LCD/ecu_chr_lcd.c: 353:     }
  1507  003FA0  EFD2  F01F         	goto	l156
  1508  003FA4                     l10694:
  1509  003FA4                     l156:
  1510  003FA4  0012               	return		;funcret
  1511  003FA6                     __end_of_lcd_8bit_send_string_pos:
  1512                           	callstack 0
  1513                           
  1514 ;; *************** function _lcd_8bit_set_cursor *****************
  1515 ;; Defined at:
  1516 ;;		line 378 in file "ECU_Layer/Chr_LCD/ecu_chr_lcd.c"
  1517 ;; Parameters:    Size  Location     Type
  1518 ;;  lcd             2   32[COMRAM] PTR const struct .
  1519 ;;		 -> lcd8bit(10), 
  1520 ;;  row             1   34[COMRAM] unsigned char 
  1521 ;;  column          1   35[COMRAM] unsigned char 
  1522 ;; Auto vars:     Size  Location     Type
  1523 ;;  Status          1   38[COMRAM] unsigned char 
  1524 ;; Return value:  Size  Location     Type
  1525 ;;                  1    wreg      unsigned char 
  1526 ;; Registers used:
  1527 ;;		wreg, fsr2l, fsr2h, status,2, status,0, prodl, prodh, cstack
  1528 ;; Tracked objects:
  1529 ;;		On entry : 0/0
  1530 ;;		On exit  : 0/0
  1531 ;;		Unchanged: 0/0
  1532 ;; Data sizes:     COMRAM   BANK0   BANK1   BANK2   BANK3   BANK4   BANK5   BANK6   BANK7   BANK8   BANK9  BANK10  BANK1
      +1  BANK12  BANK13  BANK14  BANK15
  1533 ;;      Params:         4       0       0       0       0       0       0       0       0       0       0       0       
      +0       0       0       0       0
  1534 ;;      Locals:         1       0       0       0       0       0       0       0       0       0       0       0       
      +0       0       0       0       0
  1535 ;;      Temps:          2       0       0       0       0       0       0       0       0       0       0       0       
      +0       0       0       0       0
  1536 ;;      Totals:         7       0       0       0       0       0       0       0       0       0       0       0       
      +0       0       0       0       0
  1537 ;;Total ram usage:        7 bytes
  1538 ;; Hardware stack levels used: 1
  1539 ;; Hardware stack levels required when called: 6
  1540 ;; This function calls:
  1541 ;;		_lcd_8bit_send_command
  1542 ;; This function is called by:
  1543 ;;		_lcd_8bit_send_string_pos
  1544 ;;		_lcd_8bit_send_char_data_pos
  1545 ;; This function uses a non-reentrant model
  1546 ;;
  1547                           
  1548                           	psect	text2
  1549  0037EA                     __ptext2:
  1550                           	callstack 0
  1551  0037EA                     _lcd_8bit_set_cursor:
  1552                           	callstack 23
  1553  0037EA                     
  1554                           ;ECU_Layer/Chr_LCD/ecu_chr_lcd.c: 381:     if(lcd != ((void*)0)){
  1555  0037EA  5021               	movf	lcd_8bit_set_cursor@lcd^0,w,c
  1556  0037EC  1022               	iorwf	(lcd_8bit_set_cursor@lcd+1)^0,w,c
  1557  0037EE  B4D8               	btfsc	status,2,c
  1558  0037F0  EFFC  F01B         	goto	u9831
  1559  0037F4  EFFE  F01B         	goto	u9830
  1560  0037F8                     u9831:
  1561  0037F8  EF31  F01C         	goto	l9744
  1562  0037FC                     u9830:
  1563  0037FC                     
  1564                           ;ECU_Layer/Chr_LCD/ecu_chr_lcd.c: 382:         column--;
  1565  0037FC  0624               	decf	lcd_8bit_set_cursor@column^0,f,c
  1566                           
  1567                           ;ECU_Layer/Chr_LCD/ecu_chr_lcd.c: 383:         switch(row){
  1568  0037FE  EF35  F01C         	goto	l9748
  1569  003802                     l9736:
  1570                           
  1571                           ;ECU_Layer/Chr_LCD/ecu_chr_lcd.c: 385:                 Status = lcd_8bit_send_command(lc
      +                          d,0x80+column);
  1572  003802  C021  F018         	movff	lcd_8bit_set_cursor@lcd,lcd_8bit_send_command@lcd
  1573  003806  C022  F019         	movff	lcd_8bit_set_cursor@lcd+1,lcd_8bit_send_command@lcd+1
  1574  00380A  5024               	movf	lcd_8bit_set_cursor@column^0,w,c
  1575  00380C  0F80               	addlw	128
  1576  00380E  6E1A               	movwf	lcd_8bit_send_command@command^0,c
  1577  003810  EC09  F01D         	call	_lcd_8bit_send_command	;wreg free
  1578  003814  6E27               	movwf	lcd_8bit_set_cursor@Status^0,c
  1579                           
  1580                           ;ECU_Layer/Chr_LCD/ecu_chr_lcd.c: 386:                 break;
  1581  003816  EF52  F01C         	goto	l172
  1582  00381A                     l9738:
  1583                           
  1584                           ;ECU_Layer/Chr_LCD/ecu_chr_lcd.c: 391:                 Status = lcd_8bit_send_command(lc
      +                          d,0xC0+column);
  1585  00381A  C021  F018         	movff	lcd_8bit_set_cursor@lcd,lcd_8bit_send_command@lcd
  1586  00381E  C022  F019         	movff	lcd_8bit_set_cursor@lcd+1,lcd_8bit_send_command@lcd+1
  1587  003822  5024               	movf	lcd_8bit_set_cursor@column^0,w,c
  1588  003824  0FC0               	addlw	192
  1589  003826  6E1A               	movwf	lcd_8bit_send_command@command^0,c
  1590  003828  EC09  F01D         	call	_lcd_8bit_send_command	;wreg free
  1591  00382C  6E27               	movwf	lcd_8bit_set_cursor@Status^0,c
  1592                           
  1593                           ;ECU_Layer/Chr_LCD/ecu_chr_lcd.c: 392:                 break;
  1594  00382E  EF52  F01C         	goto	l172
  1595  003832                     l9740:
  1596                           
  1597                           ;ECU_Layer/Chr_LCD/ecu_chr_lcd.c: 396:                 Status = lcd_8bit_send_command(lc
      +                          d,0x94+column);
  1598  003832  C021  F018         	movff	lcd_8bit_set_cursor@lcd,lcd_8bit_send_command@lcd
  1599  003836  C022  F019         	movff	lcd_8bit_set_cursor@lcd+1,lcd_8bit_send_command@lcd+1
  1600  00383A  5024               	movf	lcd_8bit_set_cursor@column^0,w,c
  1601  00383C  0F94               	addlw	148
  1602  00383E  6E1A               	movwf	lcd_8bit_send_command@command^0,c
  1603  003840  EC09  F01D         	call	_lcd_8bit_send_command	;wreg free
  1604  003844  6E27               	movwf	lcd_8bit_set_cursor@Status^0,c
  1605                           
  1606                           ;ECU_Layer/Chr_LCD/ecu_chr_lcd.c: 397:                 break;
  1607  003846  EF52  F01C         	goto	l172
  1608  00384A                     l9742:
  1609                           
  1610                           ;ECU_Layer/Chr_LCD/ecu_chr_lcd.c: 402:                 Status = lcd_8bit_send_command(lc
      +                          d,0xD4+column);
  1611  00384A  C021  F018         	movff	lcd_8bit_set_cursor@lcd,lcd_8bit_send_command@lcd
  1612  00384E  C022  F019         	movff	lcd_8bit_set_cursor@lcd+1,lcd_8bit_send_command@lcd+1
  1613  003852  5024               	movf	lcd_8bit_set_cursor@column^0,w,c
  1614  003854  0FD4               	addlw	212
  1615  003856  6E1A               	movwf	lcd_8bit_send_command@command^0,c
  1616  003858  EC09  F01D         	call	_lcd_8bit_send_command	;wreg free
  1617  00385C  6E27               	movwf	lcd_8bit_set_cursor@Status^0,c
  1618                           
  1619                           ;ECU_Layer/Chr_LCD/ecu_chr_lcd.c: 403:                 break;
  1620  00385E  EF52  F01C         	goto	l172
  1621  003862                     l9744:
  1622                           
  1623                           ;ECU_Layer/Chr_LCD/ecu_chr_lcd.c: 406:                 Status = (STD_ReturnType)0x00;
  1624  003862  0E00               	movlw	0
  1625  003864  6E27               	movwf	lcd_8bit_set_cursor@Status^0,c
  1626                           
  1627                           ;ECU_Layer/Chr_LCD/ecu_chr_lcd.c: 407:                 break;
  1628  003866  EF52  F01C         	goto	l172
  1629  00386A                     l9748:
  1630  00386A  5023               	movf	lcd_8bit_set_cursor@row^0,w,c
  1631  00386C  6E25               	movwf	??_lcd_8bit_set_cursor^0,c
  1632  00386E  6A26               	clrf	(??_lcd_8bit_set_cursor+1)^0,c
  1633                           
  1634                           ; Switch on 2 bytes has been partitioned into a top level switch of size 1, and 1 sub-sw
      +                          itches
  1635                           ; Switch size 1, requested type "simple"
  1636                           ; Number of cases is 1, Range of values is 0 to 0
  1637                           ; switch strategies available:
  1638                           ; Name         Instructions Cycles
  1639                           ; simple_byte            4     3 (average)
  1640                           ;	Chosen strategy is simple_byte
  1641  003870  5026               	movf	(??_lcd_8bit_set_cursor+1)^0,w,c
  1642  003872  0A00               	xorlw	0	; case 0
  1643  003874  B4D8               	btfsc	status,2,c
  1644  003876  EF3F  F01C         	goto	l11574
  1645  00387A  EF31  F01C         	goto	l9744
  1646  00387E                     l11574:
  1647                           
  1648                           ; Switch size 1, requested type "simple"
  1649                           ; Number of cases is 4, Range of values is 1 to 4
  1650                           ; switch strategies available:
  1651                           ; Name         Instructions Cycles
  1652                           ; simple_byte           13     7 (average)
  1653                           ;	Chosen strategy is simple_byte
  1654  00387E  5025               	movf	??_lcd_8bit_set_cursor^0,w,c
  1655  003880  0A01               	xorlw	1	; case 1
  1656  003882  B4D8               	btfsc	status,2,c
  1657  003884  EF01  F01C         	goto	l9736
  1658  003888  0A03               	xorlw	3	; case 2
  1659  00388A  B4D8               	btfsc	status,2,c
  1660  00388C  EF0D  F01C         	goto	l9738
  1661  003890  0A01               	xorlw	1	; case 3
  1662  003892  B4D8               	btfsc	status,2,c
  1663  003894  EF19  F01C         	goto	l9740
  1664  003898  0A07               	xorlw	7	; case 4
  1665  00389A  B4D8               	btfsc	status,2,c
  1666  00389C  EF25  F01C         	goto	l9742
  1667  0038A0  EF31  F01C         	goto	l9744
  1668  0038A4                     l172:
  1669                           
  1670                           ;ECU_Layer/Chr_LCD/ecu_chr_lcd.c: 417:     return Status;
  1671  0038A4  5027               	movf	lcd_8bit_set_cursor@Status^0,w,c
  1672  0038A6  0012               	return		;funcret
  1673  0038A8                     __end_of_lcd_8bit_set_cursor:
  1674                           	callstack 0
  1675                           
  1676 ;; *************** function _lcd_8bit_send_string *****************
  1677 ;; Defined at:
  1678 ;;		line 332 in file "ECU_Layer/Chr_LCD/ecu_chr_lcd.c"
  1679 ;; Parameters:    Size  Location     Type
  1680 ;;  lcd             2   32[COMRAM] PTR const struct .
  1681 ;;		 -> lcd8bit(10), 
  1682 ;;  str             2   34[COMRAM] PTR unsigned char 
  1683 ;;		 -> STR_4(10), main@arr(4), 
  1684 ;; Auto vars:     Size  Location     Type
  1685 ;;  Status          1   36[COMRAM] unsigned char 
  1686 ;; Return value:  Size  Location     Type
  1687 ;;                  1    wreg      unsigned char 
  1688 ;; Registers used:
  1689 ;;		wreg, fsr0l, fsr0h, fsr2l, fsr2h, status,2, status,0, tblptrl, tblptrh, tblptru, prodl, prodh, cstack
  1690 ;; Tracked objects:
  1691 ;;		On entry : 0/0
  1692 ;;		On exit  : 0/0
  1693 ;;		Unchanged: 0/0
  1694 ;; Data sizes:     COMRAM   BANK0   BANK1   BANK2   BANK3   BANK4   BANK5   BANK6   BANK7   BANK8   BANK9  BANK10  BANK1
      +1  BANK12  BANK13  BANK14  BANK15
  1695 ;;      Params:         4       0       0       0       0       0       0       0       0       0       0       0       
      +0       0       0       0       0
  1696 ;;      Locals:         1       0       0       0       0       0       0       0       0       0       0       0       
      +0       0       0       0       0
  1697 ;;      Temps:          0       0       0       0       0       0       0       0       0       0       0       0       
      +0       0       0       0       0
  1698 ;;      Totals:         5       0       0       0       0       0       0       0       0       0       0       0       
      +0       0       0       0       0
  1699 ;;Total ram usage:        5 bytes
  1700 ;; Hardware stack levels used: 1
  1701 ;; Hardware stack levels required when called: 6
  1702 ;; This function calls:
  1703 ;;		_lcd_8bit_send_char_data
  1704 ;; This function is called by:
  1705 ;;		_lcd_8bit_send_string_pos
  1706 ;;		_main
  1707 ;; This function uses a non-reentrant model
  1708 ;;
  1709                           
  1710                           	psect	text3
  1711  003AC4                     __ptext3:
  1712                           	callstack 0
  1713  003AC4                     _lcd_8bit_send_string:
  1714                           	callstack 23
  1715  003AC4                     
  1716                           ;ECU_Layer/Chr_LCD/ecu_chr_lcd.c: 333:     STD_ReturnType Status = (STD_ReturnType)0x01;
  1717  003AC4  0E01               	movlw	1
  1718  003AC6  6E25               	movwf	lcd_8bit_send_string@Status^0,c
  1719  003AC8                     
  1720                           ;ECU_Layer/Chr_LCD/ecu_chr_lcd.c: 334:     if(lcd != ((void*)0) && str != ((void*)0)){
  1721  003AC8  5021               	movf	lcd_8bit_send_string@lcd^0,w,c
  1722  003ACA  1022               	iorwf	(lcd_8bit_send_string@lcd+1)^0,w,c
  1723  003ACC  B4D8               	btfsc	status,2,c
  1724  003ACE  EF6B  F01D         	goto	u9841
  1725  003AD2  EF6D  F01D         	goto	u9840
  1726  003AD6                     u9841:
  1727  003AD6  EFAE  F01D         	goto	l9772
  1728  003ADA                     u9840:
  1729  003ADA  5023               	movf	lcd_8bit_send_string@str^0,w,c
  1730  003ADC  1024               	iorwf	(lcd_8bit_send_string@str+1)^0,w,c
  1731  003ADE  B4D8               	btfsc	status,2,c
  1732  003AE0  EF74  F01D         	goto	u9851
  1733  003AE4  EF76  F01D         	goto	u9850
  1734  003AE8                     u9851:
  1735  003AE8  EFAE  F01D         	goto	l9772
  1736  003AEC                     u9850:
  1737  003AEC  EF93  F01D         	goto	l9770
  1738  003AF0                     l9766:
  1739                           
  1740                           ;ECU_Layer/Chr_LCD/ecu_chr_lcd.c: 336:             Status = lcd_8bit_send_char_data(lcd,
      +                          *str++);
  1741  003AF0  C021  F018         	movff	lcd_8bit_send_string@lcd,lcd_8bit_send_char_data@lcd
  1742  003AF4  C022  F019         	movff	lcd_8bit_send_string@lcd+1,lcd_8bit_send_char_data@lcd+1
  1743  003AF8  C023  FFF6         	movff	lcd_8bit_send_string@str,tblptrl
  1744  003AFC  C024  FFF7         	movff	lcd_8bit_send_string@str+1,tblptrh
  1745  003B00  0E00               	movlw	low (__smallconst shr (0+16))
  1746  003B02  6EF8               	movwf	tblptru,c
  1747  003B04  0E0F               	movlw	(high __ramtop+-1)
  1748  003B06  64F7               	cpfsgt	tblptrh,c
  1749  003B08  D003               	bra	u9867
  1750  003B0A  0008               	tblrd		*
  1751  003B0C  50F5               	movf	tablat,w,c
  1752  003B0E  D005               	bra	u9860
  1753  003B10                     u9867:
  1754  003B10  CFF6 FFE9          	movff	tblptrl,fsr0l
  1755  003B14  CFF7 FFEA          	movff	tblptrh,fsr0h
  1756  003B18  50EF               	movf	indf0,w,c
  1757  003B1A                     u9860:
  1758  003B1A  6E1A               	movwf	lcd_8bit_send_char_data@data^0,c
  1759  003B1C  ECB0  F01C         	call	_lcd_8bit_send_char_data	;wreg free
  1760  003B20  6E25               	movwf	lcd_8bit_send_string@Status^0,c
  1761  003B22  4A23               	infsnz	lcd_8bit_send_string@str^0,f,c
  1762  003B24  2A24               	incf	(lcd_8bit_send_string@str+1)^0,f,c
  1763  003B26                     l9770:
  1764                           
  1765                           ;ECU_Layer/Chr_LCD/ecu_chr_lcd.c: 335:         while(*str != '\0'){
  1766  003B26  C023  FFF6         	movff	lcd_8bit_send_string@str,tblptrl
  1767  003B2A  C024  FFF7         	movff	lcd_8bit_send_string@str+1,tblptrh
  1768  003B2E  0E00               	movlw	low (__smallconst shr (0+16))
  1769  003B30  6EF8               	movwf	tblptru,c
  1770  003B32  0E0F               	movlw	(high __ramtop+-1)
  1771  003B34  64F7               	cpfsgt	tblptrh,c
  1772  003B36  D003               	bra	u9877
  1773  003B38  0008               	tblrd		*
  1774  003B3A  50F5               	movf	tablat,w,c
  1775  003B3C  D005               	bra	u9870
  1776  003B3E                     u9877:
  1777  003B3E  CFF6 FFE9          	movff	tblptrl,fsr0l
  1778  003B42  CFF7 FFEA          	movff	tblptrh,fsr0h
  1779  003B46  50EF               	movf	indf0,w,c
  1780  003B48                     u9870:
  1781  003B48  0900               	iorlw	0
  1782  003B4A  A4D8               	btfss	status,2,c
  1783  003B4C  EFAA  F01D         	goto	u9881
  1784  003B50  EFAC  F01D         	goto	u9880
  1785  003B54                     u9881:
  1786  003B54  EF78  F01D         	goto	l9766
  1787  003B58                     u9880:
  1788  003B58  EFB0  F01D         	goto	l150
  1789  003B5C                     l9772:
  1790                           
  1791                           ;ECU_Layer/Chr_LCD/ecu_chr_lcd.c: 340:         Status = (STD_ReturnType)0x00;
  1792  003B5C  0E00               	movlw	0
  1793  003B5E  6E25               	movwf	lcd_8bit_send_string@Status^0,c
  1794  003B60                     l150:
  1795                           
  1796                           ;ECU_Layer/Chr_LCD/ecu_chr_lcd.c: 344:     return Status;
  1797  003B60  5025               	movf	lcd_8bit_send_string@Status^0,w,c
  1798  003B62  0012               	return		;funcret
  1799  003B64                     __end_of_lcd_8bit_send_string:
  1800                           	callstack 0
  1801                           
  1802 ;; *************** function _lcd_8bit_send_char_data *****************
  1803 ;; Defined at:
  1804 ;;		line 293 in file "ECU_Layer/Chr_LCD/ecu_chr_lcd.c"
  1805 ;; Parameters:    Size  Location     Type
  1806 ;;  lcd             2   23[COMRAM] PTR const struct .
  1807 ;;		 -> lcd8bit(10), 
  1808 ;;  data            1   25[COMRAM] unsigned char 
  1809 ;; Auto vars:     Size  Location     Type
  1810 ;;  l_lcd_pins_c    1   31[COMRAM] unsigned char 
  1811 ;;  Status          1   30[COMRAM] unsigned char 
  1812 ;; Return value:  Size  Location     Type
  1813 ;;                  1    wreg      unsigned char 
  1814 ;; Registers used:
  1815 ;;		wreg, fsr2l, fsr2h, status,2, status,0, prodl, prodh, cstack
  1816 ;; Tracked objects:
  1817 ;;		On entry : 0/0
  1818 ;;		On exit  : 0/0
  1819 ;;		Unchanged: 0/0
  1820 ;; Data sizes:     COMRAM   BANK0   BANK1   BANK2   BANK3   BANK4   BANK5   BANK6   BANK7   BANK8   BANK9  BANK10  BANK1
      +1  BANK12  BANK13  BANK14  BANK15
  1821 ;;      Params:         3       0       0       0       0       0       0       0       0       0       0       0       
      +0       0       0       0       0
  1822 ;;      Locals:         2       0       0       0       0       0       0       0       0       0       0       0       
      +0       0       0       0       0
  1823 ;;      Temps:          4       0       0       0       0       0       0       0       0       0       0       0       
      +0       0       0       0       0
  1824 ;;      Totals:         9       0       0       0       0       0       0       0       0       0       0       0       
      +0       0       0       0       0
  1825 ;;Total ram usage:        9 bytes
  1826 ;; Hardware stack levels used: 1
  1827 ;; Hardware stack levels required when called: 5
  1828 ;; This function calls:
  1829 ;;		_gpio_pin_write_logic
  1830 ;; This function is called by:
  1831 ;;		_lcd_8bit_send_string
  1832 ;;		_main
  1833 ;;		_lcd_8bit_send_char_data_pos
  1834 ;; This function uses a non-reentrant model
  1835 ;;
  1836                           
  1837                           	psect	text4
  1838  003960                     __ptext4:
  1839                           	callstack 0
  1840  003960                     _lcd_8bit_send_char_data:
  1841                           	callstack 23
  1842  003960                     
  1843                           ;ECU_Layer/Chr_LCD/ecu_chr_lcd.c: 294:     STD_ReturnType Status = (STD_ReturnType)0x01;
  1844  003960  0E01               	movlw	1
  1845  003962  6E1F               	movwf	lcd_8bit_send_char_data@Status^0,c
  1846  003964                     
  1847                           ;ECU_Layer/Chr_LCD/ecu_chr_lcd.c: 297:     if(lcd != ((void*)0)){
  1848  003964  5018               	movf	lcd_8bit_send_char_data@lcd^0,w,c
  1849  003966  1019               	iorwf	(lcd_8bit_send_char_data@lcd+1)^0,w,c
  1850  003968  B4D8               	btfsc	status,2,c
  1851  00396A  EFB9  F01C         	goto	u9721
  1852  00396E  EFBB  F01C         	goto	u9720
  1853  003972                     u9721:
  1854  003972  EF05  F01D         	goto	l9660
  1855  003976                     u9720:
  1856  003976                     
  1857                           ;ECU_Layer/Chr_LCD/ecu_chr_lcd.c: 298:         gpio_pin_write_logic(&(lcd->lcd_rs),HIGH)
      +                          ;
  1858  003976  C018  F00E         	movff	lcd_8bit_send_char_data@lcd,gpio_pin_write_logic@pin_config
  1859  00397A  C019  F00F         	movff	lcd_8bit_send_char_data@lcd+1,gpio_pin_write_logic@pin_config+1
  1860  00397E  0E01               	movlw	1
  1861  003980  6E10               	movwf	gpio_pin_write_logic@logic^0,c
  1862  003982  EC83  F019         	call	_gpio_pin_write_logic	;wreg free
  1863  003986                     
  1864                           ;ECU_Layer/Chr_LCD/ecu_chr_lcd.c: 299:         for(l_lcd_pins_counter = 0 ;l_lcd_pins_co
      +                          unter < 8 ; l_lcd_pins_counter++){
  1865  003986  0E00               	movlw	0
  1866  003988  6E20               	movwf	lcd_8bit_send_char_data@l_lcd_pins_counter^0,c
  1867  00398A                     l9648:
  1868                           
  1869                           ;ECU_Layer/Chr_LCD/ecu_chr_lcd.c: 300:             gpio_pin_write_logic(&(lcd->lcd_data[
      +                          l_lcd_pins_counter]),(data >> l_lcd_pins_counter)& 0x01);
  1870  00398A  5020               	movf	lcd_8bit_send_char_data@l_lcd_pins_counter^0,w,c
  1871  00398C  2418               	addwf	lcd_8bit_send_char_data@lcd^0,w,c
  1872  00398E  6E1B               	movwf	??_lcd_8bit_send_char_data^0,c
  1873  003990  0E00               	movlw	0
  1874  003992  2019               	addwfc	(lcd_8bit_send_char_data@lcd+1)^0,w,c
  1875  003994  6E1C               	movwf	(??_lcd_8bit_send_char_data+1)^0,c
  1876  003996  0E02               	movlw	2
  1877  003998  241B               	addwf	??_lcd_8bit_send_char_data^0,w,c
  1878  00399A  6E0E               	movwf	gpio_pin_write_logic@pin_config^0,c
  1879  00399C  0E00               	movlw	0
  1880  00399E  201C               	addwfc	(??_lcd_8bit_send_char_data+1)^0,w,c
  1881  0039A0  6E0F               	movwf	(gpio_pin_write_logic@pin_config+1)^0,c
  1882  0039A2  C020  F01D         	movff	lcd_8bit_send_char_data@l_lcd_pins_counter,??_lcd_8bit_send_char_data+2
  1883  0039A6  C01A  F01E         	movff	lcd_8bit_send_char_data@data,??_lcd_8bit_send_char_data+3
  1884  0039AA  2A1D               	incf	(??_lcd_8bit_send_char_data+2)^0,f,c
  1885  0039AC  EFDA  F01C         	goto	u9734
  1886  0039B0                     u9735:
  1887  0039B0  90D8               	bcf	status,0,c
  1888  0039B2  321E               	rrcf	(??_lcd_8bit_send_char_data+3)^0,f,c
  1889  0039B4                     u9734:
  1890  0039B4  2E1D               	decfsz	(??_lcd_8bit_send_char_data+2)^0,f,c
  1891  0039B6  EFD8  F01C         	goto	u9735
  1892  0039BA  501E               	movf	(??_lcd_8bit_send_char_data+3)^0,w,c
  1893  0039BC  0B01               	andlw	1
  1894  0039BE  6E10               	movwf	gpio_pin_write_logic@logic^0,c
  1895  0039C0  EC83  F019         	call	_gpio_pin_write_logic	;wreg free
  1896  0039C4                     
  1897                           ;ECU_Layer/Chr_LCD/ecu_chr_lcd.c: 302:         }
  1898  0039C4  2A20               	incf	lcd_8bit_send_char_data@l_lcd_pins_counter^0,f,c
  1899  0039C6  0E07               	movlw	7
  1900  0039C8  6420               	cpfsgt	lcd_8bit_send_char_data@l_lcd_pins_counter^0,c
  1901  0039CA  EFE9  F01C         	goto	u9741
  1902  0039CE  EFEB  F01C         	goto	u9740
  1903  0039D2                     u9741:
  1904  0039D2  EFC5  F01C         	goto	l9648
  1905  0039D6                     u9740:
  1906  0039D6                     
  1907                           ;ECU_Layer/Chr_LCD/ecu_chr_lcd.c: 304:         gpio_pin_write_logic(&(lcd->lcd_en),HIGH)
      +                          ;
  1908  0039D6  0E01               	movlw	1
  1909  0039D8  2418               	addwf	lcd_8bit_send_char_data@lcd^0,w,c
  1910  0039DA  6E0E               	movwf	gpio_pin_write_logic@pin_config^0,c
  1911  0039DC  0E00               	movlw	0
  1912  0039DE  2019               	addwfc	(lcd_8bit_send_char_data@lcd+1)^0,w,c
  1913  0039E0  6E0F               	movwf	(gpio_pin_write_logic@pin_config+1)^0,c
  1914  0039E2  0E01               	movlw	1
  1915  0039E4  6E10               	movwf	gpio_pin_write_logic@logic^0,c
  1916  0039E6  EC83  F019         	call	_gpio_pin_write_logic	;wreg free
  1917  0039EA                     
  1918                           ;ECU_Layer/Chr_LCD/ecu_chr_lcd.c: 305:         _delay((unsigned long)((5)*(8000000/40000
      +                          00.0)));
  1919  0039EA  0E03               	movlw	3
  1920  0039EC                     u11897:
  1921  0039EC  2EE8               	decfsz	wreg,f,c
  1922  0039EE  D7FE               	bra	u11897
  1923  0039F0  F000               	nop	
  1924  0039F2                     
  1925                           ;ECU_Layer/Chr_LCD/ecu_chr_lcd.c: 306:         gpio_pin_write_logic(&(lcd->lcd_en),LOW);
  1926  0039F2  0E01               	movlw	1
  1927  0039F4  2418               	addwf	lcd_8bit_send_char_data@lcd^0,w,c
  1928  0039F6  6E0E               	movwf	gpio_pin_write_logic@pin_config^0,c
  1929  0039F8  0E00               	movlw	0
  1930  0039FA  2019               	addwfc	(lcd_8bit_send_char_data@lcd+1)^0,w,c
  1931  0039FC  6E0F               	movwf	(gpio_pin_write_logic@pin_config+1)^0,c
  1932  0039FE  0E00               	movlw	0
  1933  003A00  6E10               	movwf	gpio_pin_write_logic@logic^0,c
  1934  003A02  EC83  F019         	call	_gpio_pin_write_logic	;wreg free
  1935                           
  1936                           ;ECU_Layer/Chr_LCD/ecu_chr_lcd.c: 307:     }
  1937  003A06  EF07  F01D         	goto	l137
  1938  003A0A                     l9660:
  1939                           
  1940                           ;ECU_Layer/Chr_LCD/ecu_chr_lcd.c: 309:         Status = (STD_ReturnType)0x00;
  1941  003A0A  0E00               	movlw	0
  1942  003A0C  6E1F               	movwf	lcd_8bit_send_char_data@Status^0,c
  1943  003A0E                     l137:
  1944                           
  1945                           ;ECU_Layer/Chr_LCD/ecu_chr_lcd.c: 313:     return Status;
  1946  003A0E  501F               	movf	lcd_8bit_send_char_data@Status^0,w,c
  1947  003A10  0012               	return		;funcret
  1948  003A12                     __end_of_lcd_8bit_send_char_data:
  1949                           	callstack 0
  1950                           
  1951 ;; *************** function _lcd_8bit_initialize *****************
  1952 ;; Defined at:
  1953 ;;		line 227 in file "ECU_Layer/Chr_LCD/ecu_chr_lcd.c"
  1954 ;; Parameters:    Size  Location     Type
  1955 ;;  lcd             2   32[COMRAM] PTR const struct .
  1956 ;;		 -> lcd8bit(10), lcd_2(10), 
  1957 ;; Auto vars:     Size  Location     Type
  1958 ;;  Status          1   37[COMRAM] unsigned char 
  1959 ;;  l_data_pins_    1   36[COMRAM] unsigned char 
  1960 ;; Return value:  Size  Location     Type
  1961 ;;                  1    wreg      unsigned char 
  1962 ;; Registers used:
  1963 ;;		wreg, fsr2l, fsr2h, status,2, status,0, prodl, prodh, cstack
  1964 ;; Tracked objects:
  1965 ;;		On entry : 0/0
  1966 ;;		On exit  : 0/0
  1967 ;;		Unchanged: 0/0
  1968 ;; Data sizes:     COMRAM   BANK0   BANK1   BANK2   BANK3   BANK4   BANK5   BANK6   BANK7   BANK8   BANK9  BANK10  BANK1
      +1  BANK12  BANK13  BANK14  BANK15
  1969 ;;      Params:         2       0       0       0       0       0       0       0       0       0       0       0       
      +0       0       0       0       0
  1970 ;;      Locals:         2       0       0       0       0       0       0       0       0       0       0       0       
      +0       0       0       0       0
  1971 ;;      Temps:          2       0       0       0       0       0       0       0       0       0       0       0       
      +0       0       0       0       0
  1972 ;;      Totals:         6       0       0       0       0       0       0       0       0       0       0       0       
      +0       0       0       0       0
  1973 ;;Total ram usage:        6 bytes
  1974 ;; Hardware stack levels used: 1
  1975 ;; Hardware stack levels required when called: 6
  1976 ;; This function calls:
  1977 ;;		_gpio_pin_initialize
  1978 ;;		_lcd_8bit_send_command
  1979 ;; This function is called by:
  1980 ;;		_main
  1981 ;;		_ecu_layer_initialize
  1982 ;; This function uses a non-reentrant model
  1983 ;;
  1984                           
  1985                           	psect	text5
  1986  003436                     __ptext5:
  1987                           	callstack 0
  1988  003436                     _lcd_8bit_initialize:
  1989                           	callstack 24
  1990  003436                     
  1991                           ;ECU_Layer/Chr_LCD/ecu_chr_lcd.c: 229:     uint8 l_data_pins_counter = 0x00;
  1992  003436  0E00               	movlw	0
  1993  003438  6E25               	movwf	lcd_8bit_initialize@l_data_pins_counter^0,c
  1994  00343A                     
  1995                           ;ECU_Layer/Chr_LCD/ecu_chr_lcd.c: 230:     if(lcd != ((void*)0)){
  1996  00343A  5021               	movf	lcd_8bit_initialize@lcd^0,w,c
  1997  00343C  1022               	iorwf	(lcd_8bit_initialize@lcd+1)^0,w,c
  1998  00343E  B4D8               	btfsc	status,2,c
  1999  003440  EF24  F01A         	goto	u11231
  2000  003444  EF26  F01A         	goto	u11230
  2001  003448                     u11231:
  2002  003448  EFAA  F01A         	goto	l10680
  2003  00344C                     u11230:
  2004  00344C                     
  2005                           ;ECU_Layer/Chr_LCD/ecu_chr_lcd.c: 231:         Status = gpio_pin_initialize(&(lcd->lcd_e
      +                          n));
  2006  00344C  0E01               	movlw	1
  2007  00344E  2421               	addwf	lcd_8bit_initialize@lcd^0,w,c
  2008  003450  6E18               	movwf	gpio_pin_initialize@pin_config^0,c
  2009  003452  0E00               	movlw	0
  2010  003454  2022               	addwfc	(lcd_8bit_initialize@lcd+1)^0,w,c
  2011  003456  6E19               	movwf	(gpio_pin_initialize@pin_config+1)^0,c
  2012  003458  EC0F  F01F         	call	_gpio_pin_initialize	;wreg free
  2013  00345C  6E26               	movwf	lcd_8bit_initialize@Status^0,c
  2014                           
  2015                           ;ECU_Layer/Chr_LCD/ecu_chr_lcd.c: 232:         Status = gpio_pin_initialize(&(lcd->lcd_r
      +                          s));
  2016  00345E  C021  F018         	movff	lcd_8bit_initialize@lcd,gpio_pin_initialize@pin_config
  2017  003462  C022  F019         	movff	lcd_8bit_initialize@lcd+1,gpio_pin_initialize@pin_config+1
  2018  003466  EC0F  F01F         	call	_gpio_pin_initialize	;wreg free
  2019  00346A  6E26               	movwf	lcd_8bit_initialize@Status^0,c
  2020  00346C                     
  2021                           ;ECU_Layer/Chr_LCD/ecu_chr_lcd.c: 233:         for(l_data_pins_counter = 0; l_data_pins_
      +                          counter < 8 ; l_data_pins_counter++){
  2022  00346C  0E00               	movlw	0
  2023  00346E  6E25               	movwf	lcd_8bit_initialize@l_data_pins_counter^0,c
  2024  003470                     l10652:
  2025  003470  5025               	movf	lcd_8bit_initialize@l_data_pins_counter^0,w,c
  2026  003472  2421               	addwf	lcd_8bit_initialize@lcd^0,w,c
  2027  003474  6E23               	movwf	??_lcd_8bit_initialize^0,c
  2028  003476  0E00               	movlw	0
  2029  003478  2022               	addwfc	(lcd_8bit_initialize@lcd+1)^0,w,c
  2030  00347A  6E24               	movwf	(??_lcd_8bit_initialize+1)^0,c
  2031  00347C  0E02               	movlw	2
  2032  00347E  2423               	addwf	??_lcd_8bit_initialize^0,w,c
  2033  003480  6E18               	movwf	gpio_pin_initialize@pin_config^0,c
  2034  003482  0E00               	movlw	0
  2035  003484  2024               	addwfc	(??_lcd_8bit_initialize+1)^0,w,c
  2036  003486  6E19               	movwf	(gpio_pin_initialize@pin_config+1)^0,c
  2037  003488  EC0F  F01F         	call	_gpio_pin_initialize	;wreg free
  2038  00348C                     
  2039                           ;ECU_Layer/Chr_LCD/ecu_chr_lcd.c: 235:         }
  2040  00348C  2A25               	incf	lcd_8bit_initialize@l_data_pins_counter^0,f,c
  2041  00348E  0E07               	movlw	7
  2042  003490  6425               	cpfsgt	lcd_8bit_initialize@l_data_pins_counter^0,c
  2043  003492  EF4D  F01A         	goto	u11241
  2044  003496  EF4F  F01A         	goto	u11240
  2045  00349A                     u11241:
  2046  00349A  EF38  F01A         	goto	l10652
  2047  00349E                     u11240:
  2048  00349E                     
  2049                           ;ECU_Layer/Chr_LCD/ecu_chr_lcd.c: 238:         _delay((unsigned long)((20)*(8000000/4000
      +                          .0)));
  2050  00349E  0E34               	movlw	52
  2051  0034A0  6E23               	movwf	??_lcd_8bit_initialize^0,c
  2052  0034A2  0EF2               	movlw	242
  2053  0034A4                     u11907:
  2054  0034A4  2EE8               	decfsz	wreg,f,c
  2055  0034A6  D7FE               	bra	u11907
  2056  0034A8  2E23               	decfsz	??_lcd_8bit_initialize^0,f,c
  2057  0034AA  D7FC               	bra	u11907
  2058  0034AC  C021  F018         	movff	lcd_8bit_initialize@lcd,lcd_8bit_send_command@lcd
  2059  0034B0  C022  F019         	movff	lcd_8bit_initialize@lcd+1,lcd_8bit_send_command@lcd+1
  2060  0034B4  0E38               	movlw	56
  2061  0034B6  6E1A               	movwf	lcd_8bit_send_command@command^0,c
  2062  0034B8  EC09  F01D         	call	_lcd_8bit_send_command	;wreg free
  2063  0034BC                     
  2064                           ;ECU_Layer/Chr_LCD/ecu_chr_lcd.c: 240:         _delay((unsigned long)((5)*(8000000/4000.
      +                          0)));
  2065  0034BC  0E0D               	movlw	13
  2066  0034BE  6E23               	movwf	??_lcd_8bit_initialize^0,c
  2067  0034C0  0EFC               	movlw	252
  2068  0034C2                     u11917:
  2069  0034C2  2EE8               	decfsz	wreg,f,c
  2070  0034C4  D7FE               	bra	u11917
  2071  0034C6  2E23               	decfsz	??_lcd_8bit_initialize^0,f,c
  2072  0034C8  D7FC               	bra	u11917
  2073  0034CA  C021  F018         	movff	lcd_8bit_initialize@lcd,lcd_8bit_send_command@lcd
  2074  0034CE  C022  F019         	movff	lcd_8bit_initialize@lcd+1,lcd_8bit_send_command@lcd+1
  2075  0034D2  0E38               	movlw	56
  2076  0034D4  6E1A               	movwf	lcd_8bit_send_command@command^0,c
  2077  0034D6  EC09  F01D         	call	_lcd_8bit_send_command	;wreg free
  2078  0034DA                     
  2079                           ;ECU_Layer/Chr_LCD/ecu_chr_lcd.c: 242:         _delay((unsigned long)((150)*(8000000/400
      +                          0000.0)));
  2080  0034DA  0E64               	movlw	100
  2081  0034DC                     u11927:
  2082  0034DC  2EE8               	decfsz	wreg,f,c
  2083  0034DE  D7FE               	bra	u11927
  2084  0034E0  C021  F018         	movff	lcd_8bit_initialize@lcd,lcd_8bit_send_command@lcd
  2085  0034E4  C022  F019         	movff	lcd_8bit_initialize@lcd+1,lcd_8bit_send_command@lcd+1
  2086  0034E8  0E38               	movlw	56
  2087  0034EA  6E1A               	movwf	lcd_8bit_send_command@command^0,c
  2088  0034EC  EC09  F01D         	call	_lcd_8bit_send_command	;wreg free
  2089  0034F0  C021  F018         	movff	lcd_8bit_initialize@lcd,lcd_8bit_send_command@lcd
  2090  0034F4  C022  F019         	movff	lcd_8bit_initialize@lcd+1,lcd_8bit_send_command@lcd+1
  2091  0034F8  0E01               	movlw	1
  2092  0034FA  6E1A               	movwf	lcd_8bit_send_command@command^0,c
  2093  0034FC  EC09  F01D         	call	_lcd_8bit_send_command	;wreg free
  2094  003500  C021  F018         	movff	lcd_8bit_initialize@lcd,lcd_8bit_send_command@lcd
  2095  003504  C022  F019         	movff	lcd_8bit_initialize@lcd+1,lcd_8bit_send_command@lcd+1
  2096  003508  0E02               	movlw	2
  2097  00350A  6E1A               	movwf	lcd_8bit_send_command@command^0,c
  2098  00350C  EC09  F01D         	call	_lcd_8bit_send_command	;wreg free
  2099  003510  C021  F018         	movff	lcd_8bit_initialize@lcd,lcd_8bit_send_command@lcd
  2100  003514  C022  F019         	movff	lcd_8bit_initialize@lcd+1,lcd_8bit_send_command@lcd+1
  2101  003518  0E06               	movlw	6
  2102  00351A  6E1A               	movwf	lcd_8bit_send_command@command^0,c
  2103  00351C  EC09  F01D         	call	_lcd_8bit_send_command	;wreg free
  2104  003520  C021  F018         	movff	lcd_8bit_initialize@lcd,lcd_8bit_send_command@lcd
  2105  003524  C022  F019         	movff	lcd_8bit_initialize@lcd+1,lcd_8bit_send_command@lcd+1
  2106  003528  0E0C               	movlw	12
  2107  00352A  6E1A               	movwf	lcd_8bit_send_command@command^0,c
  2108  00352C  EC09  F01D         	call	_lcd_8bit_send_command	;wreg free
  2109  003530  C021  F018         	movff	lcd_8bit_initialize@lcd,lcd_8bit_send_command@lcd
  2110  003534  C022  F019         	movff	lcd_8bit_initialize@lcd+1,lcd_8bit_send_command@lcd+1
  2111  003538  0E38               	movlw	56
  2112  00353A  6E1A               	movwf	lcd_8bit_send_command@command^0,c
  2113  00353C  EC09  F01D         	call	_lcd_8bit_send_command	;wreg free
  2114  003540  C021  F018         	movff	lcd_8bit_initialize@lcd,lcd_8bit_send_command@lcd
  2115  003544  C022  F019         	movff	lcd_8bit_initialize@lcd+1,lcd_8bit_send_command@lcd+1
  2116  003548  0E80               	movlw	128
  2117  00354A  6E1A               	movwf	lcd_8bit_send_command@command^0,c
  2118  00354C  EC09  F01D         	call	_lcd_8bit_send_command	;wreg free
  2119                           
  2120                           ;ECU_Layer/Chr_LCD/ecu_chr_lcd.c: 256:     }
  2121  003550  EFAA  F01A         	goto	l124
  2122  003554                     l10680:
  2123  003554                     l124:
  2124  003554  0012               	return		;funcret
  2125  003556                     __end_of_lcd_8bit_initialize:
  2126                           	callstack 0
  2127                           
  2128 ;; *************** function _lcd_8bit_send_command *****************
  2129 ;; Defined at:
  2130 ;;		line 266 in file "ECU_Layer/Chr_LCD/ecu_chr_lcd.c"
  2131 ;; Parameters:    Size  Location     Type
  2132 ;;  lcd             2   23[COMRAM] PTR const struct .
  2133 ;;		 -> lcd8bit(10), lcd_2(10), 
  2134 ;;  command         1   25[COMRAM] unsigned char 
  2135 ;; Auto vars:     Size  Location     Type
  2136 ;;  l_lcd_pins_c    1   31[COMRAM] unsigned char 
  2137 ;;  Status          1   30[COMRAM] unsigned char 
  2138 ;; Return value:  Size  Location     Type
  2139 ;;                  1    wreg      unsigned char 
  2140 ;; Registers used:
  2141 ;;		wreg, fsr2l, fsr2h, status,2, status,0, prodl, prodh, cstack
  2142 ;; Tracked objects:
  2143 ;;		On entry : 0/0
  2144 ;;		On exit  : 0/0
  2145 ;;		Unchanged: 0/0
  2146 ;; Data sizes:     COMRAM   BANK0   BANK1   BANK2   BANK3   BANK4   BANK5   BANK6   BANK7   BANK8   BANK9  BANK10  BANK1
      +1  BANK12  BANK13  BANK14  BANK15
  2147 ;;      Params:         3       0       0       0       0       0       0       0       0       0       0       0       
      +0       0       0       0       0
  2148 ;;      Locals:         2       0       0       0       0       0       0       0       0       0       0       0       
      +0       0       0       0       0
  2149 ;;      Temps:          4       0       0       0       0       0       0       0       0       0       0       0       
      +0       0       0       0       0
  2150 ;;      Totals:         9       0       0       0       0       0       0       0       0       0       0       0       
      +0       0       0       0       0
  2151 ;;Total ram usage:        9 bytes
  2152 ;; Hardware stack levels used: 1
  2153 ;; Hardware stack levels required when called: 5
  2154 ;; This function calls:
  2155 ;;		_gpio_pin_write_logic
  2156 ;; This function is called by:
  2157 ;;		_lcd_8bit_initialize
  2158 ;;		_lcd_8bit_set_cursor
  2159 ;; This function uses a non-reentrant model
  2160 ;;
  2161                           
  2162                           	psect	text6
  2163  003A12                     __ptext6:
  2164                           	callstack 0
  2165  003A12                     _lcd_8bit_send_command:
  2166                           	callstack 23
  2167  003A12                     
  2168                           ;ECU_Layer/Chr_LCD/ecu_chr_lcd.c: 267:     STD_ReturnType Status = (STD_ReturnType)0x01;
  2169  003A12  0E01               	movlw	1
  2170  003A14  6E1F               	movwf	lcd_8bit_send_command@Status^0,c
  2171  003A16                     
  2172                           ;ECU_Layer/Chr_LCD/ecu_chr_lcd.c: 269:     if(lcd != ((void*)0)){
  2173  003A16  5018               	movf	lcd_8bit_send_command@lcd^0,w,c
  2174  003A18  1019               	iorwf	(lcd_8bit_send_command@lcd+1)^0,w,c
  2175  003A1A  B4D8               	btfsc	status,2,c
  2176  003A1C  EF12  F01D         	goto	u9691
  2177  003A20  EF14  F01D         	goto	u9690
  2178  003A24                     u9691:
  2179  003A24  EF5E  F01D         	goto	l9632
  2180  003A28                     u9690:
  2181  003A28                     
  2182                           ;ECU_Layer/Chr_LCD/ecu_chr_lcd.c: 270:         gpio_pin_write_logic(&(lcd->lcd_rs),LOW);
  2183  003A28  C018  F00E         	movff	lcd_8bit_send_command@lcd,gpio_pin_write_logic@pin_config
  2184  003A2C  C019  F00F         	movff	lcd_8bit_send_command@lcd+1,gpio_pin_write_logic@pin_config+1
  2185  003A30  0E00               	movlw	0
  2186  003A32  6E10               	movwf	gpio_pin_write_logic@logic^0,c
  2187  003A34  EC83  F019         	call	_gpio_pin_write_logic	;wreg free
  2188  003A38                     
  2189                           ;ECU_Layer/Chr_LCD/ecu_chr_lcd.c: 271:         for(l_lcd_pins_counter = 0 ;l_lcd_pins_co
      +                          unter < 8 ; l_lcd_pins_counter++){
  2190  003A38  0E00               	movlw	0
  2191  003A3A  6E20               	movwf	lcd_8bit_send_command@l_lcd_pins_counter^0,c
  2192  003A3C                     l9620:
  2193                           
  2194                           ;ECU_Layer/Chr_LCD/ecu_chr_lcd.c: 272:             gpio_pin_write_logic(&(lcd->lcd_data[
      +                          l_lcd_pins_counter]),(command >> l_lcd_pins_counter)& 0x01);
  2195  003A3C  5020               	movf	lcd_8bit_send_command@l_lcd_pins_counter^0,w,c
  2196  003A3E  2418               	addwf	lcd_8bit_send_command@lcd^0,w,c
  2197  003A40  6E1B               	movwf	??_lcd_8bit_send_command^0,c
  2198  003A42  0E00               	movlw	0
  2199  003A44  2019               	addwfc	(lcd_8bit_send_command@lcd+1)^0,w,c
  2200  003A46  6E1C               	movwf	(??_lcd_8bit_send_command+1)^0,c
  2201  003A48  0E02               	movlw	2
  2202  003A4A  241B               	addwf	??_lcd_8bit_send_command^0,w,c
  2203  003A4C  6E0E               	movwf	gpio_pin_write_logic@pin_config^0,c
  2204  003A4E  0E00               	movlw	0
  2205  003A50  201C               	addwfc	(??_lcd_8bit_send_command+1)^0,w,c
  2206  003A52  6E0F               	movwf	(gpio_pin_write_logic@pin_config+1)^0,c
  2207  003A54  C020  F01D         	movff	lcd_8bit_send_command@l_lcd_pins_counter,??_lcd_8bit_send_command+2
  2208  003A58  C01A  F01E         	movff	lcd_8bit_send_command@command,??_lcd_8bit_send_command+3
  2209  003A5C  2A1D               	incf	(??_lcd_8bit_send_command+2)^0,f,c
  2210  003A5E  EF33  F01D         	goto	u9704
  2211  003A62                     u9705:
  2212  003A62  90D8               	bcf	status,0,c
  2213  003A64  321E               	rrcf	(??_lcd_8bit_send_command+3)^0,f,c
  2214  003A66                     u9704:
  2215  003A66  2E1D               	decfsz	(??_lcd_8bit_send_command+2)^0,f,c
  2216  003A68  EF31  F01D         	goto	u9705
  2217  003A6C  501E               	movf	(??_lcd_8bit_send_command+3)^0,w,c
  2218  003A6E  0B01               	andlw	1
  2219  003A70  6E10               	movwf	gpio_pin_write_logic@logic^0,c
  2220  003A72  EC83  F019         	call	_gpio_pin_write_logic	;wreg free
  2221  003A76                     
  2222                           ;ECU_Layer/Chr_LCD/ecu_chr_lcd.c: 274:         }
  2223  003A76  2A20               	incf	lcd_8bit_send_command@l_lcd_pins_counter^0,f,c
  2224  003A78  0E07               	movlw	7
  2225  003A7A  6420               	cpfsgt	lcd_8bit_send_command@l_lcd_pins_counter^0,c
  2226  003A7C  EF42  F01D         	goto	u9711
  2227  003A80  EF44  F01D         	goto	u9710
  2228  003A84                     u9711:
  2229  003A84  EF1E  F01D         	goto	l9620
  2230  003A88                     u9710:
  2231  003A88                     
  2232                           ;ECU_Layer/Chr_LCD/ecu_chr_lcd.c: 276:         gpio_pin_write_logic(&(lcd->lcd_en),HIGH)
      +                          ;
  2233  003A88  0E01               	movlw	1
  2234  003A8A  2418               	addwf	lcd_8bit_send_command@lcd^0,w,c
  2235  003A8C  6E0E               	movwf	gpio_pin_write_logic@pin_config^0,c
  2236  003A8E  0E00               	movlw	0
  2237  003A90  2019               	addwfc	(lcd_8bit_send_command@lcd+1)^0,w,c
  2238  003A92  6E0F               	movwf	(gpio_pin_write_logic@pin_config+1)^0,c
  2239  003A94  0E01               	movlw	1
  2240  003A96  6E10               	movwf	gpio_pin_write_logic@logic^0,c
  2241  003A98  EC83  F019         	call	_gpio_pin_write_logic	;wreg free
  2242  003A9C                     
  2243                           ;ECU_Layer/Chr_LCD/ecu_chr_lcd.c: 277:         _delay((unsigned long)((5)*(8000000/40000
      +                          00.0)));
  2244  003A9C  0E03               	movlw	3
  2245  003A9E                     u11937:
  2246  003A9E  2EE8               	decfsz	wreg,f,c
  2247  003AA0  D7FE               	bra	u11937
  2248  003AA2  F000               	nop	
  2249  003AA4                     
  2250                           ;ECU_Layer/Chr_LCD/ecu_chr_lcd.c: 278:         gpio_pin_write_logic(&(lcd->lcd_en),LOW);
  2251  003AA4  0E01               	movlw	1
  2252  003AA6  2418               	addwf	lcd_8bit_send_command@lcd^0,w,c
  2253  003AA8  6E0E               	movwf	gpio_pin_write_logic@pin_config^0,c
  2254  003AAA  0E00               	movlw	0
  2255  003AAC  2019               	addwfc	(lcd_8bit_send_command@lcd+1)^0,w,c
  2256  003AAE  6E0F               	movwf	(gpio_pin_write_logic@pin_config+1)^0,c
  2257  003AB0  0E00               	movlw	0
  2258  003AB2  6E10               	movwf	gpio_pin_write_logic@logic^0,c
  2259  003AB4  EC83  F019         	call	_gpio_pin_write_logic	;wreg free
  2260                           
  2261                           ;ECU_Layer/Chr_LCD/ecu_chr_lcd.c: 282:     }
  2262  003AB8  EF60  F01D         	goto	l130
  2263  003ABC                     l9632:
  2264                           
  2265                           ;ECU_Layer/Chr_LCD/ecu_chr_lcd.c: 284:         Status = (STD_ReturnType)0x00;
  2266  003ABC  0E00               	movlw	0
  2267  003ABE  6E1F               	movwf	lcd_8bit_send_command@Status^0,c
  2268  003AC0                     l130:
  2269                           
  2270                           ;ECU_Layer/Chr_LCD/ecu_chr_lcd.c: 289:     return Status;
  2271  003AC0  501F               	movf	lcd_8bit_send_command@Status^0,w,c
  2272  003AC2  0012               	return		;funcret
  2273  003AC4                     __end_of_lcd_8bit_send_command:
  2274                           	callstack 0
  2275                           
  2276 ;; *************** function _gpio_pin_initialize *****************
  2277 ;; Defined at:
  2278 ;;		line 150 in file "MCAL_Layer/GPIO/hal_gpio.c"
  2279 ;; Parameters:    Size  Location     Type
  2280 ;;  pin_config      2   23[COMRAM] PTR const struct .
  2281 ;;		 -> lcd8bit.lcd_data(8), lcd8bit(10), lcd_2.lcd_data(8), lcd_2(10), 
  2282 ;;		 -> lcd_1.lcd_data(4), lcd_1(6), relay_initialize@relay_pin(1), led_initialize@pin_obj(1), 
  2283 ;; Auto vars:     Size  Location     Type
  2284 ;;  Status          1   26[COMRAM] unsigned char 
  2285 ;; Return value:  Size  Location     Type
  2286 ;;                  1    wreg      unsigned char 
  2287 ;; Registers used:
  2288 ;;		wreg, fsr2l, fsr2h, status,2, status,0, prodl, prodh, cstack
  2289 ;; Tracked objects:
  2290 ;;		On entry : 0/0
  2291 ;;		On exit  : 0/0
  2292 ;;		Unchanged: 0/0
  2293 ;; Data sizes:     COMRAM   BANK0   BANK1   BANK2   BANK3   BANK4   BANK5   BANK6   BANK7   BANK8   BANK9  BANK10  BANK1
      +1  BANK12  BANK13  BANK14  BANK15
  2294 ;;      Params:         2       0       0       0       0       0       0       0       0       0       0       0       
      +0       0       0       0       0
  2295 ;;      Locals:         1       0       0       0       0       0       0       0       0       0       0       0       
      +0       0       0       0       0
  2296 ;;      Temps:          1       0       0       0       0       0       0       0       0       0       0       0       
      +0       0       0       0       0
  2297 ;;      Totals:         4       0       0       0       0       0       0       0       0       0       0       0       
      +0       0       0       0       0
  2298 ;;Total ram usage:        4 bytes
  2299 ;; Hardware stack levels used: 1
  2300 ;; Hardware stack levels required when called: 5
  2301 ;; This function calls:
  2302 ;;		_gpio_pin_direction_initialize
  2303 ;;		_gpio_pin_write_logic
  2304 ;; This function is called by:
  2305 ;;		_lcd_8bit_initialize
  2306 ;;		_Seven_Segment_Initialize
  2307 ;;		_lcd_4bit_initialize
  2308 ;;		_keypad_initialize
  2309 ;;		_led_initialize
  2310 ;;		_relay_initialize
  2311 ;; This function uses a non-reentrant model
  2312 ;;
  2313                           
  2314                           	psect	text7
  2315  003E1E                     __ptext7:
  2316                           	callstack 0
  2317  003E1E                     _gpio_pin_initialize:
  2318                           	callstack 24
  2319  003E1E                     
  2320                           ;MCAL_Layer/GPIO/hal_gpio.c: 152:     if(pin_config != ((void*)0) && pin_config->pin < (
      +                          (uint8)8)){
  2321  003E1E  5018               	movf	gpio_pin_initialize@pin_config^0,w,c
  2322  003E20  1019               	iorwf	(gpio_pin_initialize@pin_config+1)^0,w,c
  2323  003E22  B4D8               	btfsc	status,2,c
  2324  003E24  EF16  F01F         	goto	u9761
  2325  003E28  EF18  F01F         	goto	u9760
  2326  003E2C                     u9761:
  2327  003E2C  EF41  F01F         	goto	l9680
  2328  003E30                     u9760:
  2329  003E30  C018  FFD9         	movff	gpio_pin_initialize@pin_config,fsr2l
  2330  003E34  C019  FFDA         	movff	gpio_pin_initialize@pin_config+1,fsr2h
  2331  003E38  30DF               	rrcf	223,w,c
  2332  003E3A  32E8               	rrcf	wreg,f,c
  2333  003E3C  32E8               	rrcf	wreg,f,c
  2334  003E3E  0B07               	andlw	7
  2335  003E40  6E1A               	movwf	??_gpio_pin_initialize^0,c
  2336  003E42  0E08               	movlw	8
  2337  003E44  601A               	cpfslt	??_gpio_pin_initialize^0,c
  2338  003E46  EF27  F01F         	goto	u9771
  2339  003E4A  EF29  F01F         	goto	u9770
  2340  003E4E                     u9771:
  2341  003E4E  EF41  F01F         	goto	l9680
  2342  003E52                     u9770:
  2343  003E52                     
  2344                           ;MCAL_Layer/GPIO/hal_gpio.c: 153:         Status = gpio_pin_direction_initialize(pin_con
      +                          fig);
  2345  003E52  C018  F00E         	movff	gpio_pin_initialize@pin_config,gpio_pin_direction_initialize@pin_config
  2346  003E56  C019  F00F         	movff	gpio_pin_initialize@pin_config+1,gpio_pin_direction_initialize@pin_config+1
  2347  003E5A  ECDF  F018         	call	_gpio_pin_direction_initialize	;wreg free
  2348  003E5E  6E1B               	movwf	gpio_pin_initialize@Status^0,c
  2349                           
  2350                           ;MCAL_Layer/GPIO/hal_gpio.c: 154:         Status = gpio_pin_write_logic(pin_config,pin_c
      +                          onfig->logic);
  2351  003E60  C018  F00E         	movff	gpio_pin_initialize@pin_config,gpio_pin_write_logic@pin_config
  2352  003E64  C019  F00F         	movff	gpio_pin_initialize@pin_config+1,gpio_pin_write_logic@pin_config+1
  2353  003E68  C018  FFD9         	movff	gpio_pin_initialize@pin_config,fsr2l
  2354  003E6C  C019  FFDA         	movff	gpio_pin_initialize@pin_config+1,fsr2h
  2355  003E70  0E00               	movlw	0
  2356  003E72  BEDF               	btfsc	indf2,7,c
  2357  003E74  0E01               	movlw	1
  2358  003E76  6E10               	movwf	gpio_pin_write_logic@logic^0,c
  2359  003E78  EC83  F019         	call	_gpio_pin_write_logic	;wreg free
  2360  003E7C  6E1B               	movwf	gpio_pin_initialize@Status^0,c
  2361                           
  2362                           ;MCAL_Layer/GPIO/hal_gpio.c: 155:     }
  2363  003E7E  EF43  F01F         	goto	l491
  2364  003E82                     l9680:
  2365                           
  2366                           ;MCAL_Layer/GPIO/hal_gpio.c: 157:         Status = (STD_ReturnType)0x00;
  2367  003E82  0E00               	movlw	0
  2368  003E84  6E1B               	movwf	gpio_pin_initialize@Status^0,c
  2369  003E86                     l491:
  2370                           
  2371                           ;MCAL_Layer/GPIO/hal_gpio.c: 159:     return Status;
  2372  003E86  501B               	movf	gpio_pin_initialize@Status^0,w,c
  2373  003E88  0012               	return		;funcret
  2374  003E8A                     __end_of_gpio_pin_initialize:
  2375                           	callstack 0
  2376                           
  2377 ;; *************** function _gpio_pin_write_logic *****************
  2378 ;; Defined at:
  2379 ;;		line 74 in file "MCAL_Layer/GPIO/hal_gpio.c"
  2380 ;; Parameters:    Size  Location     Type
  2381 ;;  pin_config      2   13[COMRAM] PTR const struct .
  2382 ;;		 -> lcd8bit.lcd_data(8), lcd8bit(10), lcd_2.lcd_data(8), lcd_2(10), 
  2383 ;;		 -> lcd_1.lcd_data(4), lcd_1(6), relay_Off@relay_pin(1), relay_On@relay_pin(1), 
  2384 ;;		 -> relay_initialize@relay_pin(1), led_turn_off@pin_obj(1), led_turn_on@pin_obj(1), led_initialize@pin_obj(1), 
  2385 ;;  logic           1   15[COMRAM] enum E2800
  2386 ;; Auto vars:     Size  Location     Type
  2387 ;;  Status          1   22[COMRAM] unsigned char 
  2388 ;; Return value:  Size  Location     Type
  2389 ;;                  1    wreg      unsigned char 
  2390 ;; Registers used:
  2391 ;;		wreg, fsr2l, fsr2h, status,2, status,0, prodl, prodh
  2392 ;; Tracked objects:
  2393 ;;		On entry : 0/0
  2394 ;;		On exit  : 0/0
  2395 ;;		Unchanged: 0/0
  2396 ;; Data sizes:     COMRAM   BANK0   BANK1   BANK2   BANK3   BANK4   BANK5   BANK6   BANK7   BANK8   BANK9  BANK10  BANK1
      +1  BANK12  BANK13  BANK14  BANK15
  2397 ;;      Params:         3       0       0       0       0       0       0       0       0       0       0       0       
      +0       0       0       0       0
  2398 ;;      Locals:         1       0       0       0       0       0       0       0       0       0       0       0       
      +0       0       0       0       0
  2399 ;;      Temps:          6       0       0       0       0       0       0       0       0       0       0       0       
      +0       0       0       0       0
  2400 ;;      Totals:        10       0       0       0       0       0       0       0       0       0       0       0       
      +0       0       0       0       0
  2401 ;;Total ram usage:       10 bytes
  2402 ;; Hardware stack levels used: 1
  2403 ;; Hardware stack levels required when called: 4
  2404 ;; This function calls:
  2405 ;;		Nothing
  2406 ;; This function is called by:
  2407 ;;		_lcd_8bit_send_command
  2408 ;;		_lcd_8bit_send_char_data
  2409 ;;		_gpio_pin_initialize
  2410 ;;		_Seven_Sement_Write_Number
  2411 ;;		_lcd_4bit_send_command
  2412 ;;		_lcd_4bit_send_char_data
  2413 ;;		_dc_motor_forward
  2414 ;;		_dc_motor_reverse
  2415 ;;		_dc_motor_stop
  2416 ;;		_keypad_get_pressed_button
  2417 ;;		_led_turn_on
  2418 ;;		_led_turn_off
  2419 ;;		_relay_On
  2420 ;;		_relay_Off
  2421 ;; This function uses a non-reentrant model
  2422 ;;
  2423                           
  2424                           	psect	text8
  2425  003306                     __ptext8:
  2426                           	callstack 0
  2427  003306                     _gpio_pin_write_logic:
  2428                           	callstack 23
  2429  003306                     
  2430                           ;MCAL_Layer/GPIO/hal_gpio.c: 75:     STD_ReturnType Status = (STD_ReturnType)0x01;
  2431  003306  0E01               	movlw	1
  2432  003308  6E17               	movwf	gpio_pin_write_logic@Status^0,c
  2433  00330A                     
  2434                           ;MCAL_Layer/GPIO/hal_gpio.c: 76:     if(pin_config != ((void*)0) && pin_config->pin < ((
      +                          uint8)8)){
  2435  00330A  500E               	movf	gpio_pin_write_logic@pin_config^0,w,c
  2436  00330C  100F               	iorwf	(gpio_pin_write_logic@pin_config+1)^0,w,c
  2437  00330E  B4D8               	btfsc	status,2,c
  2438  003310  EF8C  F019         	goto	u9551
  2439  003314  EF8E  F019         	goto	u9550
  2440  003318                     u9551:
  2441  003318  EF00  F01A         	goto	l9526
  2442  00331C                     u9550:
  2443  00331C  C00E  FFD9         	movff	gpio_pin_write_logic@pin_config,fsr2l
  2444  003320  C00F  FFDA         	movff	gpio_pin_write_logic@pin_config+1,fsr2h
  2445  003324  30DF               	rrcf	223,w,c
  2446  003326  32E8               	rrcf	wreg,f,c
  2447  003328  32E8               	rrcf	wreg,f,c
  2448  00332A  0B07               	andlw	7
  2449  00332C  6E11               	movwf	??_gpio_pin_write_logic^0,c
  2450  00332E  0E08               	movlw	8
  2451  003330  6011               	cpfslt	??_gpio_pin_write_logic^0,c
  2452  003332  EF9D  F019         	goto	u9561
  2453  003336  EF9F  F019         	goto	u9560
  2454  00333A                     u9561:
  2455  00333A  EF00  F01A         	goto	l9526
  2456  00333E                     u9560:
  2457  00333E  EF04  F01A         	goto	l9530
  2458  003342                     l9522:
  2459                           
  2460                           ;MCAL_Layer/GPIO/hal_gpio.c: 79:                 (*lat_registers[pin_config->port] |= ((
      +                          (uint8)1) << pin_config->pin));
  2461  003342  C00E  FFD9         	movff	gpio_pin_write_logic@pin_config,fsr2l
  2462  003346  C00F  FFDA         	movff	gpio_pin_write_logic@pin_config+1,fsr2h
  2463  00334A  30DF               	rrcf	223,w,c
  2464  00334C  32E8               	rrcf	wreg,f,c
  2465  00334E  32E8               	rrcf	wreg,f,c
  2466  003350  0B07               	andlw	7
  2467  003352  6E11               	movwf	??_gpio_pin_write_logic^0,c
  2468  003354  0E01               	movlw	1
  2469  003356  6E12               	movwf	(??_gpio_pin_write_logic+1)^0,c
  2470  003358  2A11               	incf	??_gpio_pin_write_logic^0,f,c
  2471  00335A  EFB1  F019         	goto	u9574
  2472  00335E                     u9575:
  2473  00335E  90D8               	bcf	status,0,c
  2474  003360  3612               	rlcf	(??_gpio_pin_write_logic+1)^0,f,c
  2475  003362                     u9574:
  2476  003362  2E11               	decfsz	??_gpio_pin_write_logic^0,f,c
  2477  003364  EFAF  F019         	goto	u9575
  2478  003368  C00E  FFD9         	movff	gpio_pin_write_logic@pin_config,fsr2l
  2479  00336C  C00F  FFDA         	movff	gpio_pin_write_logic@pin_config+1,fsr2h
  2480  003370  50DF               	movf	223,w,c
  2481  003372  0B07               	andlw	7
  2482  003374  6E13               	movwf	(??_gpio_pin_write_logic+2)^0,c
  2483  003376  5013               	movf	(??_gpio_pin_write_logic+2)^0,w,c
  2484  003378  0D02               	mullw	2
  2485  00337A  0EC5               	movlw	low _lat_registers
  2486  00337C  24F3               	addwf	243,w,c
  2487  00337E  6ED9               	movwf	fsr2l,c
  2488  003380  0E00               	movlw	high _lat_registers
  2489  003382  20F4               	addwfc	prodh,w,c
  2490  003384  6EDA               	movwf	fsr2h,c
  2491  003386  CFDE F014          	movff	postinc2,??_gpio_pin_write_logic+3
  2492  00338A  CFDD F015          	movff	postdec2,??_gpio_pin_write_logic+4
  2493  00338E  C014  FFD9         	movff	??_gpio_pin_write_logic+3,fsr2l
  2494  003392  C015  FFDA         	movff	??_gpio_pin_write_logic+4,fsr2h
  2495  003396  5012               	movf	(??_gpio_pin_write_logic+1)^0,w,c
  2496  003398  12DF               	iorwf	indf2,f,c
  2497                           
  2498                           ;MCAL_Layer/GPIO/hal_gpio.c: 80:                 break;
  2499  00339A  EF19  F01A         	goto	l476
  2500  00339E                     l9524:
  2501                           
  2502                           ;MCAL_Layer/GPIO/hal_gpio.c: 82:                 (*lat_registers[pin_config->port] &= ~(
      +                          ((uint8)1) << pin_config->pin));
  2503  00339E  C00E  FFD9         	movff	gpio_pin_write_logic@pin_config,fsr2l
  2504  0033A2  C00F  FFDA         	movff	gpio_pin_write_logic@pin_config+1,fsr2h
  2505  0033A6  30DF               	rrcf	223,w,c
  2506  0033A8  32E8               	rrcf	wreg,f,c
  2507  0033AA  32E8               	rrcf	wreg,f,c
  2508  0033AC  0B07               	andlw	7
  2509  0033AE  6E11               	movwf	??_gpio_pin_write_logic^0,c
  2510  0033B0  0E01               	movlw	1
  2511  0033B2  6E12               	movwf	(??_gpio_pin_write_logic+1)^0,c
  2512  0033B4  2A11               	incf	??_gpio_pin_write_logic^0,f,c
  2513  0033B6  EFDF  F019         	goto	u9584
  2514  0033BA                     u9585:
  2515  0033BA  90D8               	bcf	status,0,c
  2516  0033BC  3612               	rlcf	(??_gpio_pin_write_logic+1)^0,f,c
  2517  0033BE                     u9584:
  2518  0033BE  2E11               	decfsz	??_gpio_pin_write_logic^0,f,c
  2519  0033C0  EFDD  F019         	goto	u9585
  2520  0033C4  5012               	movf	(??_gpio_pin_write_logic+1)^0,w,c
  2521  0033C6  0AFF               	xorlw	255
  2522  0033C8  6E13               	movwf	(??_gpio_pin_write_logic+2)^0,c
  2523  0033CA  C00E  FFD9         	movff	gpio_pin_write_logic@pin_config,fsr2l
  2524  0033CE  C00F  FFDA         	movff	gpio_pin_write_logic@pin_config+1,fsr2h
  2525  0033D2  50DF               	movf	223,w,c
  2526  0033D4  0B07               	andlw	7
  2527  0033D6  6E14               	movwf	(??_gpio_pin_write_logic+3)^0,c
  2528  0033D8  5014               	movf	(??_gpio_pin_write_logic+3)^0,w,c
  2529  0033DA  0D02               	mullw	2
  2530  0033DC  0EC5               	movlw	low _lat_registers
  2531  0033DE  24F3               	addwf	243,w,c
  2532  0033E0  6ED9               	movwf	fsr2l,c
  2533  0033E2  0E00               	movlw	high _lat_registers
  2534  0033E4  20F4               	addwfc	prodh,w,c
  2535  0033E6  6EDA               	movwf	fsr2h,c
  2536  0033E8  CFDE F015          	movff	postinc2,??_gpio_pin_write_logic+4
  2537  0033EC  CFDD F016          	movff	postdec2,??_gpio_pin_write_logic+5
  2538  0033F0  C015  FFD9         	movff	??_gpio_pin_write_logic+4,fsr2l
  2539  0033F4  C016  FFDA         	movff	??_gpio_pin_write_logic+5,fsr2h
  2540  0033F8  5013               	movf	(??_gpio_pin_write_logic+2)^0,w,c
  2541  0033FA  16DF               	andwf	indf2,f,c
  2542                           
  2543                           ;MCAL_Layer/GPIO/hal_gpio.c: 83:                 break;
  2544  0033FC  EF19  F01A         	goto	l476
  2545  003400                     l9526:
  2546                           
  2547                           ;MCAL_Layer/GPIO/hal_gpio.c: 85:                 Status = (STD_ReturnType)0x00;
  2548  003400  0E00               	movlw	0
  2549  003402  6E17               	movwf	gpio_pin_write_logic@Status^0,c
  2550                           
  2551                           ;MCAL_Layer/GPIO/hal_gpio.c: 86:                 break;
  2552  003404  EF19  F01A         	goto	l476
  2553  003408                     l9530:
  2554  003408  5010               	movf	gpio_pin_write_logic@logic^0,w,c
  2555  00340A  6E11               	movwf	??_gpio_pin_write_logic^0,c
  2556  00340C  6A12               	clrf	(??_gpio_pin_write_logic+1)^0,c
  2557                           
  2558                           ; Switch on 2 bytes has been partitioned into a top level switch of size 1, and 1 sub-sw
      +                          itches
  2559                           ; Switch size 1, requested type "simple"
  2560                           ; Number of cases is 1, Range of values is 0 to 0
  2561                           ; switch strategies available:
  2562                           ; Name         Instructions Cycles
  2563                           ; simple_byte            4     3 (average)
  2564                           ;	Chosen strategy is simple_byte
  2565  00340E  5012               	movf	(??_gpio_pin_write_logic+1)^0,w,c
  2566  003410  0A00               	xorlw	0	; case 0
  2567  003412  B4D8               	btfsc	status,2,c
  2568  003414  EF0E  F01A         	goto	l11576
  2569  003418  EF00  F01A         	goto	l9526
  2570  00341C                     l11576:
  2571                           
  2572                           ; Switch size 1, requested type "simple"
  2573                           ; Number of cases is 2, Range of values is 0 to 1
  2574                           ; switch strategies available:
  2575                           ; Name         Instructions Cycles
  2576                           ; simple_byte            7     4 (average)
  2577                           ;	Chosen strategy is simple_byte
  2578  00341C  5011               	movf	??_gpio_pin_write_logic^0,w,c
  2579  00341E  0A00               	xorlw	0	; case 0
  2580  003420  B4D8               	btfsc	status,2,c
  2581  003422  EFCF  F019         	goto	l9524
  2582  003426  0A01               	xorlw	1	; case 1
  2583  003428  B4D8               	btfsc	status,2,c
  2584  00342A  EFA1  F019         	goto	l9522
  2585  00342E  EF00  F01A         	goto	l9526
  2586  003432                     l476:
  2587                           
  2588                           ;MCAL_Layer/GPIO/hal_gpio.c: 92:     return Status;
  2589  003432  5017               	movf	gpio_pin_write_logic@Status^0,w,c
  2590  003434  0012               	return		;funcret
  2591  003436                     __end_of_gpio_pin_write_logic:
  2592                           	callstack 0
  2593                           
  2594 ;; *************** function _gpio_pin_direction_initialize *****************
  2595 ;; Defined at:
  2596 ;;		line 23 in file "MCAL_Layer/GPIO/hal_gpio.c"
  2597 ;; Parameters:    Size  Location     Type
  2598 ;;  pin_config      2   13[COMRAM] PTR const struct .
  2599 ;;		 -> ccp1_pin(1), lcd8bit.lcd_data(8), lcd8bit(10), lcd_2.lcd_data(8), 
  2600 ;;		 -> lcd_2(10), lcd_1.lcd_data(4), lcd_1(6), relay_initialize@relay_pin(1), 
  2601 ;;		 -> led_initialize@pin_obj(1), 
  2602 ;; Auto vars:     Size  Location     Type
  2603 ;;  Status          1   21[COMRAM] unsigned char 
  2604 ;; Return value:  Size  Location     Type
  2605 ;;                  1    wreg      unsigned char 
  2606 ;; Registers used:
  2607 ;;		wreg, fsr2l, fsr2h, status,2, status,0, prodl, prodh
  2608 ;; Tracked objects:
  2609 ;;		On entry : 0/0
  2610 ;;		On exit  : 0/0
  2611 ;;		Unchanged: 0/0
  2612 ;; Data sizes:     COMRAM   BANK0   BANK1   BANK2   BANK3   BANK4   BANK5   BANK6   BANK7   BANK8   BANK9  BANK10  BANK1
      +1  BANK12  BANK13  BANK14  BANK15
  2613 ;;      Params:         2       0       0       0       0       0       0       0       0       0       0       0       
      +0       0       0       0       0
  2614 ;;      Locals:         1       0       0       0       0       0       0       0       0       0       0       0       
      +0       0       0       0       0
  2615 ;;      Temps:          6       0       0       0       0       0       0       0       0       0       0       0       
      +0       0       0       0       0
  2616 ;;      Totals:         9       0       0       0       0       0       0       0       0       0       0       0       
      +0       0       0       0       0
  2617 ;;Total ram usage:        9 bytes
  2618 ;; Hardware stack levels used: 1
  2619 ;; Hardware stack levels required when called: 4
  2620 ;; This function calls:
  2621 ;;		Nothing
  2622 ;; This function is called by:
  2623 ;;		_gpio_pin_initialize
  2624 ;;		_main
  2625 ;;		_button_initialize
  2626 ;;		_dc_motor_initialize
  2627 ;;		_keypad_initialize
  2628 ;;		_Interrupt_INTx_Pin_Init
  2629 ;;		_Interrupt_RBx_Pin_Init
  2630 ;; This function uses a non-reentrant model
  2631 ;;
  2632                           
  2633                           	psect	text9
  2634  0031BE                     __ptext9:
  2635                           	callstack 0
  2636  0031BE                     _gpio_pin_direction_initialize:
  2637                           	callstack 24
  2638  0031BE                     
  2639                           ;MCAL_Layer/GPIO/hal_gpio.c: 24:     STD_ReturnType Status = (STD_ReturnType)0x01;
  2640  0031BE  0E01               	movlw	1
  2641  0031C0  6E16               	movwf	gpio_pin_direction_initialize@Status^0,c
  2642  0031C2                     
  2643                           ;MCAL_Layer/GPIO/hal_gpio.c: 25:     if(pin_config != ((void*)0) && pin_config->pin < ((
      +                          uint8)8)){
  2644  0031C2  500E               	movf	gpio_pin_direction_initialize@pin_config^0,w,c
  2645  0031C4  100F               	iorwf	(gpio_pin_direction_initialize@pin_config+1)^0,w,c
  2646  0031C6  B4D8               	btfsc	status,2,c
  2647  0031C8  EFE8  F018         	goto	u9631
  2648  0031CC  EFEA  F018         	goto	u9630
  2649  0031D0                     u9631:
  2650  0031D0  EF5C  F019         	goto	l9594
  2651  0031D4                     u9630:
  2652  0031D4  C00E  FFD9         	movff	gpio_pin_direction_initialize@pin_config,fsr2l
  2653  0031D8  C00F  FFDA         	movff	gpio_pin_direction_initialize@pin_config+1,fsr2h
  2654  0031DC  30DF               	rrcf	223,w,c
  2655  0031DE  32E8               	rrcf	wreg,f,c
  2656  0031E0  32E8               	rrcf	wreg,f,c
  2657  0031E2  0B07               	andlw	7
  2658  0031E4  6E10               	movwf	??_gpio_pin_direction_initialize^0,c
  2659  0031E6  0E08               	movlw	8
  2660  0031E8  6010               	cpfslt	??_gpio_pin_direction_initialize^0,c
  2661  0031EA  EFF9  F018         	goto	u9641
  2662  0031EE  EFFB  F018         	goto	u9640
  2663  0031F2                     u9641:
  2664  0031F2  EF5C  F019         	goto	l9594
  2665  0031F6                     u9640:
  2666  0031F6  EF60  F019         	goto	l9598
  2667  0031FA                     l9590:
  2668                           
  2669                           ;MCAL_Layer/GPIO/hal_gpio.c: 28:               (*tris_registers[pin_config->port] &= ~((
      +                          (uint8)1) << pin_config->pin));
  2670  0031FA  C00E  FFD9         	movff	gpio_pin_direction_initialize@pin_config,fsr2l
  2671  0031FE  C00F  FFDA         	movff	gpio_pin_direction_initialize@pin_config+1,fsr2h
  2672  003202  30DF               	rrcf	223,w,c
  2673  003204  32E8               	rrcf	wreg,f,c
  2674  003206  32E8               	rrcf	wreg,f,c
  2675  003208  0B07               	andlw	7
  2676  00320A  6E10               	movwf	??_gpio_pin_direction_initialize^0,c
  2677  00320C  0E01               	movlw	1
  2678  00320E  6E11               	movwf	(??_gpio_pin_direction_initialize+1)^0,c
  2679  003210  2A10               	incf	??_gpio_pin_direction_initialize^0,f,c
  2680  003212  EF0D  F019         	goto	u9654
  2681  003216                     u9655:
  2682  003216  90D8               	bcf	status,0,c
  2683  003218  3611               	rlcf	(??_gpio_pin_direction_initialize+1)^0,f,c
  2684  00321A                     u9654:
  2685  00321A  2E10               	decfsz	??_gpio_pin_direction_initialize^0,f,c
  2686  00321C  EF0B  F019         	goto	u9655
  2687  003220  5011               	movf	(??_gpio_pin_direction_initialize+1)^0,w,c
  2688  003222  0AFF               	xorlw	255
  2689  003224  6E12               	movwf	(??_gpio_pin_direction_initialize+2)^0,c
  2690  003226  C00E  FFD9         	movff	gpio_pin_direction_initialize@pin_config,fsr2l
  2691  00322A  C00F  FFDA         	movff	gpio_pin_direction_initialize@pin_config+1,fsr2h
  2692  00322E  50DF               	movf	223,w,c
  2693  003230  0B07               	andlw	7
  2694  003232  6E13               	movwf	(??_gpio_pin_direction_initialize+3)^0,c
  2695  003234  5013               	movf	(??_gpio_pin_direction_initialize+3)^0,w,c
  2696  003236  0D02               	mullw	2
  2697  003238  0ECF               	movlw	low _tris_registers
  2698  00323A  24F3               	addwf	243,w,c
  2699  00323C  6ED9               	movwf	fsr2l,c
  2700  00323E  0E00               	movlw	high _tris_registers
  2701  003240  20F4               	addwfc	prodh,w,c
  2702  003242  6EDA               	movwf	fsr2h,c
  2703  003244  CFDE F014          	movff	postinc2,??_gpio_pin_direction_initialize+4
  2704  003248  CFDD F015          	movff	postdec2,??_gpio_pin_direction_initialize+5
  2705  00324C  C014  FFD9         	movff	??_gpio_pin_direction_initialize+4,fsr2l
  2706  003250  C015  FFDA         	movff	??_gpio_pin_direction_initialize+5,fsr2h
  2707  003254  5012               	movf	(??_gpio_pin_direction_initialize+2)^0,w,c
  2708  003256  16DF               	andwf	indf2,f,c
  2709                           
  2710                           ;MCAL_Layer/GPIO/hal_gpio.c: 29:                 break;
  2711  003258  EF81  F019         	goto	l461
  2712  00325C                     l9592:
  2713                           
  2714                           ;MCAL_Layer/GPIO/hal_gpio.c: 31:               (*tris_registers[pin_config->port] |= (((
      +                          uint8)1) << pin_config->pin));
  2715  00325C  C00E  FFD9         	movff	gpio_pin_direction_initialize@pin_config,fsr2l
  2716  003260  C00F  FFDA         	movff	gpio_pin_direction_initialize@pin_config+1,fsr2h
  2717  003264  30DF               	rrcf	223,w,c
  2718  003266  32E8               	rrcf	wreg,f,c
  2719  003268  32E8               	rrcf	wreg,f,c
  2720  00326A  0B07               	andlw	7
  2721  00326C  6E10               	movwf	??_gpio_pin_direction_initialize^0,c
  2722  00326E  0E01               	movlw	1
  2723  003270  6E11               	movwf	(??_gpio_pin_direction_initialize+1)^0,c
  2724  003272  2A10               	incf	??_gpio_pin_direction_initialize^0,f,c
  2725  003274  EF3E  F019         	goto	u9664
  2726  003278                     u9665:
  2727  003278  90D8               	bcf	status,0,c
  2728  00327A  3611               	rlcf	(??_gpio_pin_direction_initialize+1)^0,f,c
  2729  00327C                     u9664:
  2730  00327C  2E10               	decfsz	??_gpio_pin_direction_initialize^0,f,c
  2731  00327E  EF3C  F019         	goto	u9665
  2732  003282  C00E  FFD9         	movff	gpio_pin_direction_initialize@pin_config,fsr2l
  2733  003286  C00F  FFDA         	movff	gpio_pin_direction_initialize@pin_config+1,fsr2h
  2734  00328A  50DF               	movf	223,w,c
  2735  00328C  0B07               	andlw	7
  2736  00328E  6E12               	movwf	(??_gpio_pin_direction_initialize+2)^0,c
  2737  003290  5012               	movf	(??_gpio_pin_direction_initialize+2)^0,w,c
  2738  003292  0D02               	mullw	2
  2739  003294  0ECF               	movlw	low _tris_registers
  2740  003296  24F3               	addwf	243,w,c
  2741  003298  6ED9               	movwf	fsr2l,c
  2742  00329A  0E00               	movlw	high _tris_registers
  2743  00329C  20F4               	addwfc	prodh,w,c
  2744  00329E  6EDA               	movwf	fsr2h,c
  2745  0032A0  CFDE F013          	movff	postinc2,??_gpio_pin_direction_initialize+3
  2746  0032A4  CFDD F014          	movff	postdec2,??_gpio_pin_direction_initialize+4
  2747  0032A8  C013  FFD9         	movff	??_gpio_pin_direction_initialize+3,fsr2l
  2748  0032AC  C014  FFDA         	movff	??_gpio_pin_direction_initialize+4,fsr2h
  2749  0032B0  5011               	movf	(??_gpio_pin_direction_initialize+1)^0,w,c
  2750  0032B2  12DF               	iorwf	indf2,f,c
  2751                           
  2752                           ;MCAL_Layer/GPIO/hal_gpio.c: 32:                 break;
  2753  0032B4  EF81  F019         	goto	l461
  2754  0032B8                     l9594:
  2755                           
  2756                           ;MCAL_Layer/GPIO/hal_gpio.c: 34:                 Status = (STD_ReturnType)0x00;
  2757  0032B8  0E00               	movlw	0
  2758  0032BA  6E16               	movwf	gpio_pin_direction_initialize@Status^0,c
  2759                           
  2760                           ;MCAL_Layer/GPIO/hal_gpio.c: 35:                 break;
  2761  0032BC  EF81  F019         	goto	l461
  2762  0032C0                     l9598:
  2763  0032C0  C00E  FFD9         	movff	gpio_pin_direction_initialize@pin_config,fsr2l
  2764  0032C4  C00F  FFDA         	movff	gpio_pin_direction_initialize@pin_config+1,fsr2h
  2765  0032C8  BCDF               	btfsc	indf2,6,c
  2766  0032CA  EF69  F019         	goto	u9671
  2767  0032CE  EF6C  F019         	goto	u9670
  2768  0032D2                     u9671:
  2769  0032D2  0E01               	movlw	1
  2770  0032D4  EF6D  F019         	goto	u9680
  2771  0032D8                     u9670:
  2772  0032D8  0E00               	movlw	0
  2773  0032DA                     u9680:
  2774  0032DA  6E10               	movwf	??_gpio_pin_direction_initialize^0,c
  2775  0032DC  6A11               	clrf	(??_gpio_pin_direction_initialize+1)^0,c
  2776                           
  2777                           ; Switch on 2 bytes has been partitioned into a top level switch of size 1, and 1 sub-sw
      +                          itches
  2778                           ; Switch size 1, requested type "simple"
  2779                           ; Number of cases is 1, Range of values is 0 to 0
  2780                           ; switch strategies available:
  2781                           ; Name         Instructions Cycles
  2782                           ; simple_byte            4     3 (average)
  2783                           ;	Chosen strategy is simple_byte
  2784  0032DE  5011               	movf	(??_gpio_pin_direction_initialize+1)^0,w,c
  2785  0032E0  0A00               	xorlw	0	; case 0
  2786  0032E2  B4D8               	btfsc	status,2,c
  2787  0032E4  EF76  F019         	goto	l11578
  2788  0032E8  EF5C  F019         	goto	l9594
  2789  0032EC                     l11578:
  2790                           
  2791                           ; Switch size 1, requested type "simple"
  2792                           ; Number of cases is 2, Range of values is 0 to 1
  2793                           ; switch strategies available:
  2794                           ; Name         Instructions Cycles
  2795                           ; simple_byte            7     4 (average)
  2796                           ;	Chosen strategy is simple_byte
  2797  0032EC  5010               	movf	??_gpio_pin_direction_initialize^0,w,c
  2798  0032EE  0A00               	xorlw	0	; case 0
  2799  0032F0  B4D8               	btfsc	status,2,c
  2800  0032F2  EFFD  F018         	goto	l9590
  2801  0032F6  0A01               	xorlw	1	; case 1
  2802  0032F8  B4D8               	btfsc	status,2,c
  2803  0032FA  EF2E  F019         	goto	l9592
  2804  0032FE  EF5C  F019         	goto	l9594
  2805  003302                     l461:
  2806                           
  2807                           ;MCAL_Layer/GPIO/hal_gpio.c: 41:     return Status;
  2808  003302  5016               	movf	gpio_pin_direction_initialize@Status^0,w,c
  2809  003304  0012               	return		;funcret
  2810  003306                     __end_of_gpio_pin_direction_initialize:
  2811                           	callstack 0
  2812                           
  2813 ;; *************** function _hal_timer1_initialize *****************
  2814 ;; Defined at:
  2815 ;;		line 22 in file "MCAL_Layer/Timer1/hal_timer1.c"
  2816 ;; Parameters:    Size  Location     Type
  2817 ;;  timer1          2   17[COMRAM] PTR const struct .
  2818 ;;		 -> tmr1(7), 
  2819 ;; Auto vars:     Size  Location     Type
  2820 ;;  status          1    0        unsigned char 
  2821 ;; Return value:  Size  Location     Type
  2822 ;;                  1    wreg      unsigned char 
  2823 ;; Registers used:
  2824 ;;		wreg, fsr2l, fsr2h, status,2, status,0, cstack
  2825 ;; Tracked objects:
  2826 ;;		On entry : 0/0
  2827 ;;		On exit  : 0/0
  2828 ;;		Unchanged: 0/0
  2829 ;; Data sizes:     COMRAM   BANK0   BANK1   BANK2   BANK3   BANK4   BANK5   BANK6   BANK7   BANK8   BANK9  BANK10  BANK1
      +1  BANK12  BANK13  BANK14  BANK15
  2830 ;;      Params:         2       0       0       0       0       0       0       0       0       0       0       0       
      +0       0       0       0       0
  2831 ;;      Locals:         0       0       0       0       0       0       0       0       0       0       0       0       
      +0       0       0       0       0
  2832 ;;      Temps:          0       0       0       0       0       0       0       0       0       0       0       0       
      +0       0       0       0       0
  2833 ;;      Totals:         2       0       0       0       0       0       0       0       0       0       0       0       
      +0       0       0       0       0
  2834 ;;Total ram usage:        2 bytes
  2835 ;; Hardware stack levels used: 1
  2836 ;; Hardware stack levels required when called: 5
  2837 ;; This function calls:
  2838 ;;		_hal_timer1_config_timer1_oscillator
  2839 ;;		_hal_timer1_disable
  2840 ;;		_hal_timer1_enable
  2841 ;;		_hal_timer1_interrupt_enable
  2842 ;;		_hal_timer1_interrupt_handler_init
  2843 ;;		_hal_timer1_rw_8bit_16bit_mode
  2844 ;;		_hal_timer1_select_clock_source
  2845 ;;		_hal_timer1_set_prescaler
  2846 ;;		_hal_timer1_synchronize_external_clock
  2847 ;;		_hal_timer1_write_value
  2848 ;; This function is called by:
  2849 ;;		_main
  2850 ;; This function uses a non-reentrant model
  2851 ;;
  2852                           
  2853                           	psect	text10
  2854  0038A8                     __ptext10:
  2855                           	callstack 0
  2856  0038A8                     _hal_timer1_initialize:
  2857                           	callstack 25
  2858  0038A8                     
  2859                           ;MCAL_Layer/Timer1/hal_timer1.c: 24:     if(timer1 != ((void*)0)){
  2860  0038A8  5012               	movf	hal_timer1_initialize@timer1^0,w,c
  2861  0038AA  1013               	iorwf	(hal_timer1_initialize@timer1+1)^0,w,c
  2862  0038AC  B4D8               	btfsc	status,2,c
  2863  0038AE  EF5B  F01C         	goto	u11281
  2864  0038B2  EF5D  F01C         	goto	u11280
  2865  0038B6                     u11281:
  2866  0038B6  EFAF  F01C         	goto	l10736
  2867  0038BA                     u11280:
  2868  0038BA                     
  2869                           ;MCAL_Layer/Timer1/hal_timer1.c: 25:         hal_timer1_disable(timer1);
  2870  0038BA  C012  F00E         	movff	hal_timer1_initialize@timer1,hal_timer1_disable@timer1
  2871  0038BE  C013  F00F         	movff	hal_timer1_initialize@timer1+1,hal_timer1_disable@timer1+1
  2872  0038C2  ECA7  F021         	call	_hal_timer1_disable	;wreg free
  2873  0038C6                     
  2874                           ;MCAL_Layer/Timer1/hal_timer1.c: 26:         hal_timer1_select_clock_source(timer1);
  2875  0038C6  C012  F00E         	movff	hal_timer1_initialize@timer1,hal_timer1_select_clock_source@timer1
  2876  0038CA  C013  F00F         	movff	hal_timer1_initialize@timer1+1,hal_timer1_select_clock_source@timer1+1
  2877  0038CE  EC8C  F01E         	call	_hal_timer1_select_clock_source	;wreg free
  2878  0038D2                     
  2879                           ;MCAL_Layer/Timer1/hal_timer1.c: 27:         hal_timer1_synchronize_external_clock(timer
      +                          1);
  2880  0038D2  C012  F00E         	movff	hal_timer1_initialize@timer1,hal_timer1_synchronize_external_clock@timer1
  2881  0038D6  C013  F00F         	movff	hal_timer1_initialize@timer1+1,hal_timer1_synchronize_external_clock@timer1+1
  2882  0038DA  EC29  F020         	call	_hal_timer1_synchronize_external_clock	;wreg free
  2883  0038DE                     
  2884                           ;MCAL_Layer/Timer1/hal_timer1.c: 28:         hal_timer1_rw_8bit_16bit_mode(timer1);
  2885  0038DE  C012  F00E         	movff	hal_timer1_initialize@timer1,hal_timer1_rw_8bit_16bit_mode@timer1
  2886  0038E2  C013  F00F         	movff	hal_timer1_initialize@timer1+1,hal_timer1_rw_8bit_16bit_mode@timer1+1
  2887  0038E6  EC53  F020         	call	_hal_timer1_rw_8bit_16bit_mode	;wreg free
  2888  0038EA                     
  2889                           ;MCAL_Layer/Timer1/hal_timer1.c: 29:         hal_timer1_set_prescaler(timer1);
  2890  0038EA  C012  F00E         	movff	hal_timer1_initialize@timer1,hal_timer1_set_prescaler@timer1
  2891  0038EE  C013  F00F         	movff	hal_timer1_initialize@timer1+1,hal_timer1_set_prescaler@timer1+1
  2892  0038F2  ECFD  F01D         	call	_hal_timer1_set_prescaler	;wreg free
  2893  0038F6                     
  2894                           ;MCAL_Layer/Timer1/hal_timer1.c: 30:         hal_timer1_config_timer1_oscillator(timer1)
      +                          ;
  2895  0038F6  C012  F00E         	movff	hal_timer1_initialize@timer1,hal_timer1_config_timer1_oscillator@timer1
  2896  0038FA  C013  F00F         	movff	hal_timer1_initialize@timer1+1,hal_timer1_config_timer1_oscillator@timer1+1
  2897  0038FE  EC7D  F020         	call	_hal_timer1_config_timer1_oscillator	;wreg free
  2898  003902                     
  2899                           ;MCAL_Layer/Timer1/hal_timer1.c: 31:         hal_timer1_write_value(timer1,timer1->timer
      +                          1_preload_value);
  2900  003902  C012  F00E         	movff	hal_timer1_initialize@timer1,hal_timer1_write_value@timer1
  2901  003906  C013  F00F         	movff	hal_timer1_initialize@timer1+1,hal_timer1_write_value@timer1+1
  2902  00390A  EE20 F003          	lfsr	2,3
  2903  00390E  5012               	movf	hal_timer1_initialize@timer1^0,w,c
  2904  003910  26D9               	addwf	fsr2l,f,c
  2905  003912  5013               	movf	(hal_timer1_initialize@timer1+1)^0,w,c
  2906  003914  22DA               	addwfc	fsr2h,f,c
  2907  003916  CFDE F010          	movff	postinc2,hal_timer1_write_value@value
  2908  00391A  CFDD F011          	movff	postdec2,hal_timer1_write_value@value+1
  2909  00391E  EC77  F01F         	call	_hal_timer1_write_value	;wreg free
  2910  003922                     
  2911                           ;MCAL_Layer/Timer1/hal_timer1.c: 32:         timer1_isr_preload_value = timer1->timer1_p
      +                          reload_value;
  2912  003922  EE20 F003          	lfsr	2,3
  2913  003926  5012               	movf	hal_timer1_initialize@timer1^0,w,c
  2914  003928  26D9               	addwf	fsr2l,f,c
  2915  00392A  5013               	movf	(hal_timer1_initialize@timer1+1)^0,w,c
  2916  00392C  22DA               	addwfc	fsr2h,f,c
  2917  00392E  CFDE F069          	movff	postinc2,_timer1_isr_preload_value	;volatile
  2918  003932  CFDD F06A          	movff	postdec2,_timer1_isr_preload_value+1	;volatile
  2919  003936                     
  2920                           ;MCAL_Layer/Timer1/hal_timer1.c: 34:         hal_timer1_interrupt_handler_init(timer1);
  2921  003936  C012  F00E         	movff	hal_timer1_initialize@timer1,hal_timer1_interrupt_handler_init@timer1
  2922  00393A  C013  F00F         	movff	hal_timer1_initialize@timer1+1,hal_timer1_interrupt_handler_init@timer1+1
  2923  00393E  ECD3  F01F         	call	_hal_timer1_interrupt_handler_init	;wreg free
  2924  003942                     
  2925                           ;MCAL_Layer/Timer1/hal_timer1.c: 35:         hal_timer1_interrupt_enable(timer1);
  2926  003942  C012  F00E         	movff	hal_timer1_initialize@timer1,hal_timer1_interrupt_enable@timer1
  2927  003946  C013  F00F         	movff	hal_timer1_initialize@timer1+1,hal_timer1_interrupt_enable@timer1+1
  2928  00394A  EC8B  F021         	call	_hal_timer1_interrupt_enable	;wreg free
  2929  00394E                     
  2930                           ;MCAL_Layer/Timer1/hal_timer1.c: 39:         hal_timer1_enable(timer1);
  2931  00394E  C012  F00E         	movff	hal_timer1_initialize@timer1,hal_timer1_enable@timer1
  2932  003952  C013  F00F         	movff	hal_timer1_initialize@timer1+1,hal_timer1_enable@timer1+1
  2933  003956  EC9A  F021         	call	_hal_timer1_enable	;wreg free
  2934                           
  2935                           ;MCAL_Layer/Timer1/hal_timer1.c: 40:     }
  2936  00395A  EFAF  F01C         	goto	l1081
  2937  00395E                     l10736:
  2938  00395E                     l1081:
  2939  00395E  0012               	return		;funcret
  2940  003960                     __end_of_hal_timer1_initialize:
  2941                           	callstack 0
  2942                           
  2943 ;; *************** function _hal_timer1_write_value *****************
  2944 ;; Defined at:
  2945 ;;		line 92 in file "MCAL_Layer/Timer1/hal_timer1.c"
  2946 ;; Parameters:    Size  Location     Type
  2947 ;;  timer1          2   13[COMRAM] PTR const struct .
  2948 ;;		 -> tmr1(7), 
  2949 ;;  value           2   15[COMRAM] unsigned short 
  2950 ;; Auto vars:     Size  Location     Type
  2951 ;;  status          1    0        unsigned char 
  2952 ;; Return value:  Size  Location     Type
  2953 ;;                  1    wreg      unsigned char 
  2954 ;; Registers used:
  2955 ;;		wreg, fsr2l, fsr2h, status,2, status,0
  2956 ;; Tracked objects:
  2957 ;;		On entry : 0/0
  2958 ;;		On exit  : 0/0
  2959 ;;		Unchanged: 0/0
  2960 ;; Data sizes:     COMRAM   BANK0   BANK1   BANK2   BANK3   BANK4   BANK5   BANK6   BANK7   BANK8   BANK9  BANK10  BANK1
      +1  BANK12  BANK13  BANK14  BANK15
  2961 ;;      Params:         4       0       0       0       0       0       0       0       0       0       0       0       
      +0       0       0       0       0
  2962 ;;      Locals:         0       0       0       0       0       0       0       0       0       0       0       0       
      +0       0       0       0       0
  2963 ;;      Temps:          0       0       0       0       0       0       0       0       0       0       0       0       
      +0       0       0       0       0
  2964 ;;      Totals:         4       0       0       0       0       0       0       0       0       0       0       0       
      +0       0       0       0       0
  2965 ;;Total ram usage:        4 bytes
  2966 ;; Hardware stack levels used: 1
  2967 ;; Hardware stack levels required when called: 4
  2968 ;; This function calls:
  2969 ;;		Nothing
  2970 ;; This function is called by:
  2971 ;;		_hal_timer1_initialize
  2972 ;; This function uses a non-reentrant model
  2973 ;;
  2974                           
  2975                           	psect	text11
  2976  003EEE                     __ptext11:
  2977                           	callstack 0
  2978  003EEE                     _hal_timer1_write_value:
  2979                           	callstack 25
  2980  003EEE                     
  2981                           ;MCAL_Layer/Timer1/hal_timer1.c: 94:     if(timer1 != ((void*)0)){
  2982  003EEE  500E               	movf	hal_timer1_write_value@timer1^0,w,c
  2983  003EF0  100F               	iorwf	(hal_timer1_write_value@timer1+1)^0,w,c
  2984  003EF2  B4D8               	btfsc	status,2,c
  2985  003EF4  EF7E  F01F         	goto	u10101
  2986  003EF8  EF80  F01F         	goto	u10100
  2987  003EFC                     u10101:
  2988  003EFC  EFA6  F01F         	goto	l9948
  2989  003F00                     u10100:
  2990  003F00                     
  2991                           ;MCAL_Layer/Timer1/hal_timer1.c: 95:         if(timer1->timer1_rw_mode == 1){
  2992  003F00  EE20 F006          	lfsr	2,6
  2993  003F04  500E               	movf	hal_timer1_write_value@timer1^0,w,c
  2994  003F06  26D9               	addwf	fsr2l,f,c
  2995  003F08  500F               	movf	(hal_timer1_write_value@timer1+1)^0,w,c
  2996  003F0A  22DA               	addwfc	fsr2h,f,c
  2997  003F0C  AADF               	btfss	indf2,5,c
  2998  003F0E  EF8B  F01F         	goto	u10111
  2999  003F12  EF8D  F01F         	goto	u10110
  3000  003F16                     u10111:
  3001  003F16  EF93  F01F         	goto	l9942
  3002  003F1A                     u10110:
  3003  003F1A                     
  3004                           ;MCAL_Layer/Timer1/hal_timer1.c: 96:             TMR1 = value;
  3005  003F1A  C010  FFCE         	movff	hal_timer1_write_value@value,4046	;volatile
  3006  003F1E  C011  FFCF         	movff	hal_timer1_write_value@value+1,4047	;volatile
  3007                           
  3008                           ;MCAL_Layer/Timer1/hal_timer1.c: 97:         }
  3009  003F22  EFA6  F01F         	goto	l1104
  3010  003F26                     l9942:
  3011  003F26  EE20 F006          	lfsr	2,6
  3012  003F2A  500E               	movf	hal_timer1_write_value@timer1^0,w,c
  3013  003F2C  26D9               	addwf	fsr2l,f,c
  3014  003F2E  500F               	movf	(hal_timer1_write_value@timer1+1)^0,w,c
  3015  003F30  22DA               	addwfc	fsr2h,f,c
  3016  003F32  BADF               	btfsc	indf2,5,c
  3017  003F34  EF9E  F01F         	goto	u10121
  3018  003F38  EFA0  F01F         	goto	u10120
  3019  003F3C                     u10121:
  3020  003F3C  EFA6  F01F         	goto	l9948
  3021  003F40                     u10120:
  3022  003F40                     
  3023                           ;MCAL_Layer/Timer1/hal_timer1.c: 99:             TMR1H = (value) >> 8;
  3024  003F40  5011               	movf	(hal_timer1_write_value@value+1)^0,w,c
  3025  003F42  6ECF               	movwf	207,c	;volatile
  3026  003F44                     
  3027                           ;MCAL_Layer/Timer1/hal_timer1.c: 100:             TMR1L = (uint8)(value);
  3028  003F44  C010  FFCE         	movff	hal_timer1_write_value@value,4046	;volatile
  3029                           
  3030                           ;MCAL_Layer/Timer1/hal_timer1.c: 101:         }
  3031  003F48  EFA6  F01F         	goto	l1104
  3032  003F4C                     l9948:
  3033  003F4C                     l1104:
  3034  003F4C  0012               	return		;funcret
  3035  003F4E                     __end_of_hal_timer1_write_value:
  3036                           	callstack 0
  3037                           
  3038 ;; *************** function _hal_timer1_synchronize_external_clock *****************
  3039 ;; Defined at:
  3040 ;;		line 139 in file "MCAL_Layer/Timer1/hal_timer1.c"
  3041 ;; Parameters:    Size  Location     Type
  3042 ;;  timer1          2   13[COMRAM] PTR const struct .
  3043 ;;		 -> tmr1(7), 
  3044 ;; Auto vars:     Size  Location     Type
  3045 ;;  status          1    0        unsigned char 
  3046 ;; Return value:  Size  Location     Type
  3047 ;;                  1    wreg      unsigned char 
  3048 ;; Registers used:
  3049 ;;		wreg, fsr2l, fsr2h, status,2, status,0
  3050 ;; Tracked objects:
  3051 ;;		On entry : 0/0
  3052 ;;		On exit  : 0/0
  3053 ;;		Unchanged: 0/0
  3054 ;; Data sizes:     COMRAM   BANK0   BANK1   BANK2   BANK3   BANK4   BANK5   BANK6   BANK7   BANK8   BANK9  BANK10  BANK1
      +1  BANK12  BANK13  BANK14  BANK15
  3055 ;;      Params:         2       0       0       0       0       0       0       0       0       0       0       0       
      +0       0       0       0       0
  3056 ;;      Locals:         0       0       0       0       0       0       0       0       0       0       0       0       
      +0       0       0       0       0
  3057 ;;      Temps:          0       0       0       0       0       0       0       0       0       0       0       0       
      +0       0       0       0       0
  3058 ;;      Totals:         2       0       0       0       0       0       0       0       0       0       0       0       
      +0       0       0       0       0
  3059 ;;Total ram usage:        2 bytes
  3060 ;; Hardware stack levels used: 1
  3061 ;; Hardware stack levels required when called: 4
  3062 ;; This function calls:
  3063 ;;		Nothing
  3064 ;; This function is called by:
  3065 ;;		_hal_timer1_initialize
  3066 ;; This function uses a non-reentrant model
  3067 ;;
  3068                           
  3069                           	psect	text12
  3070  004052                     __ptext12:
  3071                           	callstack 0
  3072  004052                     _hal_timer1_synchronize_external_clock:
  3073                           	callstack 25
  3074  004052                     
  3075                           ;MCAL_Layer/Timer1/hal_timer1.c: 141:     if(timer1 != ((void*)0)){
  3076  004052  500E               	movf	hal_timer1_synchronize_external_clock@timer1^0,w,c
  3077  004054  100F               	iorwf	(hal_timer1_synchronize_external_clock@timer1+1)^0,w,c
  3078  004056  B4D8               	btfsc	status,2,c
  3079  004058  EF30  F020         	goto	u10001
  3080  00405C  EF32  F020         	goto	u10000
  3081  004060                     u10001:
  3082  004060  EF52  F020         	goto	l9864
  3083  004064                     u10000:
  3084  004064                     
  3085                           ;MCAL_Layer/Timer1/hal_timer1.c: 142:         if(timer1->timer1_sync_mode == 0){
  3086  004064  EE20 F006          	lfsr	2,6
  3087  004068  500E               	movf	hal_timer1_synchronize_external_clock@timer1^0,w,c
  3088  00406A  26D9               	addwf	fsr2l,f,c
  3089  00406C  500F               	movf	(hal_timer1_synchronize_external_clock@timer1+1)^0,w,c
  3090  00406E  22DA               	addwfc	fsr2h,f,c
  3091  004070  B2DF               	btfsc	indf2,1,c
  3092  004072  EF3D  F020         	goto	u10011
  3093  004076  EF3F  F020         	goto	u10010
  3094  00407A                     u10011:
  3095  00407A  EF42  F020         	goto	l9860
  3096  00407E                     u10010:
  3097  00407E                     
  3098                           ;MCAL_Layer/Timer1/hal_timer1.c: 143:             (T1CONbits.nT1SYNC = 0);
  3099  00407E  94CD               	bcf	205,2,c	;volatile
  3100                           
  3101                           ;MCAL_Layer/Timer1/hal_timer1.c: 144:         }
  3102  004080  EF52  F020         	goto	l1122
  3103  004084                     l9860:
  3104  004084  EE20 F006          	lfsr	2,6
  3105  004088  500E               	movf	hal_timer1_synchronize_external_clock@timer1^0,w,c
  3106  00408A  26D9               	addwf	fsr2l,f,c
  3107  00408C  500F               	movf	(hal_timer1_synchronize_external_clock@timer1+1)^0,w,c
  3108  00408E  22DA               	addwfc	fsr2h,f,c
  3109  004090  A2DF               	btfss	indf2,1,c
  3110  004092  EF4D  F020         	goto	u10021
  3111  004096  EF4F  F020         	goto	u10020
  3112  00409A                     u10021:
  3113  00409A  EF52  F020         	goto	l9864
  3114  00409E                     u10020:
  3115  00409E                     
  3116                           ;MCAL_Layer/Timer1/hal_timer1.c: 146:             (T1CONbits.nT1SYNC = 1);
  3117  00409E  84CD               	bsf	205,2,c	;volatile
  3118                           
  3119                           ;MCAL_Layer/Timer1/hal_timer1.c: 147:         }
  3120  0040A0  EF52  F020         	goto	l1122
  3121  0040A4                     l9864:
  3122  0040A4                     l1122:
  3123  0040A4  0012               	return		;funcret
  3124  0040A6                     __end_of_hal_timer1_synchronize_external_clock:
  3125                           	callstack 0
  3126                           
  3127 ;; *************** function _hal_timer1_set_prescaler *****************
  3128 ;; Defined at:
  3129 ;;		line 185 in file "MCAL_Layer/Timer1/hal_timer1.c"
  3130 ;; Parameters:    Size  Location     Type
  3131 ;;  timer1          2   13[COMRAM] PTR const struct .
  3132 ;;		 -> tmr1(7), 
  3133 ;; Auto vars:     Size  Location     Type
  3134 ;;  status          1    0        unsigned char 
  3135 ;; Return value:  Size  Location     Type
  3136 ;;                  1    wreg      unsigned char 
  3137 ;; Registers used:
  3138 ;;		wreg, fsr2l, fsr2h, status,2, status,0
  3139 ;; Tracked objects:
  3140 ;;		On entry : 0/0
  3141 ;;		On exit  : 0/0
  3142 ;;		Unchanged: 0/0
  3143 ;; Data sizes:     COMRAM   BANK0   BANK1   BANK2   BANK3   BANK4   BANK5   BANK6   BANK7   BANK8   BANK9  BANK10  BANK1
      +1  BANK12  BANK13  BANK14  BANK15
  3144 ;;      Params:         2       0       0       0       0       0       0       0       0       0       0       0       
      +0       0       0       0       0
  3145 ;;      Locals:         0       0       0       0       0       0       0       0       0       0       0       0       
      +0       0       0       0       0
  3146 ;;      Temps:          2       0       0       0       0       0       0       0       0       0       0       0       
      +0       0       0       0       0
  3147 ;;      Totals:         4       0       0       0       0       0       0       0       0       0       0       0       
      +0       0       0       0       0
  3148 ;;Total ram usage:        4 bytes
  3149 ;; Hardware stack levels used: 1
  3150 ;; Hardware stack levels required when called: 4
  3151 ;; This function calls:
  3152 ;;		Nothing
  3153 ;; This function is called by:
  3154 ;;		_hal_timer1_initialize
  3155 ;; This function uses a non-reentrant model
  3156 ;;
  3157                           
  3158                           	psect	text13
  3159  003BFA                     __ptext13:
  3160                           	callstack 0
  3161  003BFA                     _hal_timer1_set_prescaler:
  3162                           	callstack 25
  3163  003BFA                     
  3164                           ;MCAL_Layer/Timer1/hal_timer1.c: 187:     if(timer1 != ((void*)0)){
  3165  003BFA  500E               	movf	hal_timer1_set_prescaler@timer1^0,w,c
  3166  003BFC  100F               	iorwf	(hal_timer1_set_prescaler@timer1+1)^0,w,c
  3167  003BFE  B4D8               	btfsc	status,2,c
  3168  003C00  EF04  F01E         	goto	u10061
  3169  003C04  EF06  F01E         	goto	u10060
  3170  003C08                     u10061:
  3171  003C08  EF1C  F01E         	goto	l9902
  3172  003C0C                     u10060:
  3173  003C0C  EF1E  F01E         	goto	l9906
  3174  003C10                     l9894:
  3175                           
  3176                           ;MCAL_Layer/Timer1/hal_timer1.c: 190:                 (T1CONbits.T1CKPS = 0);
  3177  003C10  0ECF               	movlw	-49
  3178  003C12  16CD               	andwf	205,f,c	;volatile
  3179                           
  3180                           ;MCAL_Layer/Timer1/hal_timer1.c: 191:                 break;
  3181  003C14  EF44  F01E         	goto	l1143
  3182  003C18                     l9896:
  3183                           
  3184                           ;MCAL_Layer/Timer1/hal_timer1.c: 193:                 (T1CONbits.T1CKPS = 1);
  3185  003C18  50CD               	movf	205,w,c	;volatile
  3186  003C1A  0BCF               	andlw	-49
  3187  003C1C  0910               	iorlw	16
  3188  003C1E  6ECD               	movwf	205,c	;volatile
  3189                           
  3190                           ;MCAL_Layer/Timer1/hal_timer1.c: 194:                 break;
  3191  003C20  EF44  F01E         	goto	l1143
  3192  003C24                     l9898:
  3193                           
  3194                           ;MCAL_Layer/Timer1/hal_timer1.c: 196:                 (T1CONbits.T1CKPS = 2);
  3195  003C24  50CD               	movf	205,w,c	;volatile
  3196  003C26  0BCF               	andlw	-49
  3197  003C28  0920               	iorlw	32
  3198  003C2A  6ECD               	movwf	205,c	;volatile
  3199                           
  3200                           ;MCAL_Layer/Timer1/hal_timer1.c: 197:                 break;
  3201  003C2C  EF44  F01E         	goto	l1143
  3202  003C30                     l9900:
  3203                           
  3204                           ;MCAL_Layer/Timer1/hal_timer1.c: 199:                 (T1CONbits.T1CKPS = 3);
  3205  003C30  0E30               	movlw	48
  3206  003C32  12CD               	iorwf	205,f,c	;volatile
  3207                           
  3208                           ;MCAL_Layer/Timer1/hal_timer1.c: 200:                 break;
  3209  003C34  EF44  F01E         	goto	l1143
  3210  003C38                     l9902:
  3211                           
  3212                           ;MCAL_Layer/Timer1/hal_timer1.c: 203:                 break;
  3213  003C38  EF44  F01E         	goto	l1143
  3214  003C3C                     l9906:
  3215  003C3C  EE20 F006          	lfsr	2,6
  3216  003C40  500E               	movf	hal_timer1_set_prescaler@timer1^0,w,c
  3217  003C42  26D9               	addwf	fsr2l,f,c
  3218  003C44  500F               	movf	(hal_timer1_set_prescaler@timer1+1)^0,w,c
  3219  003C46  22DA               	addwfc	fsr2h,f,c
  3220  003C48  30DF               	rrcf	223,w,c
  3221  003C4A  32E8               	rrcf	wreg,f,c
  3222  003C4C  32E8               	rrcf	wreg,f,c
  3223  003C4E  0B03               	andlw	3
  3224  003C50  6E10               	movwf	??_hal_timer1_set_prescaler^0,c
  3225  003C52  6A11               	clrf	(??_hal_timer1_set_prescaler+1)^0,c
  3226                           
  3227                           ; Switch on 2 bytes has been partitioned into a top level switch of size 1, and 1 sub-sw
      +                          itches
  3228                           ; Switch size 1, requested type "simple"
  3229                           ; Number of cases is 1, Range of values is 0 to 0
  3230                           ; switch strategies available:
  3231                           ; Name         Instructions Cycles
  3232                           ; simple_byte            4     3 (average)
  3233                           ;	Chosen strategy is simple_byte
  3234  003C54  5011               	movf	(??_hal_timer1_set_prescaler+1)^0,w,c
  3235  003C56  0A00               	xorlw	0	; case 0
  3236  003C58  B4D8               	btfsc	status,2,c
  3237  003C5A  EF31  F01E         	goto	l11580
  3238  003C5E  EF1C  F01E         	goto	l9902
  3239  003C62                     l11580:
  3240                           
  3241                           ; Switch size 1, requested type "simple"
  3242                           ; Number of cases is 4, Range of values is 0 to 3
  3243                           ; switch strategies available:
  3244                           ; Name         Instructions Cycles
  3245                           ; simple_byte           13     7 (average)
  3246                           ;	Chosen strategy is simple_byte
  3247  003C62  5010               	movf	??_hal_timer1_set_prescaler^0,w,c
  3248  003C64  0A00               	xorlw	0	; case 0
  3249  003C66  B4D8               	btfsc	status,2,c
  3250  003C68  EF08  F01E         	goto	l9894
  3251  003C6C  0A01               	xorlw	1	; case 1
  3252  003C6E  B4D8               	btfsc	status,2,c
  3253  003C70  EF0C  F01E         	goto	l9896
  3254  003C74  0A03               	xorlw	3	; case 2
  3255  003C76  B4D8               	btfsc	status,2,c
  3256  003C78  EF12  F01E         	goto	l9898
  3257  003C7C  0A01               	xorlw	1	; case 3
  3258  003C7E  B4D8               	btfsc	status,2,c
  3259  003C80  EF18  F01E         	goto	l9900
  3260  003C84  EF1C  F01E         	goto	l9902
  3261  003C88                     l1143:
  3262  003C88  0012               	return		;funcret
  3263  003C8A                     __end_of_hal_timer1_set_prescaler:
  3264                           	callstack 0
  3265                           
  3266 ;; *************** function _hal_timer1_select_clock_source *****************
  3267 ;; Defined at:
  3268 ;;		line 116 in file "MCAL_Layer/Timer1/hal_timer1.c"
  3269 ;; Parameters:    Size  Location     Type
  3270 ;;  timer1          2   13[COMRAM] PTR const struct .
  3271 ;;		 -> tmr1(7), 
  3272 ;; Auto vars:     Size  Location     Type
  3273 ;;  status          1    0        unsigned char 
  3274 ;; Return value:  Size  Location     Type
  3275 ;;                  1    wreg      unsigned char 
  3276 ;; Registers used:
  3277 ;;		wreg, fsr2l, fsr2h, status,2, status,0
  3278 ;; Tracked objects:
  3279 ;;		On entry : 0/0
  3280 ;;		On exit  : 0/0
  3281 ;;		Unchanged: 0/0
  3282 ;; Data sizes:     COMRAM   BANK0   BANK1   BANK2   BANK3   BANK4   BANK5   BANK6   BANK7   BANK8   BANK9  BANK10  BANK1
      +1  BANK12  BANK13  BANK14  BANK15
  3283 ;;      Params:         2       0       0       0       0       0       0       0       0       0       0       0       
      +0       0       0       0       0
  3284 ;;      Locals:         0       0       0       0       0       0       0       0       0       0       0       0       
      +0       0       0       0       0
  3285 ;;      Temps:          1       0       0       0       0       0       0       0       0       0       0       0       
      +0       0       0       0       0
  3286 ;;      Totals:         3       0       0       0       0       0       0       0       0       0       0       0       
      +0       0       0       0       0
  3287 ;;Total ram usage:        3 bytes
  3288 ;; Hardware stack levels used: 1
  3289 ;; Hardware stack levels required when called: 4
  3290 ;; This function calls:
  3291 ;;		Nothing
  3292 ;; This function is called by:
  3293 ;;		_hal_timer1_initialize
  3294 ;; This function uses a non-reentrant model
  3295 ;;
  3296                           
  3297                           	psect	text14
  3298  003D18                     __ptext14:
  3299                           	callstack 0
  3300  003D18                     _hal_timer1_select_clock_source:
  3301                           	callstack 25
  3302  003D18                     
  3303                           ;MCAL_Layer/Timer1/hal_timer1.c: 118:     if(timer1 != ((void*)0)){
  3304  003D18  500E               	movf	hal_timer1_select_clock_source@timer1^0,w,c
  3305  003D1A  100F               	iorwf	(hal_timer1_select_clock_source@timer1+1)^0,w,c
  3306  003D1C  B4D8               	btfsc	status,2,c
  3307  003D1E  EF93  F01E         	goto	u9951
  3308  003D22  EF95  F01E         	goto	u9950
  3309  003D26                     u9951:
  3310  003D26  EFD1  F01E         	goto	l9846
  3311  003D2A                     u9950:
  3312  003D2A                     
  3313                           ;MCAL_Layer/Timer1/hal_timer1.c: 119:         if(timer1->timer1_mode == 0 && timer1->tim
      +                          er1_clock_source == 0){
  3314  003D2A  EE20 F005          	lfsr	2,5
  3315  003D2E  500E               	movf	hal_timer1_select_clock_source@timer1^0,w,c
  3316  003D30  26D9               	addwf	fsr2l,f,c
  3317  003D32  500F               	movf	(hal_timer1_select_clock_source@timer1+1)^0,w,c
  3318  003D34  22DA               	addwfc	fsr2h,f,c
  3319  003D36  50DF               	movf	indf2,w,c
  3320  003D38  A4D8               	btfss	status,2,c
  3321  003D3A  EFA1  F01E         	goto	u9961
  3322  003D3E  EFA3  F01E         	goto	u9960
  3323  003D42                     u9961:
  3324  003D42  EFB3  F01E         	goto	l9840
  3325  003D46                     u9960:
  3326  003D46  EE20 F006          	lfsr	2,6
  3327  003D4A  500E               	movf	hal_timer1_select_clock_source@timer1^0,w,c
  3328  003D4C  26D9               	addwf	fsr2l,f,c
  3329  003D4E  500F               	movf	(hal_timer1_select_clock_source@timer1+1)^0,w,c
  3330  003D50  22DA               	addwfc	fsr2h,f,c
  3331  003D52  B0DF               	btfsc	indf2,0,c
  3332  003D54  EFAE  F01E         	goto	u9971
  3333  003D58  EFB0  F01E         	goto	u9970
  3334  003D5C                     u9971:
  3335  003D5C  EFB3  F01E         	goto	l9840
  3336  003D60                     u9970:
  3337  003D60                     
  3338                           ;MCAL_Layer/Timer1/hal_timer1.c: 120:             (T1CONbits.TMR1CS = 0);
  3339  003D60  92CD               	bcf	205,1,c	;volatile
  3340                           
  3341                           ;MCAL_Layer/Timer1/hal_timer1.c: 121:         }
  3342  003D62  EFD1  F01E         	goto	l1113
  3343  003D66                     l9840:
  3344  003D66  EE20 F005          	lfsr	2,5
  3345  003D6A  500E               	movf	hal_timer1_select_clock_source@timer1^0,w,c
  3346  003D6C  26D9               	addwf	fsr2l,f,c
  3347  003D6E  500F               	movf	(hal_timer1_select_clock_source@timer1+1)^0,w,c
  3348  003D70  22DA               	addwfc	fsr2h,f,c
  3349  003D72  04DE               	decf	postinc2,w,c
  3350  003D74  A4D8               	btfss	status,2,c
  3351  003D76  EFBF  F01E         	goto	u9981
  3352  003D7A  EFC1  F01E         	goto	u9980
  3353  003D7E                     u9981:
  3354  003D7E  EFD1  F01E         	goto	l9846
  3355  003D82                     u9980:
  3356  003D82  EE20 F006          	lfsr	2,6
  3357  003D86  500E               	movf	hal_timer1_select_clock_source@timer1^0,w,c
  3358  003D88  26D9               	addwf	fsr2l,f,c
  3359  003D8A  500F               	movf	(hal_timer1_select_clock_source@timer1+1)^0,w,c
  3360  003D8C  22DA               	addwfc	fsr2h,f,c
  3361  003D8E  A0DF               	btfss	indf2,0,c
  3362  003D90  EFCC  F01E         	goto	u9991
  3363  003D94  EFCE  F01E         	goto	u9990
  3364  003D98                     u9991:
  3365  003D98  EFD1  F01E         	goto	l9846
  3366  003D9C                     u9990:
  3367  003D9C                     
  3368                           ;MCAL_Layer/Timer1/hal_timer1.c: 123:             (T1CONbits.TMR1CS = 1);
  3369  003D9C  82CD               	bsf	205,1,c	;volatile
  3370                           
  3371                           ;MCAL_Layer/Timer1/hal_timer1.c: 124:         }
  3372  003D9E  EFD1  F01E         	goto	l1113
  3373  003DA2                     l9846:
  3374  003DA2                     l1113:
  3375  003DA2  0012               	return		;funcret
  3376  003DA4                     __end_of_hal_timer1_select_clock_source:
  3377                           	callstack 0
  3378                           
  3379 ;; *************** function _hal_timer1_rw_8bit_16bit_mode *****************
  3380 ;; Defined at:
  3381 ;;		line 162 in file "MCAL_Layer/Timer1/hal_timer1.c"
  3382 ;; Parameters:    Size  Location     Type
  3383 ;;  timer1          2   13[COMRAM] PTR const struct .
  3384 ;;		 -> tmr1(7), 
  3385 ;; Auto vars:     Size  Location     Type
  3386 ;;  status          1    0        unsigned char 
  3387 ;; Return value:  Size  Location     Type
  3388 ;;                  1    wreg      unsigned char 
  3389 ;; Registers used:
  3390 ;;		wreg, fsr2l, fsr2h, status,2, status,0
  3391 ;; Tracked objects:
  3392 ;;		On entry : 0/0
  3393 ;;		On exit  : 0/0
  3394 ;;		Unchanged: 0/0
  3395 ;; Data sizes:     COMRAM   BANK0   BANK1   BANK2   BANK3   BANK4   BANK5   BANK6   BANK7   BANK8   BANK9  BANK10  BANK1
      +1  BANK12  BANK13  BANK14  BANK15
  3396 ;;      Params:         2       0       0       0       0       0       0       0       0       0       0       0       
      +0       0       0       0       0
  3397 ;;      Locals:         0       0       0       0       0       0       0       0       0       0       0       0       
      +0       0       0       0       0
  3398 ;;      Temps:          0       0       0       0       0       0       0       0       0       0       0       0       
      +0       0       0       0       0
  3399 ;;      Totals:         2       0       0       0       0       0       0       0       0       0       0       0       
      +0       0       0       0       0
  3400 ;;Total ram usage:        2 bytes
  3401 ;; Hardware stack levels used: 1
  3402 ;; Hardware stack levels required when called: 4
  3403 ;; This function calls:
  3404 ;;		Nothing
  3405 ;; This function is called by:
  3406 ;;		_hal_timer1_initialize
  3407 ;; This function uses a non-reentrant model
  3408 ;;
  3409                           
  3410                           	psect	text15
  3411  0040A6                     __ptext15:
  3412                           	callstack 0
  3413  0040A6                     _hal_timer1_rw_8bit_16bit_mode:
  3414                           	callstack 25
  3415  0040A6                     
  3416                           ;MCAL_Layer/Timer1/hal_timer1.c: 164:     if(timer1 != ((void*)0)){
  3417  0040A6  500E               	movf	hal_timer1_rw_8bit_16bit_mode@timer1^0,w,c
  3418  0040A8  100F               	iorwf	(hal_timer1_rw_8bit_16bit_mode@timer1+1)^0,w,c
  3419  0040AA  B4D8               	btfsc	status,2,c
  3420  0040AC  EF5A  F020         	goto	u10031
  3421  0040B0  EF5C  F020         	goto	u10030
  3422  0040B4                     u10031:
  3423  0040B4  EF7C  F020         	goto	l9882
  3424  0040B8                     u10030:
  3425  0040B8                     
  3426                           ;MCAL_Layer/Timer1/hal_timer1.c: 165:         if(timer1->timer1_rw_mode == 1){
  3427  0040B8  EE20 F006          	lfsr	2,6
  3428  0040BC  500E               	movf	hal_timer1_rw_8bit_16bit_mode@timer1^0,w,c
  3429  0040BE  26D9               	addwf	fsr2l,f,c
  3430  0040C0  500F               	movf	(hal_timer1_rw_8bit_16bit_mode@timer1+1)^0,w,c
  3431  0040C2  22DA               	addwfc	fsr2h,f,c
  3432  0040C4  AADF               	btfss	indf2,5,c
  3433  0040C6  EF67  F020         	goto	u10041
  3434  0040CA  EF69  F020         	goto	u10040
  3435  0040CE                     u10041:
  3436  0040CE  EF6C  F020         	goto	l9878
  3437  0040D2                     u10040:
  3438  0040D2                     
  3439                           ;MCAL_Layer/Timer1/hal_timer1.c: 166:             (T1CONbits.RD16 = 1);
  3440  0040D2  8ECD               	bsf	205,7,c	;volatile
  3441                           
  3442                           ;MCAL_Layer/Timer1/hal_timer1.c: 167:         }
  3443  0040D4  EF7C  F020         	goto	l1131
  3444  0040D8                     l9878:
  3445  0040D8  EE20 F006          	lfsr	2,6
  3446  0040DC  500E               	movf	hal_timer1_rw_8bit_16bit_mode@timer1^0,w,c
  3447  0040DE  26D9               	addwf	fsr2l,f,c
  3448  0040E0  500F               	movf	(hal_timer1_rw_8bit_16bit_mode@timer1+1)^0,w,c
  3449  0040E2  22DA               	addwfc	fsr2h,f,c
  3450  0040E4  BADF               	btfsc	indf2,5,c
  3451  0040E6  EF77  F020         	goto	u10051
  3452  0040EA  EF79  F020         	goto	u10050
  3453  0040EE                     u10051:
  3454  0040EE  EF7C  F020         	goto	l9882
  3455  0040F2                     u10050:
  3456  0040F2                     
  3457                           ;MCAL_Layer/Timer1/hal_timer1.c: 169:             (T1CONbits.RD16 = 0);
  3458  0040F2  9ECD               	bcf	205,7,c	;volatile
  3459                           
  3460                           ;MCAL_Layer/Timer1/hal_timer1.c: 170:         }
  3461  0040F4  EF7C  F020         	goto	l1131
  3462  0040F8                     l9882:
  3463  0040F8                     l1131:
  3464  0040F8  0012               	return		;funcret
  3465  0040FA                     __end_of_hal_timer1_rw_8bit_16bit_mode:
  3466                           	callstack 0
  3467                           
  3468 ;; *************** function _hal_timer1_interrupt_handler_init *****************
  3469 ;; Defined at:
  3470 ;;		line 323 in file "MCAL_Layer/Timer1/hal_timer1.c"
  3471 ;; Parameters:    Size  Location     Type
  3472 ;;  timer1          2   13[COMRAM] PTR const struct .
  3473 ;;		 -> tmr1(7), 
  3474 ;; Auto vars:     Size  Location     Type
  3475 ;;  status          1    0        unsigned char 
  3476 ;; Return value:  Size  Location     Type
  3477 ;;                  1    wreg      unsigned char 
  3478 ;; Registers used:
  3479 ;;		wreg, fsr2l, fsr2h, status,2, status,0
  3480 ;; Tracked objects:
  3481 ;;		On entry : 0/0
  3482 ;;		On exit  : 0/0
  3483 ;;		Unchanged: 0/0
  3484 ;; Data sizes:     COMRAM   BANK0   BANK1   BANK2   BANK3   BANK4   BANK5   BANK6   BANK7   BANK8   BANK9  BANK10  BANK1
      +1  BANK12  BANK13  BANK14  BANK15
  3485 ;;      Params:         2       0       0       0       0       0       0       0       0       0       0       0       
      +0       0       0       0       0
  3486 ;;      Locals:         0       0       0       0       0       0       0       0       0       0       0       0       
      +0       0       0       0       0
  3487 ;;      Temps:          2       0       0       0       0       0       0       0       0       0       0       0       
      +0       0       0       0       0
  3488 ;;      Totals:         4       0       0       0       0       0       0       0       0       0       0       0       
      +0       0       0       0       0
  3489 ;;Total ram usage:        4 bytes
  3490 ;; Hardware stack levels used: 1
  3491 ;; Hardware stack levels required when called: 4
  3492 ;; This function calls:
  3493 ;;		Nothing
  3494 ;; This function is called by:
  3495 ;;		_hal_timer1_initialize
  3496 ;; This function uses a non-reentrant model
  3497 ;;
  3498                           
  3499                           	psect	text16
  3500  003FA6                     __ptext16:
  3501                           	callstack 0
  3502  003FA6                     _hal_timer1_interrupt_handler_init:
  3503                           	callstack 25
  3504  003FA6                     
  3505                           ;MCAL_Layer/Timer1/hal_timer1.c: 325:     if(timer1 != ((void*)0)){
  3506  003FA6  500E               	movf	hal_timer1_interrupt_handler_init@timer1^0,w,c
  3507  003FA8  100F               	iorwf	(hal_timer1_interrupt_handler_init@timer1+1)^0,w,c
  3508  003FAA  B4D8               	btfsc	status,2,c
  3509  003FAC  EFDA  F01F         	goto	u10131
  3510  003FB0  EFDC  F01F         	goto	u10130
  3511  003FB4                     u10131:
  3512  003FB4  EFFD  F01F         	goto	l9964
  3513  003FB8                     u10130:
  3514  003FB8                     
  3515                           ;MCAL_Layer/Timer1/hal_timer1.c: 326:         if(TMR1_InterruptHandler == ((void*)0) && 
      +                          timer1->TMR1_Handler != ((void*)0)){
  3516  003FB8  0100               	movlb	0	; () banked
  3517  003FBA  519C               	movf	_TMR1_InterruptHandler& (0+255),w,b
  3518  003FBC  119D               	iorwf	(_TMR1_InterruptHandler+1)& (0+255),w,b
  3519  003FBE  A4D8               	btfss	status,2,c
  3520  003FC0  EFE4  F01F         	goto	u10141
  3521  003FC4  EFE6  F01F         	goto	u10140
  3522  003FC8                     u10141:
  3523  003FC8  EFFD  F01F         	goto	l9964
  3524  003FCC                     u10140:
  3525  003FCC                     
  3526                           ; BSR set to: 0
  3527  003FCC  C00E  FFD9         	movff	hal_timer1_interrupt_handler_init@timer1,fsr2l
  3528  003FD0  C00F  FFDA         	movff	hal_timer1_interrupt_handler_init@timer1+1,fsr2h
  3529  003FD4  50DE               	movf	postinc2,w,c
  3530  003FD6  10DE               	iorwf	postinc2,w,c
  3531  003FD8  B4D8               	btfsc	status,2,c
  3532  003FDA  EFF1  F01F         	goto	u10151
  3533  003FDE  EFF3  F01F         	goto	u10150
  3534  003FE2                     u10151:
  3535  003FE2  EFFD  F01F         	goto	l9964
  3536  003FE6                     u10150:
  3537  003FE6                     
  3538                           ; BSR set to: 0
  3539                           ;MCAL_Layer/Timer1/hal_timer1.c: 327:             TMR1_InterruptHandler = timer1->TMR1_H
      +                          andler;
  3540  003FE6  C00E  FFD9         	movff	hal_timer1_interrupt_handler_init@timer1,fsr2l
  3541  003FEA  C00F  FFDA         	movff	hal_timer1_interrupt_handler_init@timer1+1,fsr2h
  3542  003FEE  CFDE F09C          	movff	postinc2,_TMR1_InterruptHandler
  3543  003FF2  CFDD F09D          	movff	postdec2,_TMR1_InterruptHandler+1
  3544                           
  3545                           ;MCAL_Layer/Timer1/hal_timer1.c: 328:         }
  3546  003FF6  EFFD  F01F         	goto	l1179
  3547  003FFA                     l9964:
  3548  003FFA                     l1179:
  3549  003FFA  0012               	return		;funcret
  3550  003FFC                     __end_of_hal_timer1_interrupt_handler_init:
  3551                           	callstack 0
  3552                           
  3553 ;; *************** function _hal_timer1_interrupt_enable *****************
  3554 ;; Defined at:
  3555 ;;		line 242 in file "MCAL_Layer/Timer1/hal_timer1.c"
  3556 ;; Parameters:    Size  Location     Type
  3557 ;;  timer1          2   13[COMRAM] PTR const struct .
  3558 ;;		 -> tmr1(7), 
  3559 ;; Auto vars:     Size  Location     Type
  3560 ;;  status          1    0        unsigned char 
  3561 ;; Return value:  Size  Location     Type
  3562 ;;                  1    wreg      unsigned char 
  3563 ;; Registers used:
  3564 ;;		wreg, status,2, status,0
  3565 ;; Tracked objects:
  3566 ;;		On entry : 0/0
  3567 ;;		On exit  : 0/0
  3568 ;;		Unchanged: 0/0
  3569 ;; Data sizes:     COMRAM   BANK0   BANK1   BANK2   BANK3   BANK4   BANK5   BANK6   BANK7   BANK8   BANK9  BANK10  BANK1
      +1  BANK12  BANK13  BANK14  BANK15
  3570 ;;      Params:         2       0       0       0       0       0       0       0       0       0       0       0       
      +0       0       0       0       0
  3571 ;;      Locals:         0       0       0       0       0       0       0       0       0       0       0       0       
      +0       0       0       0       0
  3572 ;;      Temps:          0       0       0       0       0       0       0       0       0       0       0       0       
      +0       0       0       0       0
  3573 ;;      Totals:         2       0       0       0       0       0       0       0       0       0       0       0       
      +0       0       0       0       0
  3574 ;;Total ram usage:        2 bytes
  3575 ;; Hardware stack levels used: 1
  3576 ;; Hardware stack levels required when called: 4
  3577 ;; This function calls:
  3578 ;;		Nothing
  3579 ;; This function is called by:
  3580 ;;		_hal_timer1_initialize
  3581 ;; This function uses a non-reentrant model
  3582 ;;
  3583                           
  3584                           	psect	text17
  3585  004316                     __ptext17:
  3586                           	callstack 0
  3587  004316                     _hal_timer1_interrupt_enable:
  3588                           	callstack 25
  3589  004316                     
  3590                           ;MCAL_Layer/Timer1/hal_timer1.c: 244:     if(timer1 != ((void*)0)){
  3591  004316  500E               	movf	hal_timer1_interrupt_enable@timer1^0,w,c
  3592  004318  100F               	iorwf	(hal_timer1_interrupt_enable@timer1+1)^0,w,c
  3593  00431A  B4D8               	btfsc	status,2,c
  3594  00431C  EF92  F021         	goto	u10161
  3595  004320  EF94  F021         	goto	u10160
  3596  004324                     u10161:
  3597  004324  EF99  F021         	goto	l9976
  3598  004328                     u10160:
  3599  004328                     
  3600                           ;MCAL_Layer/Timer1/hal_timer1.c: 245:         (PIE1bits.TMR1IE = 1);
  3601  004328  809D               	bsf	157,0,c	;volatile
  3602                           
  3603                           ;MCAL_Layer/Timer1/hal_timer1.c: 260:         (INTCONbits.GIE = 1);
  3604  00432A  8EF2               	bsf	242,7,c	;volatile
  3605                           
  3606                           ;MCAL_Layer/Timer1/hal_timer1.c: 261:         (INTCONbits.PEIE = 1);
  3607  00432C  8CF2               	bsf	242,6,c	;volatile
  3608                           
  3609                           ;MCAL_Layer/Timer1/hal_timer1.c: 263:     }
  3610  00432E  EF99  F021         	goto	l1157
  3611  004332                     l9976:
  3612  004332                     l1157:
  3613  004332  0012               	return		;funcret
  3614  004334                     __end_of_hal_timer1_interrupt_enable:
  3615                           	callstack 0
  3616                           
  3617 ;; *************** function _hal_timer1_enable *****************
  3618 ;; Defined at:
  3619 ;;		line 292 in file "MCAL_Layer/Timer1/hal_timer1.c"
  3620 ;; Parameters:    Size  Location     Type
  3621 ;;  timer1          2   13[COMRAM] PTR const struct .
  3622 ;;		 -> tmr1(7), 
  3623 ;; Auto vars:     Size  Location     Type
  3624 ;;  status          1    0        unsigned char 
  3625 ;; Return value:  Size  Location     Type
  3626 ;;                  1    wreg      unsigned char 
  3627 ;; Registers used:
  3628 ;;		wreg, status,2, status,0
  3629 ;; Tracked objects:
  3630 ;;		On entry : 0/0
  3631 ;;		On exit  : 0/0
  3632 ;;		Unchanged: 0/0
  3633 ;; Data sizes:     COMRAM   BANK0   BANK1   BANK2   BANK3   BANK4   BANK5   BANK6   BANK7   BANK8   BANK9  BANK10  BANK1
      +1  BANK12  BANK13  BANK14  BANK15
  3634 ;;      Params:         2       0       0       0       0       0       0       0       0       0       0       0       
      +0       0       0       0       0
  3635 ;;      Locals:         0       0       0       0       0       0       0       0       0       0       0       0       
      +0       0       0       0       0
  3636 ;;      Temps:          0       0       0       0       0       0       0       0       0       0       0       0       
      +0       0       0       0       0
  3637 ;;      Totals:         2       0       0       0       0       0       0       0       0       0       0       0       
      +0       0       0       0       0
  3638 ;;Total ram usage:        2 bytes
  3639 ;; Hardware stack levels used: 1
  3640 ;; Hardware stack levels required when called: 4
  3641 ;; This function calls:
  3642 ;;		Nothing
  3643 ;; This function is called by:
  3644 ;;		_hal_timer1_initialize
  3645 ;; This function uses a non-reentrant model
  3646 ;;
  3647                           
  3648                           	psect	text18
  3649  004334                     __ptext18:
  3650                           	callstack 0
  3651  004334                     _hal_timer1_enable:
  3652                           	callstack 25
  3653  004334                     
  3654                           ;MCAL_Layer/Timer1/hal_timer1.c: 294:     if(timer1 != ((void*)0)){
  3655  004334  500E               	movf	hal_timer1_enable@timer1^0,w,c
  3656  004336  100F               	iorwf	(hal_timer1_enable@timer1+1)^0,w,c
  3657  004338  B4D8               	btfsc	status,2,c
  3658  00433A  EFA1  F021         	goto	u10171
  3659  00433E  EFA3  F021         	goto	u10170
  3660  004342                     u10171:
  3661  004342  EFA6  F021         	goto	l9986
  3662  004346                     u10170:
  3663  004346                     
  3664                           ;MCAL_Layer/Timer1/hal_timer1.c: 295:         (T1CONbits.TMR1ON = 1);
  3665  004346  80CD               	bsf	205,0,c	;volatile
  3666                           
  3667                           ;MCAL_Layer/Timer1/hal_timer1.c: 296:     }
  3668  004348  EFA6  F021         	goto	l1167
  3669  00434C                     l9986:
  3670  00434C                     l1167:
  3671  00434C  0012               	return		;funcret
  3672  00434E                     __end_of_hal_timer1_enable:
  3673                           	callstack 0
  3674                           
  3675 ;; *************** function _hal_timer1_disable *****************
  3676 ;; Defined at:
  3677 ;;		line 307 in file "MCAL_Layer/Timer1/hal_timer1.c"
  3678 ;; Parameters:    Size  Location     Type
  3679 ;;  timer1          2   13[COMRAM] PTR const struct .
  3680 ;;		 -> tmr1(7), 
  3681 ;; Auto vars:     Size  Location     Type
  3682 ;;  status          1    0        unsigned char 
  3683 ;; Return value:  Size  Location     Type
  3684 ;;                  1    wreg      unsigned char 
  3685 ;; Registers used:
  3686 ;;		wreg, status,2, status,0
  3687 ;; Tracked objects:
  3688 ;;		On entry : 0/0
  3689 ;;		On exit  : 0/0
  3690 ;;		Unchanged: 0/0
  3691 ;; Data sizes:     COMRAM   BANK0   BANK1   BANK2   BANK3   BANK4   BANK5   BANK6   BANK7   BANK8   BANK9  BANK10  BANK1
      +1  BANK12  BANK13  BANK14  BANK15
  3692 ;;      Params:         2       0       0       0       0       0       0       0       0       0       0       0       
      +0       0       0       0       0
  3693 ;;      Locals:         0       0       0       0       0       0       0       0       0       0       0       0       
      +0       0       0       0       0
  3694 ;;      Temps:          0       0       0       0       0       0       0       0       0       0       0       0       
      +0       0       0       0       0
  3695 ;;      Totals:         2       0       0       0       0       0       0       0       0       0       0       0       
      +0       0       0       0       0
  3696 ;;Total ram usage:        2 bytes
  3697 ;; Hardware stack levels used: 1
  3698 ;; Hardware stack levels required when called: 4
  3699 ;; This function calls:
  3700 ;;		Nothing
  3701 ;; This function is called by:
  3702 ;;		_hal_timer1_initialize
  3703 ;; This function uses a non-reentrant model
  3704 ;;
  3705                           
  3706                           	psect	text19
  3707  00434E                     __ptext19:
  3708                           	callstack 0
  3709  00434E                     _hal_timer1_disable:
  3710                           	callstack 25
  3711  00434E                     
  3712                           ;MCAL_Layer/Timer1/hal_timer1.c: 309:     if(timer1 != ((void*)0)){
  3713  00434E  500E               	movf	hal_timer1_disable@timer1^0,w,c
  3714  004350  100F               	iorwf	(hal_timer1_disable@timer1+1)^0,w,c
  3715  004352  B4D8               	btfsc	status,2,c
  3716  004354  EFAE  F021         	goto	u9941
  3717  004358  EFB0  F021         	goto	u9940
  3718  00435C                     u9941:
  3719  00435C  EFB3  F021         	goto	l9826
  3720  004360                     u9940:
  3721  004360                     
  3722                           ;MCAL_Layer/Timer1/hal_timer1.c: 310:         (T1CONbits.TMR1ON = 0);
  3723  004360  90CD               	bcf	205,0,c	;volatile
  3724                           
  3725                           ;MCAL_Layer/Timer1/hal_timer1.c: 311:     }
  3726  004362  EFB3  F021         	goto	l1172
  3727  004366                     l9826:
  3728  004366                     l1172:
  3729  004366  0012               	return		;funcret
  3730  004368                     __end_of_hal_timer1_disable:
  3731                           	callstack 0
  3732                           
  3733 ;; *************** function _hal_timer1_config_timer1_oscillator *****************
  3734 ;; Defined at:
  3735 ;;		line 216 in file "MCAL_Layer/Timer1/hal_timer1.c"
  3736 ;; Parameters:    Size  Location     Type
  3737 ;;  timer1          2   13[COMRAM] PTR const struct .
  3738 ;;		 -> tmr1(7), 
  3739 ;; Auto vars:     Size  Location     Type
  3740 ;;  status          1    0        unsigned char 
  3741 ;; Return value:  Size  Location     Type
  3742 ;;                  1    wreg      unsigned char 
  3743 ;; Registers used:
  3744 ;;		wreg, fsr2l, fsr2h, status,2, status,0
  3745 ;; Tracked objects:
  3746 ;;		On entry : 0/0
  3747 ;;		On exit  : 0/0
  3748 ;;		Unchanged: 0/0
  3749 ;; Data sizes:     COMRAM   BANK0   BANK1   BANK2   BANK3   BANK4   BANK5   BANK6   BANK7   BANK8   BANK9  BANK10  BANK1
      +1  BANK12  BANK13  BANK14  BANK15
  3750 ;;      Params:         2       0       0       0       0       0       0       0       0       0       0       0       
      +0       0       0       0       0
  3751 ;;      Locals:         0       0       0       0       0       0       0       0       0       0       0       0       
      +0       0       0       0       0
  3752 ;;      Temps:          0       0       0       0       0       0       0       0       0       0       0       0       
      +0       0       0       0       0
  3753 ;;      Totals:         2       0       0       0       0       0       0       0       0       0       0       0       
      +0       0       0       0       0
  3754 ;;Total ram usage:        2 bytes
  3755 ;; Hardware stack levels used: 1
  3756 ;; Hardware stack levels required when called: 4
  3757 ;; This function calls:
  3758 ;;		Nothing
  3759 ;; This function is called by:
  3760 ;;		_hal_timer1_initialize
  3761 ;; This function uses a non-reentrant model
  3762 ;;
  3763                           
  3764                           	psect	text20
  3765  0040FA                     __ptext20:
  3766                           	callstack 0
  3767  0040FA                     _hal_timer1_config_timer1_oscillator:
  3768                           	callstack 25
  3769  0040FA                     
  3770                           ;MCAL_Layer/Timer1/hal_timer1.c: 218:     if(timer1 != ((void*)0)){
  3771  0040FA  500E               	movf	hal_timer1_config_timer1_oscillator@timer1^0,w,c
  3772  0040FC  100F               	iorwf	(hal_timer1_config_timer1_oscillator@timer1+1)^0,w,c
  3773  0040FE  B4D8               	btfsc	status,2,c
  3774  004100  EF84  F020         	goto	u10071
  3775  004104  EF86  F020         	goto	u10070
  3776  004108                     u10071:
  3777  004108  EFA6  F020         	goto	l9928
  3778  00410C                     u10070:
  3779  00410C                     
  3780                           ;MCAL_Layer/Timer1/hal_timer1.c: 219:         if(timer1->timer1_Osc == 1){
  3781  00410C  EE20 F006          	lfsr	2,6
  3782  004110  500E               	movf	hal_timer1_config_timer1_oscillator@timer1^0,w,c
  3783  004112  26D9               	addwf	fsr2l,f,c
  3784  004114  500F               	movf	(hal_timer1_config_timer1_oscillator@timer1+1)^0,w,c
  3785  004116  22DA               	addwfc	fsr2h,f,c
  3786  004118  A4DF               	btfss	indf2,2,c
  3787  00411A  EF91  F020         	goto	u10081
  3788  00411E  EF93  F020         	goto	u10080
  3789  004122                     u10081:
  3790  004122  EF96  F020         	goto	l9924
  3791  004126                     u10080:
  3792  004126                     
  3793                           ;MCAL_Layer/Timer1/hal_timer1.c: 220:             (T1CONbits.T1OSCEN = 1);
  3794  004126  86CD               	bsf	205,3,c	;volatile
  3795                           
  3796                           ;MCAL_Layer/Timer1/hal_timer1.c: 221:         }
  3797  004128  EFA6  F020         	goto	l1152
  3798  00412C                     l9924:
  3799  00412C  EE20 F006          	lfsr	2,6
  3800  004130  500E               	movf	hal_timer1_config_timer1_oscillator@timer1^0,w,c
  3801  004132  26D9               	addwf	fsr2l,f,c
  3802  004134  500F               	movf	(hal_timer1_config_timer1_oscillator@timer1+1)^0,w,c
  3803  004136  22DA               	addwfc	fsr2h,f,c
  3804  004138  B4DF               	btfsc	indf2,2,c
  3805  00413A  EFA1  F020         	goto	u10091
  3806  00413E  EFA3  F020         	goto	u10090
  3807  004142                     u10091:
  3808  004142  EFA6  F020         	goto	l9928
  3809  004146                     u10090:
  3810  004146                     
  3811                           ;MCAL_Layer/Timer1/hal_timer1.c: 223:             (T1CONbits.T1OSCEN = 0);
  3812  004146  96CD               	bcf	205,3,c	;volatile
  3813                           
  3814                           ;MCAL_Layer/Timer1/hal_timer1.c: 224:         }
  3815  004148  EFA6  F020         	goto	l1152
  3816  00414C                     l9928:
  3817  00414C                     l1152:
  3818  00414C  0012               	return		;funcret
  3819  00414E                     __end_of_hal_timer1_config_timer1_oscillator:
  3820                           	callstack 0
  3821                           
  3822 ;; *************** function _hal_ccp_init *****************
  3823 ;; Defined at:
  3824 ;;		line 20 in file "MCAL_Layer/CCP1/hal_ccp1.c"
  3825 ;; Parameters:    Size  Location     Type
  3826 ;;  ccpobj          2    4[BANK0 ] PTR const struct .
  3827 ;;		 -> ccp1obj(16), 
  3828 ;; Auto vars:     Size  Location     Type
  3829 ;;  status          1    0        unsigned char 
  3830 ;; Return value:  Size  Location     Type
  3831 ;;                  1    wreg      unsigned char 
  3832 ;; Registers used:
  3833 ;;		wreg, fsr2l, fsr2h, status,2, status,0, prodl, prodh, cstack
  3834 ;; Tracked objects:
  3835 ;;		On entry : 0/0
  3836 ;;		On exit  : 0/0
  3837 ;;		Unchanged: 0/0
  3838 ;; Data sizes:     COMRAM   BANK0   BANK1   BANK2   BANK3   BANK4   BANK5   BANK6   BANK7   BANK8   BANK9  BANK10  BANK1
      +1  BANK12  BANK13  BANK14  BANK15
  3839 ;;      Params:         0       2       0       0       0       0       0       0       0       0       0       0       
      +0       0       0       0       0
  3840 ;;      Locals:         0       8       0       0       0       0       0       0       0       0       0       0       
      +0       0       0       0       0
  3841 ;;      Temps:          0       2       0       0       0       0       0       0       0       0       0       0       
      +0       0       0       0       0
  3842 ;;      Totals:         0      12       0       0       0       0       0       0       0       0       0       0       
      +0       0       0       0       0
  3843 ;;Total ram usage:       12 bytes
  3844 ;; Hardware stack levels used: 1
  3845 ;; Hardware stack levels required when called: 5
  3846 ;; This function calls:
  3847 ;;		___fladd
  3848 ;;		___fldiv
  3849 ;;		___flmul
  3850 ;;		___fltol
  3851 ;;		___xxtofl
  3852 ;; This function is called by:
  3853 ;;		_main
  3854 ;; This function uses a non-reentrant model
  3855 ;;
  3856                           
  3857                           	psect	text21
  3858  001020                     __ptext21:
  3859                           	callstack 0
  3860  001020                     _hal_ccp_init:
  3861                           	callstack 25
  3862  001020                     
  3863                           ;MCAL_Layer/CCP1/hal_ccp1.c: 22:     if(ccpobj != ((void*)0)){
  3864  001020  0100               	movlb	0	; () banked
  3865  001022  51E9               	movf	hal_ccp_init@ccpobj& (0+255),w,b
  3866  001024  11EA               	iorwf	(hal_ccp_init@ccpobj+1)& (0+255),w,b
  3867  001026  B4D8               	btfsc	status,2,c
  3868  001028  EF18  F008         	goto	u11291
  3869  00102C  EF1A  F008         	goto	u11290
  3870  001030                     u11291:
  3871  001030  EFBA  F00A         	goto	l10876
  3872  001034                     u11290:
  3873  001034                     
  3874                           ; BSR set to: 0
  3875                           ;MCAL_Layer/CCP1/hal_ccp1.c: 23:         if(ccpobj->cpp_instance == ((uint8_t)0)){
  3876  001034  EE20 F006          	lfsr	2,6
  3877  001038  51E9               	movf	hal_ccp_init@ccpobj& (0+255),w,b
  3878  00103A  26D9               	addwf	fsr2l,f,c
  3879  00103C  51EA               	movf	(hal_ccp_init@ccpobj+1)& (0+255),w,b
  3880  00103E  22DA               	addwfc	fsr2h,f,c
  3881  001040  50DF               	movf	indf2,w,c
  3882  001042  A4D8               	btfss	status,2,c
  3883  001044  EF26  F008         	goto	u11301
  3884  001048  EF28  F008         	goto	u11300
  3885  00104C                     u11301:
  3886  00104C  EF2C  F008         	goto	l10748
  3887  001050                     u11300:
  3888  001050                     
  3889                           ; BSR set to: 0
  3890                           ;MCAL_Layer/CCP1/hal_ccp1.c: 24:             (CCP1CONbits.CCP1M = ((uint8_t)0));
  3891  001050  0EF0               	movlw	-16
  3892  001052  16BD               	andwf	189,f,c	;volatile
  3893                           
  3894                           ;MCAL_Layer/CCP1/hal_ccp1.c: 25:         }
  3895  001054  EF3E  F008         	goto	l10754
  3896  001058                     l10748:
  3897                           
  3898                           ; BSR set to: 0
  3899  001058  EE20 F006          	lfsr	2,6
  3900  00105C  51E9               	movf	hal_ccp_init@ccpobj& (0+255),w,b
  3901  00105E  26D9               	addwf	fsr2l,f,c
  3902  001060  51EA               	movf	(hal_ccp_init@ccpobj+1)& (0+255),w,b
  3903  001062  22DA               	addwfc	fsr2h,f,c
  3904  001064  04DE               	decf	postinc2,w,c
  3905  001066  A4D8               	btfss	status,2,c
  3906  001068  EF38  F008         	goto	u11311
  3907  00106C  EF3A  F008         	goto	u11310
  3908  001070                     u11311:
  3909  001070  EF3E  F008         	goto	l10752
  3910  001074                     u11310:
  3911  001074                     
  3912                           ; BSR set to: 0
  3913                           ;MCAL_Layer/CCP1/hal_ccp1.c: 27:             (CCP2CONbits.CCP2M = ((uint8_t)0));
  3914  001074  0EF0               	movlw	-16
  3915  001076  16BA               	andwf	186,f,c	;volatile
  3916                           
  3917                           ;MCAL_Layer/CCP1/hal_ccp1.c: 28:         }
  3918  001078  EF3E  F008         	goto	l10754
  3919  00107C                     l10752:
  3920  00107C                     l10754:
  3921                           
  3922                           ; BSR set to: 0
  3923                           ;MCAL_Layer/CCP1/hal_ccp1.c: 33:         if(ccpobj->ccp_mode == CCP_COMPARE_MODE_){
  3924  00107C  EE20 F007          	lfsr	2,7
  3925  001080  51E9               	movf	hal_ccp_init@ccpobj& (0+255),w,b
  3926  001082  26D9               	addwf	fsr2l,f,c
  3927  001084  51EA               	movf	(hal_ccp_init@ccpobj+1)& (0+255),w,b
  3928  001086  22DA               	addwfc	fsr2h,f,c
  3929  001088  50DF               	movf	indf2,w,c
  3930  00108A  A4D8               	btfss	status,2,c
  3931  00108C  EF4A  F008         	goto	u11321
  3932  001090  EF4C  F008         	goto	u11320
  3933  001094                     u11321:
  3934  001094  EFF8  F008         	goto	l10798
  3935  001098                     u11320:
  3936  001098                     
  3937                           ; BSR set to: 0
  3938                           ;MCAL_Layer/CCP1/hal_ccp1.c: 34:             if(ccpobj->cpp_instance == ((uint8_t)0)){
  3939  001098  EE20 F006          	lfsr	2,6
  3940  00109C  51E9               	movf	hal_ccp_init@ccpobj& (0+255),w,b
  3941  00109E  26D9               	addwf	fsr2l,f,c
  3942  0010A0  51EA               	movf	(hal_ccp_init@ccpobj+1)& (0+255),w,b
  3943  0010A2  22DA               	addwfc	fsr2h,f,c
  3944  0010A4  50DF               	movf	indf2,w,c
  3945  0010A6  A4D8               	btfss	status,2,c
  3946  0010A8  EF58  F008         	goto	u11331
  3947  0010AC  EF5A  F008         	goto	u11330
  3948  0010B0                     u11331:
  3949  0010B0  EFA3  F008         	goto	l10776
  3950  0010B4                     u11330:
  3951  0010B4  EF7C  F008         	goto	l10774
  3952  0010B8                     l10760:
  3953                           
  3954                           ; BSR set to: 0
  3955                           ;MCAL_Layer/CCP1/hal_ccp1.c: 37:                         (CCP1CONbits.CCP1M = ((uint8_t)
      +                          2));
  3956  0010B8  50BD               	movf	189,w,c	;volatile
  3957  0010BA  0BF0               	andlw	-16
  3958  0010BC  0902               	iorlw	2
  3959  0010BE  6EBD               	movwf	189,c	;volatile
  3960                           
  3961                           ;MCAL_Layer/CCP1/hal_ccp1.c: 38:                         break;
  3962  0010C0  EF7F  F00A         	goto	l10858
  3963  0010C4                     l10762:
  3964                           
  3965                           ; BSR set to: 0
  3966                           ;MCAL_Layer/CCP1/hal_ccp1.c: 40:                         (CCP1CONbits.CCP1M = ((uint8_t)
      +                          8));
  3967  0010C4  50BD               	movf	189,w,c	;volatile
  3968  0010C6  0BF0               	andlw	-16
  3969  0010C8  0908               	iorlw	8
  3970  0010CA  6EBD               	movwf	189,c	;volatile
  3971                           
  3972                           ;MCAL_Layer/CCP1/hal_ccp1.c: 41:                         break;
  3973  0010CC  EF7F  F00A         	goto	l10858
  3974  0010D0                     l10764:
  3975                           
  3976                           ; BSR set to: 0
  3977                           ;MCAL_Layer/CCP1/hal_ccp1.c: 43:                         (CCP1CONbits.CCP1M = ((uint8_t)
      +                          9));
  3978  0010D0  50BD               	movf	189,w,c	;volatile
  3979  0010D2  0BF0               	andlw	-16
  3980  0010D4  0909               	iorlw	9
  3981  0010D6  6EBD               	movwf	189,c	;volatile
  3982                           
  3983                           ;MCAL_Layer/CCP1/hal_ccp1.c: 44:                         break;
  3984  0010D8  EF7F  F00A         	goto	l10858
  3985  0010DC                     l10766:
  3986                           
  3987                           ; BSR set to: 0
  3988                           ;MCAL_Layer/CCP1/hal_ccp1.c: 46:                         (CCP1CONbits.CCP1M = ((uint8_t)
      +                          10));
  3989  0010DC  50BD               	movf	189,w,c	;volatile
  3990  0010DE  0BF0               	andlw	-16
  3991  0010E0  090A               	iorlw	10
  3992  0010E2  6EBD               	movwf	189,c	;volatile
  3993                           
  3994                           ;MCAL_Layer/CCP1/hal_ccp1.c: 47:                         break;
  3995  0010E4  EF7F  F00A         	goto	l10858
  3996  0010E8                     l10768:
  3997                           
  3998                           ; BSR set to: 0
  3999                           ;MCAL_Layer/CCP1/hal_ccp1.c: 49:                         (CCP1CONbits.CCP1M = ((uint8_t)
      +                          11));
  4000  0010E8  50BD               	movf	189,w,c	;volatile
  4001  0010EA  0BF0               	andlw	-16
  4002  0010EC  090B               	iorlw	11
  4003  0010EE  6EBD               	movwf	189,c	;volatile
  4004                           
  4005                           ;MCAL_Layer/CCP1/hal_ccp1.c: 50:                         break;
  4006  0010F0  EF7F  F00A         	goto	l10858
  4007  0010F4                     l10770:
  4008                           
  4009                           ; BSR set to: 0
  4010                           ;MCAL_Layer/CCP1/hal_ccp1.c: 53:                         break;
  4011  0010F4  EF7F  F00A         	goto	l10858
  4012  0010F8                     l10774:
  4013                           
  4014                           ; BSR set to: 0
  4015  0010F8  EE20 F008          	lfsr	2,8
  4016  0010FC  51E9               	movf	hal_ccp_init@ccpobj& (0+255),w,b
  4017  0010FE  26D9               	addwf	fsr2l,f,c
  4018  001100  51EA               	movf	(hal_ccp_init@ccpobj+1)& (0+255),w,b
  4019  001102  22DA               	addwfc	fsr2h,f,c
  4020  001104  50DF               	movf	indf2,w,c
  4021  001106  6FEB               	movwf	??_hal_ccp_init& (0+255),b
  4022  001108  6BEC               	clrf	(??_hal_ccp_init+1)& (0+255),b
  4023                           
  4024                           ; Switch on 2 bytes has been partitioned into a top level switch of size 1, and 1 sub-sw
      +                          itches
  4025                           ; Switch size 1, requested type "simple"
  4026                           ; Number of cases is 1, Range of values is 0 to 0
  4027                           ; switch strategies available:
  4028                           ; Name         Instructions Cycles
  4029                           ; simple_byte            4     3 (average)
  4030                           ;	Chosen strategy is simple_byte
  4031  00110A  51EC               	movf	(??_hal_ccp_init+1)& (0+255),w,b
  4032  00110C  0A00               	xorlw	0	; case 0
  4033  00110E  B4D8               	btfsc	status,2,c
  4034  001110  EF8C  F008         	goto	l11582
  4035  001114  EF7A  F008         	goto	l10770
  4036  001118                     l11582:
  4037                           
  4038                           ; BSR set to: 0
  4039                           ; Switch size 1, requested type "simple"
  4040                           ; Number of cases is 5, Range of values is 2 to 11
  4041                           ; switch strategies available:
  4042                           ; Name         Instructions Cycles
  4043                           ; simple_byte           16     9 (average)
  4044                           ;	Chosen strategy is simple_byte
  4045  001118  51EB               	movf	??_hal_ccp_init& (0+255),w,b
  4046  00111A  0A02               	xorlw	2	; case 2
  4047  00111C  B4D8               	btfsc	status,2,c
  4048  00111E  EF5C  F008         	goto	l10760
  4049  001122  0A0A               	xorlw	10	; case 8
  4050  001124  B4D8               	btfsc	status,2,c
  4051  001126  EF62  F008         	goto	l10762
  4052  00112A  0A01               	xorlw	1	; case 9
  4053  00112C  B4D8               	btfsc	status,2,c
  4054  00112E  EF68  F008         	goto	l10764
  4055  001132  0A03               	xorlw	3	; case 10
  4056  001134  B4D8               	btfsc	status,2,c
  4057  001136  EF6E  F008         	goto	l10766
  4058  00113A  0A01               	xorlw	1	; case 11
  4059  00113C  B4D8               	btfsc	status,2,c
  4060  00113E  EF74  F008         	goto	l10768
  4061  001142  EF7A  F008         	goto	l10770
  4062  001146                     l10776:
  4063                           
  4064                           ; BSR set to: 0
  4065  001146  EE20 F006          	lfsr	2,6
  4066  00114A  51E9               	movf	hal_ccp_init@ccpobj& (0+255),w,b
  4067  00114C  26D9               	addwf	fsr2l,f,c
  4068  00114E  51EA               	movf	(hal_ccp_init@ccpobj+1)& (0+255),w,b
  4069  001150  22DA               	addwfc	fsr2h,f,c
  4070  001152  04DE               	decf	postinc2,w,c
  4071  001154  A4D8               	btfss	status,2,c
  4072  001156  EFAF  F008         	goto	u11341
  4073  00115A  EFB1  F008         	goto	u11340
  4074  00115E                     u11341:
  4075  00115E  EF7A  F008         	goto	l10770
  4076  001162                     u11340:
  4077  001162  EFD1  F008         	goto	l10794
  4078  001166                     l10780:
  4079                           
  4080                           ; BSR set to: 0
  4081                           ;MCAL_Layer/CCP1/hal_ccp1.c: 59:                         (CCP2CONbits.CCP2M = ((uint8_t)
      +                          2));
  4082  001166  50BA               	movf	186,w,c	;volatile
  4083  001168  0BF0               	andlw	-16
  4084  00116A  0902               	iorlw	2
  4085  00116C  6EBA               	movwf	186,c	;volatile
  4086                           
  4087                           ;MCAL_Layer/CCP1/hal_ccp1.c: 60:                         break;
  4088  00116E  EF7F  F00A         	goto	l10858
  4089  001172                     l10782:
  4090                           
  4091                           ; BSR set to: 0
  4092                           ;MCAL_Layer/CCP1/hal_ccp1.c: 62:                         (CCP2CONbits.CCP2M = ((uint8_t)
      +                          8));
  4093  001172  50BA               	movf	186,w,c	;volatile
  4094  001174  0BF0               	andlw	-16
  4095  001176  0908               	iorlw	8
  4096  001178  6EBA               	movwf	186,c	;volatile
  4097                           
  4098                           ;MCAL_Layer/CCP1/hal_ccp1.c: 63:                         break;
  4099  00117A  EF7F  F00A         	goto	l10858
  4100  00117E                     l10784:
  4101                           
  4102                           ; BSR set to: 0
  4103                           ;MCAL_Layer/CCP1/hal_ccp1.c: 65:                         (CCP2CONbits.CCP2M = ((uint8_t)
      +                          9));
  4104  00117E  50BA               	movf	186,w,c	;volatile
  4105  001180  0BF0               	andlw	-16
  4106  001182  0909               	iorlw	9
  4107  001184  6EBA               	movwf	186,c	;volatile
  4108                           
  4109                           ;MCAL_Layer/CCP1/hal_ccp1.c: 66:                         break;
  4110  001186  EF7F  F00A         	goto	l10858
  4111  00118A                     l10786:
  4112                           
  4113                           ; BSR set to: 0
  4114                           ;MCAL_Layer/CCP1/hal_ccp1.c: 68:                         (CCP2CONbits.CCP2M = ((uint8_t)
      +                          10));
  4115  00118A  50BA               	movf	186,w,c	;volatile
  4116  00118C  0BF0               	andlw	-16
  4117  00118E  090A               	iorlw	10
  4118  001190  6EBA               	movwf	186,c	;volatile
  4119                           
  4120                           ;MCAL_Layer/CCP1/hal_ccp1.c: 69:                         break;
  4121  001192  EF7F  F00A         	goto	l10858
  4122  001196                     l10788:
  4123                           
  4124                           ; BSR set to: 0
  4125                           ;MCAL_Layer/CCP1/hal_ccp1.c: 71:                         (CCP2CONbits.CCP2M = ((uint8_t)
      +                          11));
  4126  001196  50BA               	movf	186,w,c	;volatile
  4127  001198  0BF0               	andlw	-16
  4128  00119A  090B               	iorlw	11
  4129  00119C  6EBA               	movwf	186,c	;volatile
  4130                           
  4131                           ;MCAL_Layer/CCP1/hal_ccp1.c: 72:                         break;
  4132  00119E  EF7F  F00A         	goto	l10858
  4133  0011A2                     l10794:
  4134                           
  4135                           ; BSR set to: 0
  4136  0011A2  EE20 F008          	lfsr	2,8
  4137  0011A6  51E9               	movf	hal_ccp_init@ccpobj& (0+255),w,b
  4138  0011A8  26D9               	addwf	fsr2l,f,c
  4139  0011AA  51EA               	movf	(hal_ccp_init@ccpobj+1)& (0+255),w,b
  4140  0011AC  22DA               	addwfc	fsr2h,f,c
  4141  0011AE  50DF               	movf	indf2,w,c
  4142  0011B0  6FEB               	movwf	??_hal_ccp_init& (0+255),b
  4143  0011B2  6BEC               	clrf	(??_hal_ccp_init+1)& (0+255),b
  4144                           
  4145                           ; Switch on 2 bytes has been partitioned into a top level switch of size 1, and 1 sub-sw
      +                          itches
  4146                           ; Switch size 1, requested type "simple"
  4147                           ; Number of cases is 1, Range of values is 0 to 0
  4148                           ; switch strategies available:
  4149                           ; Name         Instructions Cycles
  4150                           ; simple_byte            4     3 (average)
  4151                           ;	Chosen strategy is simple_byte
  4152  0011B4  51EC               	movf	(??_hal_ccp_init+1)& (0+255),w,b
  4153  0011B6  0A00               	xorlw	0	; case 0
  4154  0011B8  B4D8               	btfsc	status,2,c
  4155  0011BA  EFE1  F008         	goto	l11584
  4156  0011BE  EF7A  F008         	goto	l10770
  4157  0011C2                     l11584:
  4158                           
  4159                           ; BSR set to: 0
  4160                           ; Switch size 1, requested type "simple"
  4161                           ; Number of cases is 5, Range of values is 2 to 11
  4162                           ; switch strategies available:
  4163                           ; Name         Instructions Cycles
  4164                           ; simple_byte           16     9 (average)
  4165                           ;	Chosen strategy is simple_byte
  4166  0011C2  51EB               	movf	??_hal_ccp_init& (0+255),w,b
  4167  0011C4  0A02               	xorlw	2	; case 2
  4168  0011C6  B4D8               	btfsc	status,2,c
  4169  0011C8  EFB3  F008         	goto	l10780
  4170  0011CC  0A0A               	xorlw	10	; case 8
  4171  0011CE  B4D8               	btfsc	status,2,c
  4172  0011D0  EFB9  F008         	goto	l10782
  4173  0011D4  0A01               	xorlw	1	; case 9
  4174  0011D6  B4D8               	btfsc	status,2,c
  4175  0011D8  EFBF  F008         	goto	l10784
  4176  0011DC  0A03               	xorlw	3	; case 10
  4177  0011DE  B4D8               	btfsc	status,2,c
  4178  0011E0  EFC5  F008         	goto	l10786
  4179  0011E4  0A01               	xorlw	1	; case 11
  4180  0011E6  B4D8               	btfsc	status,2,c
  4181  0011E8  EFCB  F008         	goto	l10788
  4182  0011EC  EF7A  F008         	goto	l10770
  4183  0011F0                     l10798:
  4184                           
  4185                           ; BSR set to: 0
  4186  0011F0  EE20 F007          	lfsr	2,7
  4187  0011F4  51E9               	movf	hal_ccp_init@ccpobj& (0+255),w,b
  4188  0011F6  26D9               	addwf	fsr2l,f,c
  4189  0011F8  51EA               	movf	(hal_ccp_init@ccpobj+1)& (0+255),w,b
  4190  0011FA  22DA               	addwfc	fsr2h,f,c
  4191  0011FC  04DE               	decf	postinc2,w,c
  4192  0011FE  A4D8               	btfss	status,2,c
  4193  001200  EF04  F009         	goto	u11351
  4194  001204  EF06  F009         	goto	u11350
  4195  001208                     u11351:
  4196  001208  EF9C  F009         	goto	l10838
  4197  00120C                     u11350:
  4198  00120C                     
  4199                           ; BSR set to: 0
  4200                           ;MCAL_Layer/CCP1/hal_ccp1.c: 83:             if(ccpobj->cpp_instance == ((uint8_t)0)){
  4201  00120C  EE20 F006          	lfsr	2,6
  4202  001210  51E9               	movf	hal_ccp_init@ccpobj& (0+255),w,b
  4203  001212  26D9               	addwf	fsr2l,f,c
  4204  001214  51EA               	movf	(hal_ccp_init@ccpobj+1)& (0+255),w,b
  4205  001216  22DA               	addwfc	fsr2h,f,c
  4206  001218  50DF               	movf	indf2,w,c
  4207  00121A  A4D8               	btfss	status,2,c
  4208  00121C  EF12  F009         	goto	u11361
  4209  001220  EF14  F009         	goto	u11360
  4210  001224                     u11361:
  4211  001224  EF51  F009         	goto	l10818
  4212  001228                     u11360:
  4213  001228  EF2E  F009         	goto	l10816
  4214  00122C                     l10804:
  4215                           
  4216                           ; BSR set to: 0
  4217                           ;MCAL_Layer/CCP1/hal_ccp1.c: 86:                         (CCP1CONbits.CCP1M = ((uint8_t)
      +                          4));
  4218  00122C  50BD               	movf	189,w,c	;volatile
  4219  00122E  0BF0               	andlw	-16
  4220  001230  0904               	iorlw	4
  4221  001232  6EBD               	movwf	189,c	;volatile
  4222                           
  4223                           ;MCAL_Layer/CCP1/hal_ccp1.c: 87:                         break;
  4224  001234  EF7F  F00A         	goto	l10858
  4225  001238                     l10806:
  4226                           
  4227                           ; BSR set to: 0
  4228                           ;MCAL_Layer/CCP1/hal_ccp1.c: 89:                         (CCP1CONbits.CCP1M = ((uint8_t)
      +                          5));
  4229  001238  50BD               	movf	189,w,c	;volatile
  4230  00123A  0BF0               	andlw	-16
  4231  00123C  0905               	iorlw	5
  4232  00123E  6EBD               	movwf	189,c	;volatile
  4233                           
  4234                           ;MCAL_Layer/CCP1/hal_ccp1.c: 90:                         break;
  4235  001240  EF7F  F00A         	goto	l10858
  4236  001244                     l10808:
  4237                           
  4238                           ; BSR set to: 0
  4239                           ;MCAL_Layer/CCP1/hal_ccp1.c: 92:                         (CCP1CONbits.CCP1M = ((uint8_t)
      +                          6));
  4240  001244  50BD               	movf	189,w,c	;volatile
  4241  001246  0BF0               	andlw	-16
  4242  001248  0906               	iorlw	6
  4243  00124A  6EBD               	movwf	189,c	;volatile
  4244                           
  4245                           ;MCAL_Layer/CCP1/hal_ccp1.c: 93:                         break;
  4246  00124C  EF7F  F00A         	goto	l10858
  4247  001250                     l10810:
  4248                           
  4249                           ; BSR set to: 0
  4250                           ;MCAL_Layer/CCP1/hal_ccp1.c: 95:                         (CCP1CONbits.CCP1M = ((uint8_t)
      +                          7));
  4251  001250  50BD               	movf	189,w,c	;volatile
  4252  001252  0BF0               	andlw	-16
  4253  001254  0907               	iorlw	7
  4254  001256  6EBD               	movwf	189,c	;volatile
  4255                           
  4256                           ;MCAL_Layer/CCP1/hal_ccp1.c: 96:                         break;
  4257  001258  EF7F  F00A         	goto	l10858
  4258  00125C                     l10816:
  4259                           
  4260                           ; BSR set to: 0
  4261  00125C  EE20 F008          	lfsr	2,8
  4262  001260  51E9               	movf	hal_ccp_init@ccpobj& (0+255),w,b
  4263  001262  26D9               	addwf	fsr2l,f,c
  4264  001264  51EA               	movf	(hal_ccp_init@ccpobj+1)& (0+255),w,b
  4265  001266  22DA               	addwfc	fsr2h,f,c
  4266  001268  50DF               	movf	indf2,w,c
  4267  00126A  6FEB               	movwf	??_hal_ccp_init& (0+255),b
  4268  00126C  6BEC               	clrf	(??_hal_ccp_init+1)& (0+255),b
  4269                           
  4270                           ; Switch on 2 bytes has been partitioned into a top level switch of size 1, and 1 sub-sw
      +                          itches
  4271                           ; Switch size 1, requested type "simple"
  4272                           ; Number of cases is 1, Range of values is 0 to 0
  4273                           ; switch strategies available:
  4274                           ; Name         Instructions Cycles
  4275                           ; simple_byte            4     3 (average)
  4276                           ;	Chosen strategy is simple_byte
  4277  00126E  51EC               	movf	(??_hal_ccp_init+1)& (0+255),w,b
  4278  001270  0A00               	xorlw	0	; case 0
  4279  001272  B4D8               	btfsc	status,2,c
  4280  001274  EF3E  F009         	goto	l11586
  4281  001278  EF7A  F008         	goto	l10770
  4282  00127C                     l11586:
  4283                           
  4284                           ; BSR set to: 0
  4285                           ; Switch size 1, requested type "simple"
  4286                           ; Number of cases is 4, Range of values is 4 to 7
  4287                           ; switch strategies available:
  4288                           ; Name         Instructions Cycles
  4289                           ; simple_byte           13     7 (average)
  4290                           ;	Chosen strategy is simple_byte
  4291  00127C  51EB               	movf	??_hal_ccp_init& (0+255),w,b
  4292  00127E  0A04               	xorlw	4	; case 4
  4293  001280  B4D8               	btfsc	status,2,c
  4294  001282  EF16  F009         	goto	l10804
  4295  001286  0A01               	xorlw	1	; case 5
  4296  001288  B4D8               	btfsc	status,2,c
  4297  00128A  EF1C  F009         	goto	l10806
  4298  00128E  0A03               	xorlw	3	; case 6
  4299  001290  B4D8               	btfsc	status,2,c
  4300  001292  EF22  F009         	goto	l10808
  4301  001296  0A01               	xorlw	1	; case 7
  4302  001298  B4D8               	btfsc	status,2,c
  4303  00129A  EF28  F009         	goto	l10810
  4304  00129E  EF7A  F008         	goto	l10770
  4305  0012A2                     l10818:
  4306                           
  4307                           ; BSR set to: 0
  4308  0012A2  EE20 F006          	lfsr	2,6
  4309  0012A6  51E9               	movf	hal_ccp_init@ccpobj& (0+255),w,b
  4310  0012A8  26D9               	addwf	fsr2l,f,c
  4311  0012AA  51EA               	movf	(hal_ccp_init@ccpobj+1)& (0+255),w,b
  4312  0012AC  22DA               	addwfc	fsr2h,f,c
  4313  0012AE  04DE               	decf	postinc2,w,c
  4314  0012B0  A4D8               	btfss	status,2,c
  4315  0012B2  EF5D  F009         	goto	u11371
  4316  0012B6  EF5F  F009         	goto	u11370
  4317  0012BA                     u11371:
  4318  0012BA  EF7A  F008         	goto	l10770
  4319  0012BE                     u11370:
  4320  0012BE  EF79  F009         	goto	l10834
  4321  0012C2                     l10822:
  4322                           
  4323                           ; BSR set to: 0
  4324                           ;MCAL_Layer/CCP1/hal_ccp1.c: 105:                         (CCP2CONbits.CCP2M = ((uint8_t
      +                          )4));
  4325  0012C2  50BA               	movf	186,w,c	;volatile
  4326  0012C4  0BF0               	andlw	-16
  4327  0012C6  0904               	iorlw	4
  4328  0012C8  6EBA               	movwf	186,c	;volatile
  4329                           
  4330                           ;MCAL_Layer/CCP1/hal_ccp1.c: 106:                         break;
  4331  0012CA  EF7F  F00A         	goto	l10858
  4332  0012CE                     l10824:
  4333                           
  4334                           ; BSR set to: 0
  4335                           ;MCAL_Layer/CCP1/hal_ccp1.c: 108:                         (CCP2CONbits.CCP2M = ((uint8_t
      +                          )5));
  4336  0012CE  50BA               	movf	186,w,c	;volatile
  4337  0012D0  0BF0               	andlw	-16
  4338  0012D2  0905               	iorlw	5
  4339  0012D4  6EBA               	movwf	186,c	;volatile
  4340                           
  4341                           ;MCAL_Layer/CCP1/hal_ccp1.c: 109:                         break;
  4342  0012D6  EF7F  F00A         	goto	l10858
  4343  0012DA                     l10826:
  4344                           
  4345                           ; BSR set to: 0
  4346                           ;MCAL_Layer/CCP1/hal_ccp1.c: 111:                         (CCP2CONbits.CCP2M = ((uint8_t
      +                          )6));
  4347  0012DA  50BA               	movf	186,w,c	;volatile
  4348  0012DC  0BF0               	andlw	-16
  4349  0012DE  0906               	iorlw	6
  4350  0012E0  6EBA               	movwf	186,c	;volatile
  4351                           
  4352                           ;MCAL_Layer/CCP1/hal_ccp1.c: 112:                         break;
  4353  0012E2  EF7F  F00A         	goto	l10858
  4354  0012E6                     l10828:
  4355                           
  4356                           ; BSR set to: 0
  4357                           ;MCAL_Layer/CCP1/hal_ccp1.c: 114:                         (CCP2CONbits.CCP2M = ((uint8_t
      +                          )7));
  4358  0012E6  50BA               	movf	186,w,c	;volatile
  4359  0012E8  0BF0               	andlw	-16
  4360  0012EA  0907               	iorlw	7
  4361  0012EC  6EBA               	movwf	186,c	;volatile
  4362                           
  4363                           ;MCAL_Layer/CCP1/hal_ccp1.c: 115:                         break;
  4364  0012EE  EF7F  F00A         	goto	l10858
  4365  0012F2                     l10834:
  4366                           
  4367                           ; BSR set to: 0
  4368  0012F2  EE20 F008          	lfsr	2,8
  4369  0012F6  51E9               	movf	hal_ccp_init@ccpobj& (0+255),w,b
  4370  0012F8  26D9               	addwf	fsr2l,f,c
  4371  0012FA  51EA               	movf	(hal_ccp_init@ccpobj+1)& (0+255),w,b
  4372  0012FC  22DA               	addwfc	fsr2h,f,c
  4373  0012FE  50DF               	movf	indf2,w,c
  4374  001300  6FEB               	movwf	??_hal_ccp_init& (0+255),b
  4375  001302  6BEC               	clrf	(??_hal_ccp_init+1)& (0+255),b
  4376                           
  4377                           ; Switch on 2 bytes has been partitioned into a top level switch of size 1, and 1 sub-sw
      +                          itches
  4378                           ; Switch size 1, requested type "simple"
  4379                           ; Number of cases is 1, Range of values is 0 to 0
  4380                           ; switch strategies available:
  4381                           ; Name         Instructions Cycles
  4382                           ; simple_byte            4     3 (average)
  4383                           ;	Chosen strategy is simple_byte
  4384  001304  51EC               	movf	(??_hal_ccp_init+1)& (0+255),w,b
  4385  001306  0A00               	xorlw	0	; case 0
  4386  001308  B4D8               	btfsc	status,2,c
  4387  00130A  EF89  F009         	goto	l11588
  4388  00130E  EF7A  F008         	goto	l10770
  4389  001312                     l11588:
  4390                           
  4391                           ; BSR set to: 0
  4392                           ; Switch size 1, requested type "simple"
  4393                           ; Number of cases is 4, Range of values is 4 to 7
  4394                           ; switch strategies available:
  4395                           ; Name         Instructions Cycles
  4396                           ; simple_byte           13     7 (average)
  4397                           ;	Chosen strategy is simple_byte
  4398  001312  51EB               	movf	??_hal_ccp_init& (0+255),w,b
  4399  001314  0A04               	xorlw	4	; case 4
  4400  001316  B4D8               	btfsc	status,2,c
  4401  001318  EF61  F009         	goto	l10822
  4402  00131C  0A01               	xorlw	1	; case 5
  4403  00131E  B4D8               	btfsc	status,2,c
  4404  001320  EF67  F009         	goto	l10824
  4405  001324  0A03               	xorlw	3	; case 6
  4406  001326  B4D8               	btfsc	status,2,c
  4407  001328  EF6D  F009         	goto	l10826
  4408  00132C  0A01               	xorlw	1	; case 7
  4409  00132E  B4D8               	btfsc	status,2,c
  4410  001330  EF73  F009         	goto	l10828
  4411  001334  EF7A  F008         	goto	l10770
  4412  001338                     l10838:
  4413                           
  4414                           ; BSR set to: 0
  4415  001338  EE20 F007          	lfsr	2,7
  4416  00133C  51E9               	movf	hal_ccp_init@ccpobj& (0+255),w,b
  4417  00133E  26D9               	addwf	fsr2l,f,c
  4418  001340  51EA               	movf	(hal_ccp_init@ccpobj+1)& (0+255),w,b
  4419  001342  22DA               	addwfc	fsr2h,f,c
  4420  001344  0E02               	movlw	2
  4421  001346  18DE               	xorwf	postinc2,w,c
  4422  001348  A4D8               	btfss	status,2,c
  4423  00134A  EFA9  F009         	goto	u11381
  4424  00134E  EFAB  F009         	goto	u11380
  4425  001352                     u11381:
  4426  001352  EF7A  F008         	goto	l10770
  4427  001356                     u11380:
  4428  001356                     
  4429                           ; BSR set to: 0
  4430                           ;MCAL_Layer/CCP1/hal_ccp1.c: 126:             if(ccpobj->cpp_instance == ((uint8_t)0)){
  4431  001356  EE20 F006          	lfsr	2,6
  4432  00135A  51E9               	movf	hal_ccp_init@ccpobj& (0+255),w,b
  4433  00135C  26D9               	addwf	fsr2l,f,c
  4434  00135E  51EA               	movf	(hal_ccp_init@ccpobj+1)& (0+255),w,b
  4435  001360  22DA               	addwfc	fsr2h,f,c
  4436  001362  50DF               	movf	indf2,w,c
  4437  001364  A4D8               	btfss	status,2,c
  4438  001366  EFB7  F009         	goto	u11391
  4439  00136A  EFB9  F009         	goto	u11390
  4440  00136E                     u11391:
  4441  00136E  EFBF  F009         	goto	l10844
  4442  001372                     u11390:
  4443  001372                     
  4444                           ; BSR set to: 0
  4445                           ;MCAL_Layer/CCP1/hal_ccp1.c: 127:                 (CCP1CONbits.CCP1M = ((uint8_t)12));
  4446  001372  50BD               	movf	189,w,c	;volatile
  4447  001374  0BF0               	andlw	-16
  4448  001376  090C               	iorlw	12
  4449  001378  6EBD               	movwf	189,c	;volatile
  4450                           
  4451                           ;MCAL_Layer/CCP1/hal_ccp1.c: 128:             }
  4452  00137A  EFD3  F009         	goto	l10850
  4453  00137E                     l10844:
  4454                           
  4455                           ; BSR set to: 0
  4456  00137E  EE20 F006          	lfsr	2,6
  4457  001382  51E9               	movf	hal_ccp_init@ccpobj& (0+255),w,b
  4458  001384  26D9               	addwf	fsr2l,f,c
  4459  001386  51EA               	movf	(hal_ccp_init@ccpobj+1)& (0+255),w,b
  4460  001388  22DA               	addwfc	fsr2h,f,c
  4461  00138A  04DE               	decf	postinc2,w,c
  4462  00138C  A4D8               	btfss	status,2,c
  4463  00138E  EFCB  F009         	goto	u11401
  4464  001392  EFCD  F009         	goto	u11400
  4465  001396                     u11401:
  4466  001396  EFD3  F009         	goto	l10848
  4467  00139A                     u11400:
  4468  00139A                     
  4469                           ; BSR set to: 0
  4470                           ;MCAL_Layer/CCP1/hal_ccp1.c: 130:                 (CCP2CONbits.CCP2M = ((uint8_t)12));
  4471  00139A  50BA               	movf	186,w,c	;volatile
  4472  00139C  0BF0               	andlw	-16
  4473  00139E  090C               	iorlw	12
  4474  0013A0  6EBA               	movwf	186,c	;volatile
  4475                           
  4476                           ;MCAL_Layer/CCP1/hal_ccp1.c: 131:             }
  4477  0013A2  EFD3  F009         	goto	l10850
  4478  0013A6                     l10848:
  4479  0013A6                     l10850:
  4480                           
  4481                           ; BSR set to: 0
  4482                           ;MCAL_Layer/CCP1/hal_ccp1.c: 137:             PR2 = (uint8_t)((4000000 / (ccpobj->ccp_pw
      +                          m_frequency * 4.0 * ccpobj->timer2_prescaler_value * ccpobj->timer2_postscaler_value ))-
      +                          1);
  4483  0013A6  0E00               	movlw	0
  4484  0013A8  6E20               	movwf	___flmul@a^0,c
  4485  0013AA  0E00               	movlw	0
  4486  0013AC  6E21               	movwf	(___flmul@a+1)^0,c
  4487  0013AE  0E80               	movlw	128
  4488  0013B0  6E22               	movwf	(___flmul@a+2)^0,c
  4489  0013B2  0E40               	movlw	64
  4490  0013B4  6E23               	movwf	(___flmul@a+3)^0,c
  4491  0013B6  EE20 F009          	lfsr	2,9
  4492  0013BA  51E9               	movf	hal_ccp_init@ccpobj& (0+255),w,b
  4493  0013BC  26D9               	addwf	fsr2l,f,c
  4494  0013BE  51EA               	movf	(hal_ccp_init@ccpobj+1)& (0+255),w,b
  4495  0013C0  22DA               	addwfc	fsr2h,f,c
  4496  0013C2  CFDE F00E          	movff	postinc2,___xxtofl@val
  4497  0013C6  CFDE F00F          	movff	postinc2,___xxtofl@val+1
  4498  0013CA  CFDE F010          	movff	postinc2,___xxtofl@val+2
  4499  0013CE  CFDE F011          	movff	postinc2,___xxtofl@val+3
  4500  0013D2  0E00               	movlw	0
  4501  0013D4  EC0F  F015         	call	___xxtofl
  4502  0013D8  C00E  F01C         	movff	?___xxtofl,___flmul@b
  4503  0013DC  C00F  F01D         	movff	?___xxtofl+1,___flmul@b+1
  4504  0013E0  C010  F01E         	movff	?___xxtofl+2,___flmul@b+2
  4505  0013E4  C011  F01F         	movff	?___xxtofl+3,___flmul@b+3
  4506  0013E8  EC1B  F00D         	call	___flmul	;wreg free
  4507  0013EC  C01C  F0ED         	movff	?___flmul,_hal_ccp_init$4709
  4508  0013F0  C01D  F0EE         	movff	?___flmul+1,_hal_ccp_init$4709+1
  4509  0013F4  C01E  F0EF         	movff	?___flmul+2,_hal_ccp_init$4709+2
  4510  0013F8  C01F  F0F0         	movff	?___flmul+3,_hal_ccp_init$4709+3
  4511  0013FC                     
  4512                           ;MCAL_Layer/CCP1/hal_ccp1.c: 137:             PR2 = (uint8_t)((4000000 / (ccpobj->ccp_pw
      +                          m_frequency * 4.0 * ccpobj->timer2_prescaler_value * ccpobj->timer2_postscaler_value ))-
      +                          1);
  4513  0013FC  0100               	movlb	0	; () banked
  4514  0013FE  EE20 F00D          	lfsr	2,13
  4515  001402  51E9               	movf	hal_ccp_init@ccpobj& (0+255),w,b
  4516  001404  26D9               	addwf	fsr2l,f,c
  4517  001406  51EA               	movf	(hal_ccp_init@ccpobj+1)& (0+255),w,b
  4518  001408  22DA               	addwfc	fsr2h,f,c
  4519  00140A  50DF               	movf	223,w,c
  4520  00140C  0B03               	andlw	3
  4521  00140E  6FEB               	movwf	??_hal_ccp_init& (0+255),b
  4522  001410  51EB               	movf	??_hal_ccp_init& (0+255),w,b
  4523  001412  6E0E               	movwf	___xxtofl@val^0,c
  4524  001414  6A0F               	clrf	(___xxtofl@val+1)^0,c
  4525  001416  6A10               	clrf	(___xxtofl@val+2)^0,c
  4526  001418  6A11               	clrf	(___xxtofl@val+3)^0,c
  4527  00141A  0E01               	movlw	1
  4528  00141C  EC0F  F015         	call	___xxtofl
  4529  001420  C00E  F020         	movff	?___xxtofl,___flmul@a
  4530  001424  C00F  F021         	movff	?___xxtofl+1,___flmul@a+1
  4531  001428  C010  F022         	movff	?___xxtofl+2,___flmul@a+2
  4532  00142C  C011  F023         	movff	?___xxtofl+3,___flmul@a+3
  4533  001430  C0ED  F01C         	movff	_hal_ccp_init$4709,___flmul@b
  4534  001434  C0EE  F01D         	movff	_hal_ccp_init$4709+1,___flmul@b+1
  4535  001438  C0EF  F01E         	movff	_hal_ccp_init$4709+2,___flmul@b+2
  4536  00143C  C0F0  F01F         	movff	_hal_ccp_init$4709+3,___flmul@b+3
  4537  001440  EC1B  F00D         	call	___flmul	;wreg free
  4538  001444  C01C  F0F1         	movff	?___flmul,_hal_ccp_init$4710
  4539  001448  C01D  F0F2         	movff	?___flmul+1,_hal_ccp_init$4710+1
  4540  00144C  C01E  F0F3         	movff	?___flmul+2,_hal_ccp_init$4710+2
  4541  001450  C01F  F0F4         	movff	?___flmul+3,_hal_ccp_init$4710+3
  4542  001454                     
  4543                           ;MCAL_Layer/CCP1/hal_ccp1.c: 137:             PR2 = (uint8_t)((4000000 / (ccpobj->ccp_pw
      +                          m_frequency * 4.0 * ccpobj->timer2_prescaler_value * ccpobj->timer2_postscaler_value ))-
      +                          1);
  4544  001454  0E00               	movlw	0
  4545  001456  6E52               	movwf	___fladd@a^0,c
  4546  001458  0E00               	movlw	0
  4547  00145A  6E53               	movwf	(___fladd@a+1)^0,c
  4548  00145C  0E80               	movlw	128
  4549  00145E  6E54               	movwf	(___fladd@a+2)^0,c
  4550  001460  0EBF               	movlw	191
  4551  001462  6E55               	movwf	(___fladd@a+3)^0,c
  4552  001464  0100               	movlb	0	; () banked
  4553  001466  EE20 F00D          	lfsr	2,13
  4554  00146A  51E9               	movf	hal_ccp_init@ccpobj& (0+255),w,b
  4555  00146C  26D9               	addwf	fsr2l,f,c
  4556  00146E  51EA               	movf	(hal_ccp_init@ccpobj+1)& (0+255),w,b
  4557  001470  22DA               	addwfc	fsr2h,f,c
  4558  001472  30DF               	rrcf	223,w,c
  4559  001474  32E8               	rrcf	wreg,f,c
  4560  001476  0B0F               	andlw	15
  4561  001478  6FEB               	movwf	??_hal_ccp_init& (0+255),b
  4562  00147A  51EB               	movf	??_hal_ccp_init& (0+255),w,b
  4563  00147C  6E0E               	movwf	___xxtofl@val^0,c
  4564  00147E  6A0F               	clrf	(___xxtofl@val+1)^0,c
  4565  001480  6A10               	clrf	(___xxtofl@val+2)^0,c
  4566  001482  6A11               	clrf	(___xxtofl@val+3)^0,c
  4567  001484  0E01               	movlw	1
  4568  001486  EC0F  F015         	call	___xxtofl
  4569  00148A  C00E  F020         	movff	?___xxtofl,___flmul@a
  4570  00148E  C00F  F021         	movff	?___xxtofl+1,___flmul@a+1
  4571  001492  C010  F022         	movff	?___xxtofl+2,___flmul@a+2
  4572  001496  C011  F023         	movff	?___xxtofl+3,___flmul@a+3
  4573  00149A  C0F1  F01C         	movff	_hal_ccp_init$4710,___flmul@b
  4574  00149E  C0F2  F01D         	movff	_hal_ccp_init$4710+1,___flmul@b+1
  4575  0014A2  C0F3  F01E         	movff	_hal_ccp_init$4710+2,___flmul@b+2
  4576  0014A6  C0F4  F01F         	movff	_hal_ccp_init$4710+3,___flmul@b+3
  4577  0014AA  EC1B  F00D         	call	___flmul	;wreg free
  4578  0014AE  C01C  F039         	movff	?___flmul,___fldiv@a
  4579  0014B2  C01D  F03A         	movff	?___flmul+1,___fldiv@a+1
  4580  0014B6  C01E  F03B         	movff	?___flmul+2,___fldiv@a+2
  4581  0014BA  C01F  F03C         	movff	?___flmul+3,___fldiv@a+3
  4582  0014BE  0E00               	movlw	0
  4583  0014C0  6E35               	movwf	___fldiv@b^0,c
  4584  0014C2  0E24               	movlw	36
  4585  0014C4  6E36               	movwf	(___fldiv@b+1)^0,c
  4586  0014C6  0E74               	movlw	116
  4587  0014C8  6E37               	movwf	(___fldiv@b+2)^0,c
  4588  0014CA  0E4A               	movlw	74
  4589  0014CC  6E38               	movwf	(___fldiv@b+3)^0,c
  4590  0014CE  EC30  F00F         	call	___fldiv	;wreg free
  4591  0014D2  C035  F04E         	movff	?___fldiv,___fladd@b
  4592  0014D6  C036  F04F         	movff	?___fldiv+1,___fladd@b+1
  4593  0014DA  C037  F050         	movff	?___fldiv+2,___fladd@b+2
  4594  0014DE  C038  F051         	movff	?___fldiv+3,___fladd@b+3
  4595  0014E2  ECBB  F00A         	call	___fladd	;wreg free
  4596  0014E6  C04E  F05E         	movff	?___fladd,___fltol@f1
  4597  0014EA  C04F  F05F         	movff	?___fladd+1,___fltol@f1+1
  4598  0014EE  C050  F060         	movff	?___fladd+2,___fltol@f1+2
  4599  0014F2  C051  F061         	movff	?___fladd+3,___fltol@f1+3
  4600  0014F6  ECAB  F01A         	call	___fltol	;wreg free
  4601  0014FA  505E               	movf	?___fltol^0,w,c
  4602  0014FC  6ECB               	movwf	203,c	;volatile
  4603  0014FE                     l10858:
  4604                           
  4605                           ;MCAL_Layer/CCP1/hal_ccp1.c: 144:         if(ccpobj->cpp_instance == ((uint8_t)0)){
  4606  0014FE  0100               	movlb	0	; () banked
  4607  001500  EE20 F006          	lfsr	2,6
  4608  001504  51E9               	movf	hal_ccp_init@ccpobj& (0+255),w,b
  4609  001506  26D9               	addwf	fsr2l,f,c
  4610  001508  51EA               	movf	(hal_ccp_init@ccpobj+1)& (0+255),w,b
  4611  00150A  22DA               	addwfc	fsr2h,f,c
  4612  00150C  50DF               	movf	indf2,w,c
  4613  00150E  A4D8               	btfss	status,2,c
  4614  001510  EF8C  F00A         	goto	u11411
  4615  001514  EF8E  F00A         	goto	u11410
  4616  001518                     u11411:
  4617  001518  EF9A  F00A         	goto	l10864
  4618  00151C                     u11410:
  4619  00151C                     
  4620                           ; BSR set to: 0
  4621                           ;MCAL_Layer/CCP1/hal_ccp1.c: 145:             (PIE1bits.CCP1IE = 1);
  4622  00151C  849D               	bsf	157,2,c	;volatile
  4623                           
  4624                           ;MCAL_Layer/CCP1/hal_ccp1.c: 146:             (PIR1bits.CCP1IF = 0);
  4625  00151E  949E               	bcf	158,2,c	;volatile
  4626  001520                     
  4627                           ; BSR set to: 0
  4628                           ;MCAL_Layer/CCP1/hal_ccp1.c: 147:             CCP1_InterruptHandler = ccpobj->CCP1_Handl
      +                          er;
  4629  001520  C0E9  FFD9         	movff	hal_ccp_init@ccpobj,fsr2l
  4630  001524  C0EA  FFDA         	movff	hal_ccp_init@ccpobj+1,fsr2h
  4631  001528  CFDE F090          	movff	postinc2,_CCP1_InterruptHandler
  4632  00152C  CFDD F091          	movff	postdec2,_CCP1_InterruptHandler+1
  4633                           
  4634                           ;MCAL_Layer/CCP1/hal_ccp1.c: 148:         }
  4635  001530  EFB6  F00A         	goto	l10872
  4636  001534                     l10864:
  4637                           
  4638                           ; BSR set to: 0
  4639  001534  EE20 F006          	lfsr	2,6
  4640  001538  51E9               	movf	hal_ccp_init@ccpobj& (0+255),w,b
  4641  00153A  26D9               	addwf	fsr2l,f,c
  4642  00153C  51EA               	movf	(hal_ccp_init@ccpobj+1)& (0+255),w,b
  4643  00153E  22DA               	addwfc	fsr2h,f,c
  4644  001540  04DE               	decf	postinc2,w,c
  4645  001542  A4D8               	btfss	status,2,c
  4646  001544  EFA6  F00A         	goto	u11421
  4647  001548  EFA8  F00A         	goto	u11420
  4648  00154C                     u11421:
  4649  00154C  EFB6  F00A         	goto	l10870
  4650  001550                     u11420:
  4651  001550                     
  4652                           ; BSR set to: 0
  4653                           ;MCAL_Layer/CCP1/hal_ccp1.c: 150:             (PIE2bits.CCP2IE = 1);
  4654  001550  80A0               	bsf	160,0,c	;volatile
  4655                           
  4656                           ;MCAL_Layer/CCP1/hal_ccp1.c: 151:             (PIR2bits.CCP2IF = 0);
  4657  001552  90A1               	bcf	161,0,c	;volatile
  4658  001554                     
  4659                           ; BSR set to: 0
  4660                           ;MCAL_Layer/CCP1/hal_ccp1.c: 152:             CCP2_InterruptHandler = ccpobj->CCP2_Handl
      +                          er;
  4661  001554  EE20 F002          	lfsr	2,2
  4662  001558  51E9               	movf	hal_ccp_init@ccpobj& (0+255),w,b
  4663  00155A  26D9               	addwf	fsr2l,f,c
  4664  00155C  51EA               	movf	(hal_ccp_init@ccpobj+1)& (0+255),w,b
  4665  00155E  22DA               	addwfc	fsr2h,f,c
  4666  001560  CFDE F08E          	movff	postinc2,_CCP2_InterruptHandler
  4667  001564  CFDD F08F          	movff	postdec2,_CCP2_InterruptHandler+1
  4668                           
  4669                           ;MCAL_Layer/CCP1/hal_ccp1.c: 153:         }
  4670  001568  EFB6  F00A         	goto	l10872
  4671  00156C                     l10870:
  4672  00156C                     l10872:
  4673                           
  4674                           ; BSR set to: 0
  4675                           ;MCAL_Layer/CCP1/hal_ccp1.c: 191:         (INTCONbits.GIE = 1);
  4676  00156C  8EF2               	bsf	242,7,c	;volatile
  4677  00156E                     
  4678                           ; BSR set to: 0
  4679                           ;MCAL_Layer/CCP1/hal_ccp1.c: 192:         (INTCONbits.PEIE = 1);
  4680  00156E  8CF2               	bsf	242,6,c	;volatile
  4681                           
  4682                           ;MCAL_Layer/CCP1/hal_ccp1.c: 195:     }
  4683  001570  EFBA  F00A         	goto	l1531
  4684  001574                     l10876:
  4685  001574                     l1531:
  4686                           
  4687                           ; BSR set to: 0
  4688  001574  0012               	return		;funcret
  4689  001576                     __end_of_hal_ccp_init:
  4690                           	callstack 0
  4691                           
  4692 ;; *************** function ___xxtofl *****************
  4693 ;; Defined at:
  4694 ;;		line 10 in file "C:\Program Files\Microchip\xc8\v2.36\pic\sources\c99\common\xxtofl.c"
  4695 ;; Parameters:    Size  Location     Type
  4696 ;;  sign            1    wreg     unsigned char 
  4697 ;;  val             4   13[COMRAM] long 
  4698 ;; Auto vars:     Size  Location     Type
  4699 ;;  sign            1   21[COMRAM] unsigned char 
  4700 ;;  arg             4   23[COMRAM] unsigned long 
  4701 ;;  exp             1   22[COMRAM] unsigned char 
  4702 ;; Return value:  Size  Location     Type
  4703 ;;                  4   13[COMRAM] unsigned char 
  4704 ;; Registers used:
  4705 ;;		wreg, status,2, status,0
  4706 ;; Tracked objects:
  4707 ;;		On entry : 0/0
  4708 ;;		On exit  : 0/0
  4709 ;;		Unchanged: 0/0
  4710 ;; Data sizes:     COMRAM   BANK0   BANK1   BANK2   BANK3   BANK4   BANK5   BANK6   BANK7   BANK8   BANK9  BANK10  BANK1
      +1  BANK12  BANK13  BANK14  BANK15
  4711 ;;      Params:         4       0       0       0       0       0       0       0       0       0       0       0       
      +0       0       0       0       0
  4712 ;;      Locals:         6       0       0       0       0       0       0       0       0       0       0       0       
      +0       0       0       0       0
  4713 ;;      Temps:          4       0       0       0       0       0       0       0       0       0       0       0       
      +0       0       0       0       0
  4714 ;;      Totals:        14       0       0       0       0       0       0       0       0       0       0       0       
      +0       0       0       0       0
  4715 ;;Total ram usage:       14 bytes
  4716 ;; Hardware stack levels used: 1
  4717 ;; Hardware stack levels required when called: 4
  4718 ;; This function calls:
  4719 ;;		Nothing
  4720 ;; This function is called by:
  4721 ;;		_main
  4722 ;;		_hal_ccp_init
  4723 ;;		_hal_ccp_setPWMDuty
  4724 ;; This function uses a non-reentrant model
  4725 ;;
  4726                           
  4727                           	psect	text22
  4728  002A1E                     __ptext22:
  4729                           	callstack 0
  4730  002A1E                     ___xxtofl:
  4731                           	callstack 25
  4732                           
  4733                           ; BSR set to: 0
  4734                           ;incstack = 0
  4735                           ;___xxtofl@sign stored from wreg
  4736  002A1E  6E16               	movwf	___xxtofl@sign^0,c
  4737  002A20  5016               	movf	___xxtofl@sign^0,w,c
  4738  002A22  B4D8               	btfsc	status,2,c
  4739  002A24  EF16  F015         	goto	u11061
  4740  002A28  EF18  F015         	goto	u11060
  4741  002A2C                     u11061:
  4742  002A2C  EF3A  F015         	goto	l2263
  4743  002A30                     u11060:
  4744  002A30  BE11               	btfsc	(___xxtofl@val+3)^0,7,c
  4745  002A32  EF1F  F015         	goto	u11070
  4746  002A36  EF1D  F015         	goto	u11071
  4747  002A3A                     u11071:
  4748  002A3A  EF3A  F015         	goto	l2263
  4749  002A3E                     u11070:
  4750  002A3E  C00E  F012         	movff	___xxtofl@val,??___xxtofl
  4751  002A42  C00F  F013         	movff	___xxtofl@val+1,??___xxtofl+1
  4752  002A46  C010  F014         	movff	___xxtofl@val+2,??___xxtofl+2
  4753  002A4A  C011  F015         	movff	___xxtofl@val+3,??___xxtofl+3
  4754  002A4E  1E12               	comf	??___xxtofl^0,f,c
  4755  002A50  1E13               	comf	(??___xxtofl+1)^0,f,c
  4756  002A52  1E14               	comf	(??___xxtofl+2)^0,f,c
  4757  002A54  1E15               	comf	(??___xxtofl+3)^0,f,c
  4758  002A56  2A12               	incf	??___xxtofl^0,f,c
  4759  002A58  0E00               	movlw	0
  4760  002A5A  2213               	addwfc	(??___xxtofl+1)^0,f,c
  4761  002A5C  2214               	addwfc	(??___xxtofl+2)^0,f,c
  4762  002A5E  2215               	addwfc	(??___xxtofl+3)^0,f,c
  4763  002A60  C012  F018         	movff	??___xxtofl,___xxtofl@arg
  4764  002A64  C013  F019         	movff	??___xxtofl+1,___xxtofl@arg+1
  4765  002A68  C014  F01A         	movff	??___xxtofl+2,___xxtofl@arg+2
  4766  002A6C  C015  F01B         	movff	??___xxtofl+3,___xxtofl@arg+3
  4767  002A70  EF42  F015         	goto	l10510
  4768  002A74                     l2263:
  4769  002A74  C00E  F018         	movff	___xxtofl@val,___xxtofl@arg
  4770  002A78  C00F  F019         	movff	___xxtofl@val+1,___xxtofl@arg+1
  4771  002A7C  C010  F01A         	movff	___xxtofl@val+2,___xxtofl@arg+2
  4772  002A80  C011  F01B         	movff	___xxtofl@val+3,___xxtofl@arg+3
  4773  002A84                     l10510:
  4774  002A84  500E               	movf	___xxtofl@val^0,w,c
  4775  002A86  100F               	iorwf	(___xxtofl@val+1)^0,w,c
  4776  002A88  1010               	iorwf	(___xxtofl@val+2)^0,w,c
  4777  002A8A  1011               	iorwf	(___xxtofl@val+3)^0,w,c
  4778  002A8C  A4D8               	btfss	status,2,c
  4779  002A8E  EF4B  F015         	goto	u11081
  4780  002A92  EF4D  F015         	goto	u11080
  4781  002A96                     u11081:
  4782  002A96  EF57  F015         	goto	l10516
  4783  002A9A                     u11080:
  4784  002A9A  0E00               	movlw	0
  4785  002A9C  6E0E               	movwf	?___xxtofl^0,c
  4786  002A9E  0E00               	movlw	0
  4787  002AA0  6E0F               	movwf	(?___xxtofl+1)^0,c
  4788  002AA2  0E00               	movlw	0
  4789  002AA4  6E10               	movwf	(?___xxtofl+2)^0,c
  4790  002AA6  0E00               	movlw	0
  4791  002AA8  6E11               	movwf	(?___xxtofl+3)^0,c
  4792  002AAA  EFE8  F015         	goto	l2266
  4793  002AAE                     l10516:
  4794  002AAE  0E96               	movlw	150
  4795  002AB0  6E17               	movwf	___xxtofl@exp^0,c
  4796  002AB2  EF61  F015         	goto	l10520
  4797  002AB6                     l10518:
  4798  002AB6  2A17               	incf	___xxtofl@exp^0,f,c
  4799  002AB8  90D8               	bcf	status,0,c
  4800  002ABA  321B               	rrcf	(___xxtofl@arg+3)^0,f,c
  4801  002ABC  321A               	rrcf	(___xxtofl@arg+2)^0,f,c
  4802  002ABE  3219               	rrcf	(___xxtofl@arg+1)^0,f,c
  4803  002AC0  3218               	rrcf	___xxtofl@arg^0,f,c
  4804  002AC2                     l10520:
  4805  002AC2  0E00               	movlw	0
  4806  002AC4  1418               	andwf	___xxtofl@arg^0,w,c
  4807  002AC6  6E12               	movwf	??___xxtofl^0,c
  4808  002AC8  0E00               	movlw	0
  4809  002ACA  1419               	andwf	(___xxtofl@arg+1)^0,w,c
  4810  002ACC  6E13               	movwf	(??___xxtofl+1)^0,c
  4811  002ACE  0E00               	movlw	0
  4812  002AD0  141A               	andwf	(___xxtofl@arg+2)^0,w,c
  4813  002AD2  6E14               	movwf	(??___xxtofl+2)^0,c
  4814  002AD4  0EFE               	movlw	254
  4815  002AD6  141B               	andwf	(___xxtofl@arg+3)^0,w,c
  4816  002AD8  6E15               	movwf	(??___xxtofl+3)^0,c
  4817  002ADA  5012               	movf	??___xxtofl^0,w,c
  4818  002ADC  1013               	iorwf	(??___xxtofl+1)^0,w,c
  4819  002ADE  1014               	iorwf	(??___xxtofl+2)^0,w,c
  4820  002AE0  1015               	iorwf	(??___xxtofl+3)^0,w,c
  4821  002AE2  A4D8               	btfss	status,2,c
  4822  002AE4  EF76  F015         	goto	u11091
  4823  002AE8  EF78  F015         	goto	u11090
  4824  002AEC                     u11091:
  4825  002AEC  EF5B  F015         	goto	l10518
  4826  002AF0                     u11090:
  4827  002AF0  EF86  F015         	goto	l2270
  4828  002AF4                     l10522:
  4829  002AF4  2A17               	incf	___xxtofl@exp^0,f,c
  4830  002AF6  0E01               	movlw	1
  4831  002AF8  2618               	addwf	___xxtofl@arg^0,f,c
  4832  002AFA  0E00               	movlw	0
  4833  002AFC  2219               	addwfc	(___xxtofl@arg+1)^0,f,c
  4834  002AFE  221A               	addwfc	(___xxtofl@arg+2)^0,f,c
  4835  002B00  221B               	addwfc	(___xxtofl@arg+3)^0,f,c
  4836  002B02  90D8               	bcf	status,0,c
  4837  002B04  321B               	rrcf	(___xxtofl@arg+3)^0,f,c
  4838  002B06  321A               	rrcf	(___xxtofl@arg+2)^0,f,c
  4839  002B08  3219               	rrcf	(___xxtofl@arg+1)^0,f,c
  4840  002B0A  3218               	rrcf	___xxtofl@arg^0,f,c
  4841  002B0C                     l2270:
  4842  002B0C  0E00               	movlw	0
  4843  002B0E  1418               	andwf	___xxtofl@arg^0,w,c
  4844  002B10  6E12               	movwf	??___xxtofl^0,c
  4845  002B12  0E00               	movlw	0
  4846  002B14  1419               	andwf	(___xxtofl@arg+1)^0,w,c
  4847  002B16  6E13               	movwf	(??___xxtofl+1)^0,c
  4848  002B18  0E00               	movlw	0
  4849  002B1A  141A               	andwf	(___xxtofl@arg+2)^0,w,c
  4850  002B1C  6E14               	movwf	(??___xxtofl+2)^0,c
  4851  002B1E  0EFF               	movlw	255
  4852  002B20  141B               	andwf	(___xxtofl@arg+3)^0,w,c
  4853  002B22  6E15               	movwf	(??___xxtofl+3)^0,c
  4854  002B24  5012               	movf	??___xxtofl^0,w,c
  4855  002B26  1013               	iorwf	(??___xxtofl+1)^0,w,c
  4856  002B28  1014               	iorwf	(??___xxtofl+2)^0,w,c
  4857  002B2A  1015               	iorwf	(??___xxtofl+3)^0,w,c
  4858  002B2C  A4D8               	btfss	status,2,c
  4859  002B2E  EF9B  F015         	goto	u11101
  4860  002B32  EF9D  F015         	goto	u11100
  4861  002B36                     u11101:
  4862  002B36  EF7A  F015         	goto	l10522
  4863  002B3A                     u11100:
  4864  002B3A  EFA5  F015         	goto	l10530
  4865  002B3E                     l10528:
  4866  002B3E  0617               	decf	___xxtofl@exp^0,f,c
  4867  002B40  90D8               	bcf	status,0,c
  4868  002B42  3618               	rlcf	___xxtofl@arg^0,f,c
  4869  002B44  3619               	rlcf	(___xxtofl@arg+1)^0,f,c
  4870  002B46  361A               	rlcf	(___xxtofl@arg+2)^0,f,c
  4871  002B48  361B               	rlcf	(___xxtofl@arg+3)^0,f,c
  4872  002B4A                     l10530:
  4873  002B4A  BE1A               	btfsc	(___xxtofl@arg+2)^0,7,c
  4874  002B4C  EFAA  F015         	goto	u11111
  4875  002B50  EFAC  F015         	goto	u11110
  4876  002B54                     u11111:
  4877  002B54  EFB4  F015         	goto	l2277
  4878  002B58                     u11110:
  4879  002B58  0E02               	movlw	2
  4880  002B5A  6017               	cpfslt	___xxtofl@exp^0,c
  4881  002B5C  EFB2  F015         	goto	u11121
  4882  002B60  EFB4  F015         	goto	u11120
  4883  002B64                     u11121:
  4884  002B64  EF9F  F015         	goto	l10528
  4885  002B68                     u11120:
  4886  002B68                     l2277:
  4887  002B68  B017               	btfsc	___xxtofl@exp^0,0,c
  4888  002B6A  EFB9  F015         	goto	u11131
  4889  002B6E  EFBB  F015         	goto	u11130
  4890  002B72                     u11131:
  4891  002B72  EFBC  F015         	goto	l10536
  4892  002B76                     u11130:
  4893  002B76  9E1A               	bcf	(___xxtofl@arg+2)^0,7,c
  4894  002B78                     l10536:
  4895  002B78  90D8               	bcf	status,0,c
  4896  002B7A  3217               	rrcf	___xxtofl@exp^0,f,c
  4897  002B7C  C017  F012         	movff	___xxtofl@exp,??___xxtofl
  4898  002B80  6A13               	clrf	(??___xxtofl+1)^0,c
  4899  002B82  6A14               	clrf	(??___xxtofl+2)^0,c
  4900  002B84  6A15               	clrf	(??___xxtofl+3)^0,c
  4901  002B86  C012  F015         	movff	??___xxtofl,??___xxtofl+3
  4902  002B8A  6A14               	clrf	(??___xxtofl+2)^0,c
  4903  002B8C  6A13               	clrf	(??___xxtofl+1)^0,c
  4904  002B8E  6A12               	clrf	??___xxtofl^0,c
  4905  002B90  5012               	movf	??___xxtofl^0,w,c
  4906  002B92  1218               	iorwf	___xxtofl@arg^0,f,c
  4907  002B94  5013               	movf	(??___xxtofl+1)^0,w,c
  4908  002B96  1219               	iorwf	(___xxtofl@arg+1)^0,f,c
  4909  002B98  5014               	movf	(??___xxtofl+2)^0,w,c
  4910  002B9A  121A               	iorwf	(___xxtofl@arg+2)^0,f,c
  4911  002B9C  5015               	movf	(??___xxtofl+3)^0,w,c
  4912  002B9E  121B               	iorwf	(___xxtofl@arg+3)^0,f,c
  4913  002BA0  5016               	movf	___xxtofl@sign^0,w,c
  4914  002BA2  B4D8               	btfsc	status,2,c
  4915  002BA4  EFD6  F015         	goto	u11141
  4916  002BA8  EFD8  F015         	goto	u11140
  4917  002BAC                     u11141:
  4918  002BAC  EFE0  F015         	goto	l10546
  4919  002BB0                     u11140:
  4920  002BB0  BE11               	btfsc	(___xxtofl@val+3)^0,7,c
  4921  002BB2  EFDF  F015         	goto	u11150
  4922  002BB6  EFDD  F015         	goto	u11151
  4923  002BBA                     u11151:
  4924  002BBA  EFE0  F015         	goto	l10546
  4925  002BBE                     u11150:
  4926  002BBE  8E1B               	bsf	(___xxtofl@arg+3)^0,7,c
  4927  002BC0                     l10546:
  4928  002BC0  C018  F00E         	movff	___xxtofl@arg,?___xxtofl
  4929  002BC4  C019  F00F         	movff	___xxtofl@arg+1,?___xxtofl+1
  4930  002BC8  C01A  F010         	movff	___xxtofl@arg+2,?___xxtofl+2
  4931  002BCC  C01B  F011         	movff	___xxtofl@arg+3,?___xxtofl+3
  4932  002BD0                     l2266:
  4933  002BD0  0012               	return		;funcret
  4934  002BD2                     __end_of___xxtofl:
  4935                           	callstack 0
  4936                           
  4937 ;; *************** function ___fltol *****************
  4938 ;; Defined at:
  4939 ;;		line 43 in file "C:\Program Files\Microchip\xc8\v2.36\pic\sources\c99\common\fltol.c"
  4940 ;; Parameters:    Size  Location     Type
  4941 ;;  f1              4   93[COMRAM] unsigned char 
  4942 ;; Auto vars:     Size  Location     Type
  4943 ;;  exp1            1   98[COMRAM] unsigned char 
  4944 ;;  sign1           1   97[COMRAM] unsigned char 
  4945 ;; Return value:  Size  Location     Type
  4946 ;;                  4   93[COMRAM] long 
  4947 ;; Registers used:
  4948 ;;		wreg, status,2, status,0
  4949 ;; Tracked objects:
  4950 ;;		On entry : 0/0
  4951 ;;		On exit  : 0/0
  4952 ;;		Unchanged: 0/0
  4953 ;; Data sizes:     COMRAM   BANK0   BANK1   BANK2   BANK3   BANK4   BANK5   BANK6   BANK7   BANK8   BANK9  BANK10  BANK1
      +1  BANK12  BANK13  BANK14  BANK15
  4954 ;;      Params:         4       0       0       0       0       0       0       0       0       0       0       0       
      +0       0       0       0       0
  4955 ;;      Locals:         2       0       0       0       0       0       0       0       0       0       0       0       
      +0       0       0       0       0
  4956 ;;      Temps:          0       4       0       0       0       0       0       0       0       0       0       0       
      +0       0       0       0       0
  4957 ;;      Totals:         6       4       0       0       0       0       0       0       0       0       0       0       
      +0       0       0       0       0
  4958 ;;Total ram usage:       10 bytes
  4959 ;; Hardware stack levels used: 1
  4960 ;; Hardware stack levels required when called: 4
  4961 ;; This function calls:
  4962 ;;		Nothing
  4963 ;; This function is called by:
  4964 ;;		_main
  4965 ;;		_hal_ccp_init
  4966 ;;		_hal_ccp_setPWMDuty
  4967 ;; This function uses a non-reentrant model
  4968 ;;
  4969                           
  4970                           	psect	text23
  4971  003556                     __ptext23:
  4972                           	callstack 0
  4973  003556                     ___fltol:
  4974                           	callstack 25
  4975  003556  3460               	rlcf	(___fltol@f1+2)^0,w,c
  4976  003558  3461               	rlcf	(___fltol@f1+3)^0,w,c
  4977  00355A  6E63               	movwf	___fltol@exp1^0,c
  4978  00355C  5063               	movf	___fltol@exp1^0,w,c
  4979  00355E  A4D8               	btfss	status,2,c
  4980  003560  EFB4  F01A         	goto	u10991
  4981  003564  EFB6  F01A         	goto	u10990
  4982  003568                     u10991:
  4983  003568  EFC0  F01A         	goto	l10466
  4984  00356C                     u10990:
  4985  00356C                     l10462:
  4986  00356C  0E00               	movlw	0
  4987  00356E  6E5E               	movwf	?___fltol^0,c
  4988  003570  0E00               	movlw	0
  4989  003572  6E5F               	movwf	(?___fltol+1)^0,c
  4990  003574  0E00               	movlw	0
  4991  003576  6E60               	movwf	(?___fltol+2)^0,c
  4992  003578  0E00               	movlw	0
  4993  00357A  6E61               	movwf	(?___fltol+3)^0,c
  4994  00357C  EF2E  F01B         	goto	l1905
  4995  003580                     l10466:
  4996  003580  C05E  F0E5         	movff	___fltol@f1,??___fltol
  4997  003584  C05F  F0E6         	movff	___fltol@f1+1,??___fltol+1
  4998  003588  C060  F0E7         	movff	___fltol@f1+2,??___fltol+2
  4999  00358C  C061  F0E8         	movff	___fltol@f1+3,??___fltol+3
  5000  003590  0E20               	movlw	32
  5001  003592  EFD1  F01A         	goto	u11000
  5002  003596                     u11005:
  5003  003596  0100               	movlb	0	; () banked
  5004  003598  90D8               	bcf	status,0,c
  5005  00359A  33E8               	rrcf	(??___fltol+3)& (0+255),f,b
  5006  00359C  33E7               	rrcf	(??___fltol+2)& (0+255),f,b
  5007  00359E  33E6               	rrcf	(??___fltol+1)& (0+255),f,b
  5008  0035A0  33E5               	rrcf	??___fltol& (0+255),f,b
  5009  0035A2                     u11000:
  5010  0035A2  2EE8               	decfsz	wreg,f,c
  5011  0035A4  EFCB  F01A         	goto	u11005
  5012  0035A8  51E5               	movf	??___fltol& (0+255),w,b
  5013  0035AA  6E62               	movwf	___fltol@sign1^0,c
  5014  0035AC                     
  5015                           ; BSR set to: 0
  5016  0035AC  8E60               	bsf	(___fltol@f1+2)^0,7,c
  5017  0035AE                     
  5018                           ; BSR set to: 0
  5019  0035AE  0EFF               	movlw	255
  5020  0035B0  165E               	andwf	___fltol@f1^0,f,c
  5021  0035B2  0EFF               	movlw	255
  5022  0035B4  165F               	andwf	(___fltol@f1+1)^0,f,c
  5023  0035B6  0EFF               	movlw	255
  5024  0035B8  1660               	andwf	(___fltol@f1+2)^0,f,c
  5025  0035BA  0E00               	movlw	0
  5026  0035BC  1661               	andwf	(___fltol@f1+3)^0,f,c
  5027  0035BE                     
  5028                           ; BSR set to: 0
  5029  0035BE  0E96               	movlw	150
  5030  0035C0  5E63               	subwf	___fltol@exp1^0,f,c
  5031  0035C2                     
  5032                           ; BSR set to: 0
  5033  0035C2  BE63               	btfsc	___fltol@exp1^0,7,c
  5034  0035C4  EFE8  F01A         	goto	u11010
  5035  0035C8  EFE6  F01A         	goto	u11011
  5036  0035CC                     u11011:
  5037  0035CC  EFFE  F01A         	goto	l10486
  5038  0035D0                     u11010:
  5039  0035D0                     
  5040                           ; BSR set to: 0
  5041  0035D0  5063               	movf	___fltol@exp1^0,w,c
  5042  0035D2  0A80               	xorlw	128
  5043  0035D4  0F97               	addlw	151
  5044  0035D6  B0D8               	btfsc	status,0,c
  5045  0035D8  EFF0  F01A         	goto	u11021
  5046  0035DC  EFF2  F01A         	goto	u11020
  5047  0035E0                     u11021:
  5048  0035E0  EFF4  F01A         	goto	l10482
  5049  0035E4                     u11020:
  5050  0035E4  EFB6  F01A         	goto	l10462
  5051  0035E8                     l10482:
  5052  0035E8  90D8               	bcf	status,0,c
  5053  0035EA  3261               	rrcf	(___fltol@f1+3)^0,f,c
  5054  0035EC  3260               	rrcf	(___fltol@f1+2)^0,f,c
  5055  0035EE  325F               	rrcf	(___fltol@f1+1)^0,f,c
  5056  0035F0  325E               	rrcf	___fltol@f1^0,f,c
  5057  0035F2  3E63               	incfsz	___fltol@exp1^0,f,c
  5058  0035F4  EFF4  F01A         	goto	l10482
  5059  0035F8  EF16  F01B         	goto	l10496
  5060  0035FC                     l10486:
  5061                           
  5062                           ; BSR set to: 0
  5063  0035FC  0E1F               	movlw	31
  5064  0035FE  6463               	cpfsgt	___fltol@exp1^0,c
  5065  003600  EF04  F01B         	goto	u11031
  5066  003604  EF06  F01B         	goto	u11030
  5067  003608                     u11031:
  5068  003608  EF0E  F01B         	goto	l10494
  5069  00360C                     u11030:
  5070  00360C  EFB6  F01A         	goto	l10462
  5071  003610                     l10492:
  5072  003610  90D8               	bcf	status,0,c
  5073  003612  365E               	rlcf	___fltol@f1^0,f,c
  5074  003614  365F               	rlcf	(___fltol@f1+1)^0,f,c
  5075  003616  3660               	rlcf	(___fltol@f1+2)^0,f,c
  5076  003618  3661               	rlcf	(___fltol@f1+3)^0,f,c
  5077  00361A  0663               	decf	___fltol@exp1^0,f,c
  5078  00361C                     l10494:
  5079  00361C  5063               	movf	___fltol@exp1^0,w,c
  5080  00361E  A4D8               	btfss	status,2,c
  5081  003620  EF14  F01B         	goto	u11041
  5082  003624  EF16  F01B         	goto	u11040
  5083  003628                     u11041:
  5084  003628  EF08  F01B         	goto	l10492
  5085  00362C                     u11040:
  5086  00362C                     l10496:
  5087  00362C  5062               	movf	___fltol@sign1^0,w,c
  5088  00362E  B4D8               	btfsc	status,2,c
  5089  003630  EF1C  F01B         	goto	u11051
  5090  003634  EF1E  F01B         	goto	u11050
  5091  003638                     u11051:
  5092  003638  EF26  F01B         	goto	l10500
  5093  00363C                     u11050:
  5094  00363C  1E61               	comf	(___fltol@f1+3)^0,f,c
  5095  00363E  1E60               	comf	(___fltol@f1+2)^0,f,c
  5096  003640  1E5F               	comf	(___fltol@f1+1)^0,f,c
  5097  003642  6C5E               	negf	___fltol@f1^0,c
  5098  003644  0E00               	movlw	0
  5099  003646  225F               	addwfc	(___fltol@f1+1)^0,f,c
  5100  003648  2260               	addwfc	(___fltol@f1+2)^0,f,c
  5101  00364A  2261               	addwfc	(___fltol@f1+3)^0,f,c
  5102  00364C                     l10500:
  5103  00364C  C05E  F05E         	movff	___fltol@f1,?___fltol
  5104  003650  C05F  F05F         	movff	___fltol@f1+1,?___fltol+1
  5105  003654  C060  F060         	movff	___fltol@f1+2,?___fltol+2
  5106  003658  C061  F061         	movff	___fltol@f1+3,?___fltol+3
  5107  00365C                     l1905:
  5108  00365C  0012               	return		;funcret
  5109  00365E                     __end_of___fltol:
  5110                           	callstack 0
  5111                           
  5112 ;; *************** function ___flmul *****************
  5113 ;; Defined at:
  5114 ;;		line 8 in file "C:\Program Files\Microchip\xc8\v2.36\pic\sources\c99\common\sprcmul.c"
  5115 ;; Parameters:    Size  Location     Type
  5116 ;;  b               4   27[COMRAM] long 
  5117 ;;  a               4   31[COMRAM] long 
  5118 ;; Auto vars:     Size  Location     Type
  5119 ;;  prod            4   46[COMRAM] struct .
  5120 ;;  grs             4   41[COMRAM] unsigned long 
  5121 ;;  temp            2   50[COMRAM] struct .
  5122 ;;  bexp            1   45[COMRAM] unsigned char 
  5123 ;;  aexp            1   40[COMRAM] unsigned char 
  5124 ;;  sign            1   39[COMRAM] unsigned char 
  5125 ;; Return value:  Size  Location     Type
  5126 ;;                  4   27[COMRAM] unsigned char 
  5127 ;; Registers used:
  5128 ;;		wreg, status,2, status,0, prodl, prodh
  5129 ;; Tracked objects:
  5130 ;;		On entry : 0/0
  5131 ;;		On exit  : 0/0
  5132 ;;		Unchanged: 0/0
  5133 ;; Data sizes:     COMRAM   BANK0   BANK1   BANK2   BANK3   BANK4   BANK5   BANK6   BANK7   BANK8   BANK9  BANK10  BANK1
      +1  BANK12  BANK13  BANK14  BANK15
  5134 ;;      Params:         8       0       0       0       0       0       0       0       0       0       0       0       
      +0       0       0       0       0
  5135 ;;      Locals:        13       0       0       0       0       0       0       0       0       0       0       0       
      +0       0       0       0       0
  5136 ;;      Temps:          4       0       0       0       0       0       0       0       0       0       0       0       
      +0       0       0       0       0
  5137 ;;      Totals:        25       0       0       0       0       0       0       0       0       0       0       0       
      +0       0       0       0       0
  5138 ;;Total ram usage:       25 bytes
  5139 ;; Hardware stack levels used: 1
  5140 ;; Hardware stack levels required when called: 4
  5141 ;; This function calls:
  5142 ;;		Nothing
  5143 ;; This function is called by:
  5144 ;;		_hal_ccp_init
  5145 ;;		_hal_ccp_setPWMDuty
  5146 ;; This function uses a non-reentrant model
  5147 ;;
  5148                           
  5149                           	psect	text24
  5150  001A36                     __ptext24:
  5151                           	callstack 0
  5152  001A36                     ___flmul:
  5153                           	callstack 25
  5154  001A36  501F               	movf	(___flmul@b+3)^0,w,c
  5155  001A38  0B80               	andlw	128
  5156  001A3A  6E28               	movwf	___flmul@sign^0,c
  5157  001A3C  501F               	movf	(___flmul@b+3)^0,w,c
  5158  001A3E  241F               	addwf	(___flmul@b+3)^0,w,c
  5159  001A40  6E2E               	movwf	___flmul@bexp^0,c
  5160  001A42  AE1E               	btfss	(___flmul@b+2)^0,7,c
  5161  001A44  EF26  F00D         	goto	u10801
  5162  001A48  EF28  F00D         	goto	u10800
  5163  001A4C                     u10801:
  5164  001A4C  EF29  F00D         	goto	l10336
  5165  001A50                     u10800:
  5166  001A50  802E               	bsf	___flmul@bexp^0,0,c
  5167  001A52                     l10336:
  5168  001A52  502E               	movf	___flmul@bexp^0,w,c
  5169  001A54  B4D8               	btfsc	status,2,c
  5170  001A56  EF2F  F00D         	goto	u10811
  5171  001A5A  EF31  F00D         	goto	u10810
  5172  001A5E                     u10811:
  5173  001A5E  EF44  F00D         	goto	l10344
  5174  001A62                     u10810:
  5175  001A62  282E               	incf	___flmul@bexp^0,w,c
  5176  001A64  A4D8               	btfss	status,2,c
  5177  001A66  EF37  F00D         	goto	u10821
  5178  001A6A  EF39  F00D         	goto	u10820
  5179  001A6E                     u10821:
  5180  001A6E  EF41  F00D         	goto	l10342
  5181  001A72                     u10820:
  5182  001A72  0E00               	movlw	0
  5183  001A74  6E1C               	movwf	___flmul@b^0,c
  5184  001A76  0E00               	movlw	0
  5185  001A78  6E1D               	movwf	(___flmul@b+1)^0,c
  5186  001A7A  0E00               	movlw	0
  5187  001A7C  6E1E               	movwf	(___flmul@b+2)^0,c
  5188  001A7E  0E00               	movlw	0
  5189  001A80  6E1F               	movwf	(___flmul@b+3)^0,c
  5190  001A82                     l10342:
  5191  001A82  8E1E               	bsf	(___flmul@b+2)^0,7,c
  5192  001A84  EF4C  F00D         	goto	l10346
  5193  001A88                     l10344:
  5194  001A88  0E00               	movlw	0
  5195  001A8A  6E1C               	movwf	___flmul@b^0,c
  5196  001A8C  0E00               	movlw	0
  5197  001A8E  6E1D               	movwf	(___flmul@b+1)^0,c
  5198  001A90  0E00               	movlw	0
  5199  001A92  6E1E               	movwf	(___flmul@b+2)^0,c
  5200  001A94  0E00               	movlw	0
  5201  001A96  6E1F               	movwf	(___flmul@b+3)^0,c
  5202  001A98                     l10346:
  5203  001A98  5023               	movf	(___flmul@a+3)^0,w,c
  5204  001A9A  0B80               	andlw	128
  5205  001A9C  1A28               	xorwf	___flmul@sign^0,f,c
  5206  001A9E  5023               	movf	(___flmul@a+3)^0,w,c
  5207  001AA0  2423               	addwf	(___flmul@a+3)^0,w,c
  5208  001AA2  6E29               	movwf	___flmul@aexp^0,c
  5209  001AA4  AE22               	btfss	(___flmul@a+2)^0,7,c
  5210  001AA6  EF57  F00D         	goto	u10831
  5211  001AAA  EF59  F00D         	goto	u10830
  5212  001AAE                     u10831:
  5213  001AAE  EF5A  F00D         	goto	l10354
  5214  001AB2                     u10830:
  5215  001AB2  8029               	bsf	___flmul@aexp^0,0,c
  5216  001AB4                     l10354:
  5217  001AB4  5029               	movf	___flmul@aexp^0,w,c
  5218  001AB6  B4D8               	btfsc	status,2,c
  5219  001AB8  EF60  F00D         	goto	u10841
  5220  001ABC  EF62  F00D         	goto	u10840
  5221  001AC0                     u10841:
  5222  001AC0  EF75  F00D         	goto	l10362
  5223  001AC4                     u10840:
  5224  001AC4  2829               	incf	___flmul@aexp^0,w,c
  5225  001AC6  A4D8               	btfss	status,2,c
  5226  001AC8  EF68  F00D         	goto	u10851
  5227  001ACC  EF6A  F00D         	goto	u10850
  5228  001AD0                     u10851:
  5229  001AD0  EF72  F00D         	goto	l10360
  5230  001AD4                     u10850:
  5231  001AD4  0E00               	movlw	0
  5232  001AD6  6E20               	movwf	___flmul@a^0,c
  5233  001AD8  0E00               	movlw	0
  5234  001ADA  6E21               	movwf	(___flmul@a+1)^0,c
  5235  001ADC  0E00               	movlw	0
  5236  001ADE  6E22               	movwf	(___flmul@a+2)^0,c
  5237  001AE0  0E00               	movlw	0
  5238  001AE2  6E23               	movwf	(___flmul@a+3)^0,c
  5239  001AE4                     l10360:
  5240  001AE4  8E22               	bsf	(___flmul@a+2)^0,7,c
  5241  001AE6  EF7D  F00D         	goto	l2222
  5242  001AEA                     l10362:
  5243  001AEA  0E00               	movlw	0
  5244  001AEC  6E20               	movwf	___flmul@a^0,c
  5245  001AEE  0E00               	movlw	0
  5246  001AF0  6E21               	movwf	(___flmul@a+1)^0,c
  5247  001AF2  0E00               	movlw	0
  5248  001AF4  6E22               	movwf	(___flmul@a+2)^0,c
  5249  001AF6  0E00               	movlw	0
  5250  001AF8  6E23               	movwf	(___flmul@a+3)^0,c
  5251  001AFA                     l2222:
  5252  001AFA  5029               	movf	___flmul@aexp^0,w,c
  5253  001AFC  B4D8               	btfsc	status,2,c
  5254  001AFE  EF83  F00D         	goto	u10861
  5255  001B02  EF85  F00D         	goto	u10860
  5256  001B06                     u10861:
  5257  001B06  EF8D  F00D         	goto	l10366
  5258  001B0A                     u10860:
  5259  001B0A  502E               	movf	___flmul@bexp^0,w,c
  5260  001B0C  A4D8               	btfss	status,2,c
  5261  001B0E  EF8B  F00D         	goto	u10871
  5262  001B12  EF8D  F00D         	goto	u10870
  5263  001B16                     u10871:
  5264  001B16  EF97  F00D         	goto	l10370
  5265  001B1A                     u10870:
  5266  001B1A                     l10366:
  5267  001B1A  0E00               	movlw	0
  5268  001B1C  6E1C               	movwf	?___flmul^0,c
  5269  001B1E  0E00               	movlw	0
  5270  001B20  6E1D               	movwf	(?___flmul+1)^0,c
  5271  001B22  0E00               	movlw	0
  5272  001B24  6E1E               	movwf	(?___flmul+2)^0,c
  5273  001B26  0E00               	movlw	0
  5274  001B28  6E1F               	movwf	(?___flmul+3)^0,c
  5275  001B2A  EF2F  F00F         	goto	l2226
  5276  001B2E                     l10370:
  5277  001B2E  5022               	movf	(___flmul@a+2)^0,w,c
  5278  001B30  021C               	mulwf	___flmul@b^0,c
  5279  001B32  CFF3 F033          	movff	prodl,___flmul@temp
  5280  001B36  CFF4 F034          	movff	prodh,___flmul@temp+1
  5281  001B3A  5033               	movf	___flmul@temp^0,w,c
  5282  001B3C  6E2A               	movwf	___flmul@grs^0,c
  5283  001B3E  6A2B               	clrf	(___flmul@grs+1)^0,c
  5284  001B40  6A2C               	clrf	(___flmul@grs+2)^0,c
  5285  001B42  6A2D               	clrf	(___flmul@grs+3)^0,c
  5286  001B44  5034               	movf	(___flmul@temp+1)^0,w,c
  5287  001B46  6E2F               	movwf	___flmul@prod^0,c
  5288  001B48  6A30               	clrf	(___flmul@prod+1)^0,c
  5289  001B4A  6A31               	clrf	(___flmul@prod+2)^0,c
  5290  001B4C  6A32               	clrf	(___flmul@prod+3)^0,c
  5291  001B4E  5021               	movf	(___flmul@a+1)^0,w,c
  5292  001B50  021D               	mulwf	(___flmul@b+1)^0,c
  5293  001B52  CFF3 F033          	movff	prodl,___flmul@temp
  5294  001B56  CFF4 F034          	movff	prodh,___flmul@temp+1
  5295  001B5A  5033               	movf	___flmul@temp^0,w,c
  5296  001B5C  262A               	addwf	___flmul@grs^0,f,c
  5297  001B5E  0E00               	movlw	0
  5298  001B60  222B               	addwfc	(___flmul@grs+1)^0,f,c
  5299  001B62  222C               	addwfc	(___flmul@grs+2)^0,f,c
  5300  001B64  222D               	addwfc	(___flmul@grs+3)^0,f,c
  5301  001B66  5034               	movf	(___flmul@temp+1)^0,w,c
  5302  001B68  262F               	addwf	___flmul@prod^0,f,c
  5303  001B6A  0E00               	movlw	0
  5304  001B6C  2230               	addwfc	(___flmul@prod+1)^0,f,c
  5305  001B6E  2231               	addwfc	(___flmul@prod+2)^0,f,c
  5306  001B70  2232               	addwfc	(___flmul@prod+3)^0,f,c
  5307  001B72  5020               	movf	___flmul@a^0,w,c
  5308  001B74  021E               	mulwf	(___flmul@b+2)^0,c
  5309  001B76  CFF3 F033          	movff	prodl,___flmul@temp
  5310  001B7A  CFF4 F034          	movff	prodh,___flmul@temp+1
  5311  001B7E  5033               	movf	___flmul@temp^0,w,c
  5312  001B80  262A               	addwf	___flmul@grs^0,f,c
  5313  001B82  0E00               	movlw	0
  5314  001B84  222B               	addwfc	(___flmul@grs+1)^0,f,c
  5315  001B86  222C               	addwfc	(___flmul@grs+2)^0,f,c
  5316  001B88  222D               	addwfc	(___flmul@grs+3)^0,f,c
  5317  001B8A  5034               	movf	(___flmul@temp+1)^0,w,c
  5318  001B8C  262F               	addwf	___flmul@prod^0,f,c
  5319  001B8E  0E00               	movlw	0
  5320  001B90  2230               	addwfc	(___flmul@prod+1)^0,f,c
  5321  001B92  2231               	addwfc	(___flmul@prod+2)^0,f,c
  5322  001B94  2232               	addwfc	(___flmul@prod+3)^0,f,c
  5323  001B96  C02C  F02D         	movff	___flmul@grs+2,___flmul@grs+3
  5324  001B9A  C02B  F02C         	movff	___flmul@grs+1,___flmul@grs+2
  5325  001B9E  C02A  F02B         	movff	___flmul@grs,___flmul@grs+1
  5326  001BA2  6A2A               	clrf	___flmul@grs^0,c
  5327  001BA4  5020               	movf	___flmul@a^0,w,c
  5328  001BA6  021D               	mulwf	(___flmul@b+1)^0,c
  5329  001BA8  CFF3 F033          	movff	prodl,___flmul@temp
  5330  001BAC  CFF4 F034          	movff	prodh,___flmul@temp+1
  5331  001BB0  5033               	movf	___flmul@temp^0,w,c
  5332  001BB2  262A               	addwf	___flmul@grs^0,f,c
  5333  001BB4  5034               	movf	(___flmul@temp+1)^0,w,c
  5334  001BB6  222B               	addwfc	(___flmul@grs+1)^0,f,c
  5335  001BB8  0E00               	movlw	0
  5336  001BBA  222C               	addwfc	(___flmul@grs+2)^0,f,c
  5337  001BBC  0E00               	movlw	0
  5338  001BBE  222D               	addwfc	(___flmul@grs+3)^0,f,c
  5339  001BC0  5021               	movf	(___flmul@a+1)^0,w,c
  5340  001BC2  021C               	mulwf	___flmul@b^0,c
  5341  001BC4  CFF3 F033          	movff	prodl,___flmul@temp
  5342  001BC8  CFF4 F034          	movff	prodh,___flmul@temp+1
  5343  001BCC  5033               	movf	___flmul@temp^0,w,c
  5344  001BCE  262A               	addwf	___flmul@grs^0,f,c
  5345  001BD0  5034               	movf	(___flmul@temp+1)^0,w,c
  5346  001BD2  222B               	addwfc	(___flmul@grs+1)^0,f,c
  5347  001BD4  0E00               	movlw	0
  5348  001BD6  222C               	addwfc	(___flmul@grs+2)^0,f,c
  5349  001BD8  0E00               	movlw	0
  5350  001BDA  222D               	addwfc	(___flmul@grs+3)^0,f,c
  5351  001BDC  C02C  F02D         	movff	___flmul@grs+2,___flmul@grs+3
  5352  001BE0  C02B  F02C         	movff	___flmul@grs+1,___flmul@grs+2
  5353  001BE4  C02A  F02B         	movff	___flmul@grs,___flmul@grs+1
  5354  001BE8  6A2A               	clrf	___flmul@grs^0,c
  5355  001BEA  5020               	movf	___flmul@a^0,w,c
  5356  001BEC  021C               	mulwf	___flmul@b^0,c
  5357  001BEE  CFF3 F033          	movff	prodl,___flmul@temp
  5358  001BF2  CFF4 F034          	movff	prodh,___flmul@temp+1
  5359  001BF6  5033               	movf	___flmul@temp^0,w,c
  5360  001BF8  262A               	addwf	___flmul@grs^0,f,c
  5361  001BFA  5034               	movf	(___flmul@temp+1)^0,w,c
  5362  001BFC  222B               	addwfc	(___flmul@grs+1)^0,f,c
  5363  001BFE  0E00               	movlw	0
  5364  001C00  222C               	addwfc	(___flmul@grs+2)^0,f,c
  5365  001C02  0E00               	movlw	0
  5366  001C04  222D               	addwfc	(___flmul@grs+3)^0,f,c
  5367  001C06  5022               	movf	(___flmul@a+2)^0,w,c
  5368  001C08  021D               	mulwf	(___flmul@b+1)^0,c
  5369  001C0A  CFF3 F033          	movff	prodl,___flmul@temp
  5370  001C0E  CFF4 F034          	movff	prodh,___flmul@temp+1
  5371  001C12  5033               	movf	___flmul@temp^0,w,c
  5372  001C14  262F               	addwf	___flmul@prod^0,f,c
  5373  001C16  5034               	movf	(___flmul@temp+1)^0,w,c
  5374  001C18  2230               	addwfc	(___flmul@prod+1)^0,f,c
  5375  001C1A  0E00               	movlw	0
  5376  001C1C  2231               	addwfc	(___flmul@prod+2)^0,f,c
  5377  001C1E  0E00               	movlw	0
  5378  001C20  2232               	addwfc	(___flmul@prod+3)^0,f,c
  5379  001C22  5021               	movf	(___flmul@a+1)^0,w,c
  5380  001C24  021E               	mulwf	(___flmul@b+2)^0,c
  5381  001C26  CFF3 F033          	movff	prodl,___flmul@temp
  5382  001C2A  CFF4 F034          	movff	prodh,___flmul@temp+1
  5383  001C2E  5033               	movf	___flmul@temp^0,w,c
  5384  001C30  262F               	addwf	___flmul@prod^0,f,c
  5385  001C32  5034               	movf	(___flmul@temp+1)^0,w,c
  5386  001C34  2230               	addwfc	(___flmul@prod+1)^0,f,c
  5387  001C36  0E00               	movlw	0
  5388  001C38  2231               	addwfc	(___flmul@prod+2)^0,f,c
  5389  001C3A  0E00               	movlw	0
  5390  001C3C  2232               	addwfc	(___flmul@prod+3)^0,f,c
  5391  001C3E  5022               	movf	(___flmul@a+2)^0,w,c
  5392  001C40  021E               	mulwf	(___flmul@b+2)^0,c
  5393  001C42  CFF3 F033          	movff	prodl,___flmul@temp
  5394  001C46  CFF4 F034          	movff	prodh,___flmul@temp+1
  5395  001C4A  5033               	movf	___flmul@temp^0,w,c
  5396  001C4C  6E24               	movwf	??___flmul^0,c
  5397  001C4E  5034               	movf	(___flmul@temp+1)^0,w,c
  5398  001C50  6E25               	movwf	(??___flmul+1)^0,c
  5399  001C52  6A26               	clrf	(??___flmul+2)^0,c
  5400  001C54  6A27               	clrf	(??___flmul+3)^0,c
  5401  001C56  C026  F027         	movff	??___flmul+2,??___flmul+3
  5402  001C5A  C025  F026         	movff	??___flmul+1,??___flmul+2
  5403  001C5E  C024  F025         	movff	??___flmul,??___flmul+1
  5404  001C62  6A24               	clrf	??___flmul^0,c
  5405  001C64  5024               	movf	??___flmul^0,w,c
  5406  001C66  262F               	addwf	___flmul@prod^0,f,c
  5407  001C68  5025               	movf	(??___flmul+1)^0,w,c
  5408  001C6A  2230               	addwfc	(___flmul@prod+1)^0,f,c
  5409  001C6C  5026               	movf	(??___flmul+2)^0,w,c
  5410  001C6E  2231               	addwfc	(___flmul@prod+2)^0,f,c
  5411  001C70  5027               	movf	(??___flmul+3)^0,w,c
  5412  001C72  2232               	addwfc	(___flmul@prod+3)^0,f,c
  5413  001C74  C02A  F024         	movff	___flmul@grs,??___flmul
  5414  001C78  C02B  F025         	movff	___flmul@grs+1,??___flmul+1
  5415  001C7C  C02C  F026         	movff	___flmul@grs+2,??___flmul+2
  5416  001C80  C02D  F027         	movff	___flmul@grs+3,??___flmul+3
  5417  001C84  0E19               	movlw	25
  5418  001C86  EF4A  F00E         	goto	u10880
  5419  001C8A                     u10885:
  5420  001C8A  90D8               	bcf	status,0,c
  5421  001C8C  3227               	rrcf	(??___flmul+3)^0,f,c
  5422  001C8E  3226               	rrcf	(??___flmul+2)^0,f,c
  5423  001C90  3225               	rrcf	(??___flmul+1)^0,f,c
  5424  001C92  3224               	rrcf	??___flmul^0,f,c
  5425  001C94                     u10880:
  5426  001C94  2EE8               	decfsz	wreg,f,c
  5427  001C96  EF45  F00E         	goto	u10885
  5428  001C9A  5024               	movf	??___flmul^0,w,c
  5429  001C9C  262F               	addwf	___flmul@prod^0,f,c
  5430  001C9E  5025               	movf	(??___flmul+1)^0,w,c
  5431  001CA0  2230               	addwfc	(___flmul@prod+1)^0,f,c
  5432  001CA2  5026               	movf	(??___flmul+2)^0,w,c
  5433  001CA4  2231               	addwfc	(___flmul@prod+2)^0,f,c
  5434  001CA6  5027               	movf	(??___flmul+3)^0,w,c
  5435  001CA8  2232               	addwfc	(___flmul@prod+3)^0,f,c
  5436  001CAA  C02C  F02D         	movff	___flmul@grs+2,___flmul@grs+3
  5437  001CAE  C02B  F02C         	movff	___flmul@grs+1,___flmul@grs+2
  5438  001CB2  C02A  F02B         	movff	___flmul@grs,___flmul@grs+1
  5439  001CB6  6A2A               	clrf	___flmul@grs^0,c
  5440  001CB8  5029               	movf	___flmul@aexp^0,w,c
  5441  001CBA  C02E  F024         	movff	___flmul@bexp,??___flmul
  5442  001CBE  6A25               	clrf	(??___flmul+1)^0,c
  5443  001CC0  2624               	addwf	??___flmul^0,f,c
  5444  001CC2  0E00               	movlw	0
  5445  001CC4  2225               	addwfc	(??___flmul+1)^0,f,c
  5446  001CC6  0E82               	movlw	130
  5447  001CC8  2424               	addwf	??___flmul^0,w,c
  5448  001CCA  6E33               	movwf	___flmul@temp^0,c
  5449  001CCC  0EFF               	movlw	255
  5450  001CCE  2025               	addwfc	(??___flmul+1)^0,w,c
  5451  001CD0  6E34               	movwf	(___flmul@temp+1)^0,c
  5452  001CD2  EF80  F00E         	goto	l10418
  5453  001CD6                     l10412:
  5454  001CD6  90D8               	bcf	status,0,c
  5455  001CD8  362F               	rlcf	___flmul@prod^0,f,c
  5456  001CDA  3630               	rlcf	(___flmul@prod+1)^0,f,c
  5457  001CDC  3631               	rlcf	(___flmul@prod+2)^0,f,c
  5458  001CDE  3632               	rlcf	(___flmul@prod+3)^0,f,c
  5459  001CE0  AE2D               	btfss	(___flmul@grs+3)^0,7,c
  5460  001CE2  EF75  F00E         	goto	u10891
  5461  001CE6  EF77  F00E         	goto	u10890
  5462  001CEA                     u10891:
  5463  001CEA  EF78  F00E         	goto	l2229
  5464  001CEE                     u10890:
  5465  001CEE  802F               	bsf	___flmul@prod^0,0,c
  5466  001CF0                     l2229:
  5467  001CF0  90D8               	bcf	status,0,c
  5468  001CF2  362A               	rlcf	___flmul@grs^0,f,c
  5469  001CF4  362B               	rlcf	(___flmul@grs+1)^0,f,c
  5470  001CF6  362C               	rlcf	(___flmul@grs+2)^0,f,c
  5471  001CF8  362D               	rlcf	(___flmul@grs+3)^0,f,c
  5472  001CFA  0633               	decf	___flmul@temp^0,f,c
  5473  001CFC  A0D8               	btfss	status,0,c
  5474  001CFE  0634               	decf	(___flmul@temp+1)^0,f,c
  5475  001D00                     l10418:
  5476  001D00  AE31               	btfss	(___flmul@prod+2)^0,7,c
  5477  001D02  EF85  F00E         	goto	u10901
  5478  001D06  EF87  F00E         	goto	u10900
  5479  001D0A                     u10901:
  5480  001D0A  EF6B  F00E         	goto	l10412
  5481  001D0E                     u10900:
  5482  001D0E  0E00               	movlw	0
  5483  001D10  6E29               	movwf	___flmul@aexp^0,c
  5484  001D12  AE2D               	btfss	(___flmul@grs+3)^0,7,c
  5485  001D14  EF8E  F00E         	goto	u10911
  5486  001D18  EF90  F00E         	goto	u10910
  5487  001D1C                     u10911:
  5488  001D1C  EFB4  F00E         	goto	l2231
  5489  001D20                     u10910:
  5490  001D20  0EFF               	movlw	255
  5491  001D22  142A               	andwf	___flmul@grs^0,w,c
  5492  001D24  6E24               	movwf	??___flmul^0,c
  5493  001D26  0EFF               	movlw	255
  5494  001D28  142B               	andwf	(___flmul@grs+1)^0,w,c
  5495  001D2A  6E25               	movwf	(??___flmul+1)^0,c
  5496  001D2C  0EFF               	movlw	255
  5497  001D2E  142C               	andwf	(___flmul@grs+2)^0,w,c
  5498  001D30  6E26               	movwf	(??___flmul+2)^0,c
  5499  001D32  0E7F               	movlw	127
  5500  001D34  142D               	andwf	(___flmul@grs+3)^0,w,c
  5501  001D36  6E27               	movwf	(??___flmul+3)^0,c
  5502  001D38  5024               	movf	??___flmul^0,w,c
  5503  001D3A  1025               	iorwf	(??___flmul+1)^0,w,c
  5504  001D3C  1026               	iorwf	(??___flmul+2)^0,w,c
  5505  001D3E  1027               	iorwf	(??___flmul+3)^0,w,c
  5506  001D40  B4D8               	btfsc	status,2,c
  5507  001D42  EFA5  F00E         	goto	u10921
  5508  001D46  EFA7  F00E         	goto	u10920
  5509  001D4A                     u10921:
  5510  001D4A  EFAB  F00E         	goto	l2232
  5511  001D4E                     u10920:
  5512  001D4E                     l10426:
  5513  001D4E  0E01               	movlw	1
  5514  001D50  6E29               	movwf	___flmul@aexp^0,c
  5515  001D52  EFB4  F00E         	goto	l2231
  5516  001D56                     l2232:
  5517  001D56  A02F               	btfss	___flmul@prod^0,0,c
  5518  001D58  EFB0  F00E         	goto	u10931
  5519  001D5C  EFB2  F00E         	goto	u10930
  5520  001D60                     u10931:
  5521  001D60  EFB4  F00E         	goto	l2231
  5522  001D64                     u10930:
  5523  001D64  EFA7  F00E         	goto	l10426
  5524  001D68                     l2231:
  5525  001D68  5029               	movf	___flmul@aexp^0,w,c
  5526  001D6A  B4D8               	btfsc	status,2,c
  5527  001D6C  EFBA  F00E         	goto	u10941
  5528  001D70  EFBC  F00E         	goto	u10940
  5529  001D74                     u10941:
  5530  001D74  EFE0  F00E         	goto	l10438
  5531  001D78                     u10940:
  5532  001D78  0E01               	movlw	1
  5533  001D7A  262F               	addwf	___flmul@prod^0,f,c
  5534  001D7C  0E00               	movlw	0
  5535  001D7E  2230               	addwfc	(___flmul@prod+1)^0,f,c
  5536  001D80  2231               	addwfc	(___flmul@prod+2)^0,f,c
  5537  001D82  2232               	addwfc	(___flmul@prod+3)^0,f,c
  5538  001D84  A032               	btfss	(___flmul@prod+3)^0,0,c
  5539  001D86  EFC7  F00E         	goto	u10951
  5540  001D8A  EFC9  F00E         	goto	u10950
  5541  001D8E                     u10951:
  5542  001D8E  EFE0  F00E         	goto	l10438
  5543  001D92                     u10950:
  5544  001D92  C02F  F024         	movff	___flmul@prod,??___flmul
  5545  001D96  C030  F025         	movff	___flmul@prod+1,??___flmul+1
  5546  001D9A  C031  F026         	movff	___flmul@prod+2,??___flmul+2
  5547  001D9E  C032  F027         	movff	___flmul@prod+3,??___flmul+3
  5548  001DA2  3427               	rlcf	(??___flmul+3)^0,w,c
  5549  001DA4  3227               	rrcf	(??___flmul+3)^0,f,c
  5550  001DA6  3226               	rrcf	(??___flmul+2)^0,f,c
  5551  001DA8  3225               	rrcf	(??___flmul+1)^0,f,c
  5552  001DAA  3224               	rrcf	??___flmul^0,f,c
  5553  001DAC  C024  F02F         	movff	??___flmul,___flmul@prod
  5554  001DB0  C025  F030         	movff	??___flmul+1,___flmul@prod+1
  5555  001DB4  C026  F031         	movff	??___flmul+2,___flmul@prod+2
  5556  001DB8  C027  F032         	movff	??___flmul+3,___flmul@prod+3
  5557  001DBC  4A33               	infsnz	___flmul@temp^0,f,c
  5558  001DBE  2A34               	incf	(___flmul@temp+1)^0,f,c
  5559  001DC0                     l10438:
  5560  001DC0  BE34               	btfsc	(___flmul@temp+1)^0,7,c
  5561  001DC2  EFEB  F00E         	goto	u10961
  5562  001DC6  5034               	movf	(___flmul@temp+1)^0,w,c
  5563  001DC8  E108               	bnz	u10960
  5564  001DCA  2833               	incf	___flmul@temp^0,w,c
  5565  001DCC  A0D8               	btfss	status,0,c
  5566  001DCE  EFEB  F00E         	goto	u10961
  5567  001DD2  EFED  F00E         	goto	u10960
  5568  001DD6                     u10961:
  5569  001DD6  EFF7  F00E         	goto	l10442
  5570  001DDA                     u10960:
  5571  001DDA  0E00               	movlw	0
  5572  001DDC  6E2F               	movwf	___flmul@prod^0,c
  5573  001DDE  0E00               	movlw	0
  5574  001DE0  6E30               	movwf	(___flmul@prod+1)^0,c
  5575  001DE2  0E80               	movlw	128
  5576  001DE4  6E31               	movwf	(___flmul@prod+2)^0,c
  5577  001DE6  0E7F               	movlw	127
  5578  001DE8  6E32               	movwf	(___flmul@prod+3)^0,c
  5579  001DEA  EF25  F00F         	goto	l10454
  5580  001DEE                     l10442:
  5581  001DEE  BE34               	btfsc	(___flmul@temp+1)^0,7,c
  5582  001DF0  EF04  F00F         	goto	u10970
  5583  001DF4  5034               	movf	(___flmul@temp+1)^0,w,c
  5584  001DF6  E106               	bnz	u10971
  5585  001DF8  0433               	decf	___flmul@temp^0,w,c
  5586  001DFA  B0D8               	btfsc	status,0,c
  5587  001DFC  EF02  F00F         	goto	u10971
  5588  001E00  EF04  F00F         	goto	u10970
  5589  001E04                     u10971:
  5590  001E04  EF10  F00F         	goto	l2239
  5591  001E08                     u10970:
  5592  001E08  0E00               	movlw	0
  5593  001E0A  6E2F               	movwf	___flmul@prod^0,c
  5594  001E0C  0E00               	movlw	0
  5595  001E0E  6E30               	movwf	(___flmul@prod+1)^0,c
  5596  001E10  0E00               	movlw	0
  5597  001E12  6E31               	movwf	(___flmul@prod+2)^0,c
  5598  001E14  0E00               	movlw	0
  5599  001E16  6E32               	movwf	(___flmul@prod+3)^0,c
  5600  001E18  0E00               	movlw	0
  5601  001E1A  6E28               	movwf	___flmul@sign^0,c
  5602  001E1C  EF25  F00F         	goto	l10454
  5603  001E20                     l2239:
  5604  001E20  C033  F02E         	movff	___flmul@temp,___flmul@bexp
  5605  001E24  0EFF               	movlw	255
  5606  001E26  162F               	andwf	___flmul@prod^0,f,c
  5607  001E28  0EFF               	movlw	255
  5608  001E2A  1630               	andwf	(___flmul@prod+1)^0,f,c
  5609  001E2C  0E7F               	movlw	127
  5610  001E2E  1631               	andwf	(___flmul@prod+2)^0,f,c
  5611  001E30  0E00               	movlw	0
  5612  001E32  1632               	andwf	(___flmul@prod+3)^0,f,c
  5613  001E34  A02E               	btfss	___flmul@bexp^0,0,c
  5614  001E36  EF1F  F00F         	goto	u10981
  5615  001E3A  EF21  F00F         	goto	u10980
  5616  001E3E                     u10981:
  5617  001E3E  EF22  F00F         	goto	l10452
  5618  001E42                     u10980:
  5619  001E42  8E31               	bsf	(___flmul@prod+2)^0,7,c
  5620  001E44                     l10452:
  5621  001E44  90D8               	bcf	status,0,c
  5622  001E46  302E               	rrcf	___flmul@bexp^0,w,c
  5623  001E48  6E32               	movwf	(___flmul@prod+3)^0,c
  5624  001E4A                     l10454:
  5625  001E4A  5028               	movf	___flmul@sign^0,w,c
  5626  001E4C  1232               	iorwf	(___flmul@prod+3)^0,f,c
  5627  001E4E  C02F  F01C         	movff	___flmul@prod,?___flmul
  5628  001E52  C030  F01D         	movff	___flmul@prod+1,?___flmul+1
  5629  001E56  C031  F01E         	movff	___flmul@prod+2,?___flmul+2
  5630  001E5A  C032  F01F         	movff	___flmul@prod+3,?___flmul+3
  5631  001E5E                     l2226:
  5632  001E5E  0012               	return		;funcret
  5633  001E60                     __end_of___flmul:
  5634                           	callstack 0
  5635                           
  5636 ;; *************** function ___fldiv *****************
  5637 ;; Defined at:
  5638 ;;		line 11 in file "C:\Program Files\Microchip\xc8\v2.36\pic\sources\c99\common\sprcdiv.c"
  5639 ;; Parameters:    Size  Location     Type
  5640 ;;  b               4   52[COMRAM] unsigned char 
  5641 ;;  a               4   56[COMRAM] unsigned char 
  5642 ;; Auto vars:     Size  Location     Type
  5643 ;;  grs             4   71[COMRAM] unsigned long 
  5644 ;;  rem             4   64[COMRAM] unsigned long 
  5645 ;;  new_exp         2   69[COMRAM] short 
  5646 ;;  aexp            1   76[COMRAM] unsigned char 
  5647 ;;  bexp            1   75[COMRAM] unsigned char 
  5648 ;;  sign            1   68[COMRAM] unsigned char 
  5649 ;; Return value:  Size  Location     Type
  5650 ;;                  4   52[COMRAM] unsigned char 
  5651 ;; Registers used:
  5652 ;;		wreg, status,2, status,0
  5653 ;; Tracked objects:
  5654 ;;		On entry : 0/0
  5655 ;;		On exit  : 0/0
  5656 ;;		Unchanged: 0/0
  5657 ;; Data sizes:     COMRAM   BANK0   BANK1   BANK2   BANK3   BANK4   BANK5   BANK6   BANK7   BANK8   BANK9  BANK10  BANK1
      +1  BANK12  BANK13  BANK14  BANK15
  5658 ;;      Params:         8       0       0       0       0       0       0       0       0       0       0       0       
      +0       0       0       0       0
  5659 ;;      Locals:        13       0       0       0       0       0       0       0       0       0       0       0       
      +0       0       0       0       0
  5660 ;;      Temps:          4       0       0       0       0       0       0       0       0       0       0       0       
      +0       0       0       0       0
  5661 ;;      Totals:        25       0       0       0       0       0       0       0       0       0       0       0       
      +0       0       0       0       0
  5662 ;;Total ram usage:       25 bytes
  5663 ;; Hardware stack levels used: 1
  5664 ;; Hardware stack levels required when called: 4
  5665 ;; This function calls:
  5666 ;;		Nothing
  5667 ;; This function is called by:
  5668 ;;		_main
  5669 ;;		_hal_ccp_init
  5670 ;;		_hal_ccp_setPWMDuty
  5671 ;; This function uses a non-reentrant model
  5672 ;;
  5673                           
  5674                           	psect	text25
  5675  001E60                     __ptext25:
  5676                           	callstack 0
  5677  001E60                     ___fldiv:
  5678                           	callstack 25
  5679  001E60  5038               	movf	(___fldiv@b+3)^0,w,c
  5680  001E62  0B80               	andlw	128
  5681  001E64  6E45               	movwf	___fldiv@sign^0,c
  5682  001E66  5038               	movf	(___fldiv@b+3)^0,w,c
  5683  001E68  2438               	addwf	(___fldiv@b+3)^0,w,c
  5684  001E6A  6E4C               	movwf	___fldiv@bexp^0,c
  5685  001E6C  AE37               	btfss	(___fldiv@b+2)^0,7,c
  5686  001E6E  EF3B  F00F         	goto	u10571
  5687  001E72  EF3D  F00F         	goto	u10570
  5688  001E76                     u10571:
  5689  001E76  EF3E  F00F         	goto	l10198
  5690  001E7A                     u10570:
  5691  001E7A  804C               	bsf	___fldiv@bexp^0,0,c
  5692  001E7C                     l10198:
  5693  001E7C  504C               	movf	___fldiv@bexp^0,w,c
  5694  001E7E  B4D8               	btfsc	status,2,c
  5695  001E80  EF44  F00F         	goto	u10581
  5696  001E84  EF46  F00F         	goto	u10580
  5697  001E88                     u10581:
  5698  001E88  EF5B  F00F         	goto	l10208
  5699  001E8C                     u10580:
  5700  001E8C  284C               	incf	___fldiv@bexp^0,w,c
  5701  001E8E  A4D8               	btfss	status,2,c
  5702  001E90  EF4C  F00F         	goto	u10591
  5703  001E94  EF4E  F00F         	goto	u10590
  5704  001E98                     u10591:
  5705  001E98  EF56  F00F         	goto	l10204
  5706  001E9C                     u10590:
  5707  001E9C  0E00               	movlw	0
  5708  001E9E  6E35               	movwf	___fldiv@b^0,c
  5709  001EA0  0E00               	movlw	0
  5710  001EA2  6E36               	movwf	(___fldiv@b+1)^0,c
  5711  001EA4  0E00               	movlw	0
  5712  001EA6  6E37               	movwf	(___fldiv@b+2)^0,c
  5713  001EA8  0E00               	movlw	0
  5714  001EAA  6E38               	movwf	(___fldiv@b+3)^0,c
  5715  001EAC                     l10204:
  5716  001EAC  8E37               	bsf	(___fldiv@b+2)^0,7,c
  5717  001EAE  0E00               	movlw	0
  5718  001EB0  6E38               	movwf	(___fldiv@b+3)^0,c
  5719  001EB2  EF63  F00F         	goto	l10210
  5720  001EB6                     l10208:
  5721  001EB6  0E00               	movlw	0
  5722  001EB8  6E35               	movwf	___fldiv@b^0,c
  5723  001EBA  0E00               	movlw	0
  5724  001EBC  6E36               	movwf	(___fldiv@b+1)^0,c
  5725  001EBE  0E00               	movlw	0
  5726  001EC0  6E37               	movwf	(___fldiv@b+2)^0,c
  5727  001EC2  0E00               	movlw	0
  5728  001EC4  6E38               	movwf	(___fldiv@b+3)^0,c
  5729  001EC6                     l10210:
  5730  001EC6  503C               	movf	(___fldiv@a+3)^0,w,c
  5731  001EC8  0B80               	andlw	128
  5732  001ECA  1A45               	xorwf	___fldiv@sign^0,f,c
  5733  001ECC  503C               	movf	(___fldiv@a+3)^0,w,c
  5734  001ECE  243C               	addwf	(___fldiv@a+3)^0,w,c
  5735  001ED0  6E4D               	movwf	___fldiv@aexp^0,c
  5736  001ED2  AE3B               	btfss	(___fldiv@a+2)^0,7,c
  5737  001ED4  EF6E  F00F         	goto	u10601
  5738  001ED8  EF70  F00F         	goto	u10600
  5739  001EDC                     u10601:
  5740  001EDC  EF71  F00F         	goto	l10218
  5741  001EE0                     u10600:
  5742  001EE0  804D               	bsf	___fldiv@aexp^0,0,c
  5743  001EE2                     l10218:
  5744  001EE2  504D               	movf	___fldiv@aexp^0,w,c
  5745  001EE4  B4D8               	btfsc	status,2,c
  5746  001EE6  EF77  F00F         	goto	u10611
  5747  001EEA  EF79  F00F         	goto	u10610
  5748  001EEE                     u10611:
  5749  001EEE  EF8E  F00F         	goto	l10228
  5750  001EF2                     u10610:
  5751  001EF2  284D               	incf	___fldiv@aexp^0,w,c
  5752  001EF4  A4D8               	btfss	status,2,c
  5753  001EF6  EF7F  F00F         	goto	u10621
  5754  001EFA  EF81  F00F         	goto	u10620
  5755  001EFE                     u10621:
  5756  001EFE  EF89  F00F         	goto	l10224
  5757  001F02                     u10620:
  5758  001F02  0E00               	movlw	0
  5759  001F04  6E39               	movwf	___fldiv@a^0,c
  5760  001F06  0E00               	movlw	0
  5761  001F08  6E3A               	movwf	(___fldiv@a+1)^0,c
  5762  001F0A  0E00               	movlw	0
  5763  001F0C  6E3B               	movwf	(___fldiv@a+2)^0,c
  5764  001F0E  0E00               	movlw	0
  5765  001F10  6E3C               	movwf	(___fldiv@a+3)^0,c
  5766  001F12                     l10224:
  5767  001F12  8E3B               	bsf	(___fldiv@a+2)^0,7,c
  5768  001F14  0E00               	movlw	0
  5769  001F16  6E3C               	movwf	(___fldiv@a+3)^0,c
  5770  001F18  EF96  F00F         	goto	l10230
  5771  001F1C                     l10228:
  5772  001F1C  0E00               	movlw	0
  5773  001F1E  6E39               	movwf	___fldiv@a^0,c
  5774  001F20  0E00               	movlw	0
  5775  001F22  6E3A               	movwf	(___fldiv@a+1)^0,c
  5776  001F24  0E00               	movlw	0
  5777  001F26  6E3B               	movwf	(___fldiv@a+2)^0,c
  5778  001F28  0E00               	movlw	0
  5779  001F2A  6E3C               	movwf	(___fldiv@a+3)^0,c
  5780  001F2C                     l10230:
  5781  001F2C  5039               	movf	___fldiv@a^0,w,c
  5782  001F2E  103A               	iorwf	(___fldiv@a+1)^0,w,c
  5783  001F30  103B               	iorwf	(___fldiv@a+2)^0,w,c
  5784  001F32  103C               	iorwf	(___fldiv@a+3)^0,w,c
  5785  001F34  A4D8               	btfss	status,2,c
  5786  001F36  EF9F  F00F         	goto	u10631
  5787  001F3A  EFA1  F00F         	goto	u10630
  5788  001F3E                     u10631:
  5789  001F3E  EFB9  F00F         	goto	l10242
  5790  001F42                     u10630:
  5791  001F42  0E00               	movlw	0
  5792  001F44  6E35               	movwf	___fldiv@b^0,c
  5793  001F46  0E00               	movlw	0
  5794  001F48  6E36               	movwf	(___fldiv@b+1)^0,c
  5795  001F4A  0E00               	movlw	0
  5796  001F4C  6E37               	movwf	(___fldiv@b+2)^0,c
  5797  001F4E  0E00               	movlw	0
  5798  001F50  6E38               	movwf	(___fldiv@b+3)^0,c
  5799  001F52  0E80               	movlw	128
  5800  001F54  1237               	iorwf	(___fldiv@b+2)^0,f,c
  5801  001F56  0E7F               	movlw	127
  5802  001F58  1238               	iorwf	(___fldiv@b+3)^0,f,c
  5803  001F5A                     l10236:
  5804  001F5A  5045               	movf	___fldiv@sign^0,w,c
  5805  001F5C  1238               	iorwf	(___fldiv@b+3)^0,f,c
  5806  001F5E  C035  F035         	movff	___fldiv@b,?___fldiv
  5807  001F62  C036  F036         	movff	___fldiv@b+1,?___fldiv+1
  5808  001F66  C037  F037         	movff	___fldiv@b+2,?___fldiv+2
  5809  001F6A  C038  F038         	movff	___fldiv@b+3,?___fldiv+3
  5810  001F6E  EFFC  F010         	goto	l2190
  5811  001F72                     l10242:
  5812  001F72  504C               	movf	___fldiv@bexp^0,w,c
  5813  001F74  A4D8               	btfss	status,2,c
  5814  001F76  EFBF  F00F         	goto	u10641
  5815  001F7A  EFC1  F00F         	goto	u10640
  5816  001F7E                     u10641:
  5817  001F7E  EFCB  F00F         	goto	l10250
  5818  001F82                     u10640:
  5819  001F82  0E00               	movlw	0
  5820  001F84  6E35               	movwf	?___fldiv^0,c
  5821  001F86  0E00               	movlw	0
  5822  001F88  6E36               	movwf	(?___fldiv+1)^0,c
  5823  001F8A  0E00               	movlw	0
  5824  001F8C  6E37               	movwf	(?___fldiv+2)^0,c
  5825  001F8E  0E00               	movlw	0
  5826  001F90  6E38               	movwf	(?___fldiv+3)^0,c
  5827  001F92  EFFC  F010         	goto	l2190
  5828  001F96                     l10250:
  5829  001F96  504D               	movf	___fldiv@aexp^0,w,c
  5830  001F98  C04C  F03D         	movff	___fldiv@bexp,??___fldiv
  5831  001F9C  6A3E               	clrf	(??___fldiv+1)^0,c
  5832  001F9E  5E3D               	subwf	??___fldiv^0,f,c
  5833  001FA0  0E00               	movlw	0
  5834  001FA2  5A3E               	subwfb	(??___fldiv+1)^0,f,c
  5835  001FA4  0E7F               	movlw	127
  5836  001FA6  243D               	addwf	??___fldiv^0,w,c
  5837  001FA8  6E46               	movwf	___fldiv@new_exp^0,c
  5838  001FAA  0E00               	movlw	0
  5839  001FAC  203E               	addwfc	(??___fldiv+1)^0,w,c
  5840  001FAE  6E47               	movwf	(___fldiv@new_exp+1)^0,c
  5841  001FB0  C035  F041         	movff	___fldiv@b,___fldiv@rem
  5842  001FB4  C036  F042         	movff	___fldiv@b+1,___fldiv@rem+1
  5843  001FB8  C037  F043         	movff	___fldiv@b+2,___fldiv@rem+2
  5844  001FBC  C038  F044         	movff	___fldiv@b+3,___fldiv@rem+3
  5845  001FC0  0E00               	movlw	0
  5846  001FC2  6E35               	movwf	___fldiv@b^0,c
  5847  001FC4  0E00               	movlw	0
  5848  001FC6  6E36               	movwf	(___fldiv@b+1)^0,c
  5849  001FC8  0E00               	movlw	0
  5850  001FCA  6E37               	movwf	(___fldiv@b+2)^0,c
  5851  001FCC  0E00               	movlw	0
  5852  001FCE  6E38               	movwf	(___fldiv@b+3)^0,c
  5853  001FD0  0E00               	movlw	0
  5854  001FD2  6E48               	movwf	___fldiv@grs^0,c
  5855  001FD4  0E00               	movlw	0
  5856  001FD6  6E49               	movwf	(___fldiv@grs+1)^0,c
  5857  001FD8  0E00               	movlw	0
  5858  001FDA  6E4A               	movwf	(___fldiv@grs+2)^0,c
  5859  001FDC  0E00               	movlw	0
  5860  001FDE  6E4B               	movwf	(___fldiv@grs+3)^0,c
  5861  001FE0  0E00               	movlw	0
  5862  001FE2  6E4D               	movwf	___fldiv@aexp^0,c
  5863  001FE4  EF2C  F010         	goto	l2192
  5864  001FE8                     l10260:
  5865  001FE8  504D               	movf	___fldiv@aexp^0,w,c
  5866  001FEA  B4D8               	btfsc	status,2,c
  5867  001FEC  EFFA  F00F         	goto	u10651
  5868  001FF0  EFFC  F00F         	goto	u10650
  5869  001FF4                     u10651:
  5870  001FF4  EF13  F010         	goto	l10268
  5871  001FF8                     u10650:
  5872  001FF8  90D8               	bcf	status,0,c
  5873  001FFA  3641               	rlcf	___fldiv@rem^0,f,c
  5874  001FFC  3642               	rlcf	(___fldiv@rem+1)^0,f,c
  5875  001FFE  3643               	rlcf	(___fldiv@rem+2)^0,f,c
  5876  002000  3644               	rlcf	(___fldiv@rem+3)^0,f,c
  5877  002002  90D8               	bcf	status,0,c
  5878  002004  3635               	rlcf	___fldiv@b^0,f,c
  5879  002006  3636               	rlcf	(___fldiv@b+1)^0,f,c
  5880  002008  3637               	rlcf	(___fldiv@b+2)^0,f,c
  5881  00200A  3638               	rlcf	(___fldiv@b+3)^0,f,c
  5882  00200C  AE4B               	btfss	(___fldiv@grs+3)^0,7,c
  5883  00200E  EF0B  F010         	goto	u10661
  5884  002012  EF0D  F010         	goto	u10660
  5885  002016                     u10661:
  5886  002016  EF0E  F010         	goto	l2195
  5887  00201A                     u10660:
  5888  00201A  8035               	bsf	___fldiv@b^0,0,c
  5889  00201C                     l2195:
  5890  00201C  90D8               	bcf	status,0,c
  5891  00201E  3648               	rlcf	___fldiv@grs^0,f,c
  5892  002020  3649               	rlcf	(___fldiv@grs+1)^0,f,c
  5893  002022  364A               	rlcf	(___fldiv@grs+2)^0,f,c
  5894  002024  364B               	rlcf	(___fldiv@grs+3)^0,f,c
  5895  002026                     l10268:
  5896  002026  5039               	movf	___fldiv@a^0,w,c
  5897  002028  5C41               	subwf	___fldiv@rem^0,w,c
  5898  00202A  503A               	movf	(___fldiv@a+1)^0,w,c
  5899  00202C  5842               	subwfb	(___fldiv@rem+1)^0,w,c
  5900  00202E  503B               	movf	(___fldiv@a+2)^0,w,c
  5901  002030  5843               	subwfb	(___fldiv@rem+2)^0,w,c
  5902  002032  503C               	movf	(___fldiv@a+3)^0,w,c
  5903  002034  5844               	subwfb	(___fldiv@rem+3)^0,w,c
  5904  002036  A0D8               	btfss	status,0,c
  5905  002038  EF20  F010         	goto	u10671
  5906  00203C  EF22  F010         	goto	u10670
  5907  002040                     u10671:
  5908  002040  EF2B  F010         	goto	l10274
  5909  002044                     u10670:
  5910  002044  8C4B               	bsf	(___fldiv@grs+3)^0,6,c
  5911  002046  5039               	movf	___fldiv@a^0,w,c
  5912  002048  5E41               	subwf	___fldiv@rem^0,f,c
  5913  00204A  503A               	movf	(___fldiv@a+1)^0,w,c
  5914  00204C  5A42               	subwfb	(___fldiv@rem+1)^0,f,c
  5915  00204E  503B               	movf	(___fldiv@a+2)^0,w,c
  5916  002050  5A43               	subwfb	(___fldiv@rem+2)^0,f,c
  5917  002052  503C               	movf	(___fldiv@a+3)^0,w,c
  5918  002054  5A44               	subwfb	(___fldiv@rem+3)^0,f,c
  5919  002056                     l10274:
  5920  002056  2A4D               	incf	___fldiv@aexp^0,f,c
  5921  002058                     l2192:
  5922  002058  0E19               	movlw	25
  5923  00205A  644D               	cpfsgt	___fldiv@aexp^0,c
  5924  00205C  EF32  F010         	goto	u10681
  5925  002060  EF34  F010         	goto	u10680
  5926  002064                     u10681:
  5927  002064  EFF4  F00F         	goto	l10260
  5928  002068                     u10680:
  5929  002068  5041               	movf	___fldiv@rem^0,w,c
  5930  00206A  1042               	iorwf	(___fldiv@rem+1)^0,w,c
  5931  00206C  1043               	iorwf	(___fldiv@rem+2)^0,w,c
  5932  00206E  1044               	iorwf	(___fldiv@rem+3)^0,w,c
  5933  002070  B4D8               	btfsc	status,2,c
  5934  002072  EF3D  F010         	goto	u10691
  5935  002076  EF3F  F010         	goto	u10690
  5936  00207A                     u10691:
  5937  00207A  EF57  F010         	goto	l10286
  5938  00207E                     u10690:
  5939  00207E  8048               	bsf	___fldiv@grs^0,0,c
  5940  002080  EF57  F010         	goto	l10286
  5941  002084                     l10280:
  5942  002084  90D8               	bcf	status,0,c
  5943  002086  3635               	rlcf	___fldiv@b^0,f,c
  5944  002088  3636               	rlcf	(___fldiv@b+1)^0,f,c
  5945  00208A  3637               	rlcf	(___fldiv@b+2)^0,f,c
  5946  00208C  3638               	rlcf	(___fldiv@b+3)^0,f,c
  5947  00208E  AE4B               	btfss	(___fldiv@grs+3)^0,7,c
  5948  002090  EF4C  F010         	goto	u10701
  5949  002094  EF4E  F010         	goto	u10700
  5950  002098                     u10701:
  5951  002098  EF4F  F010         	goto	l2201
  5952  00209C                     u10700:
  5953  00209C  8035               	bsf	___fldiv@b^0,0,c
  5954  00209E                     l2201:
  5955  00209E  90D8               	bcf	status,0,c
  5956  0020A0  3648               	rlcf	___fldiv@grs^0,f,c
  5957  0020A2  3649               	rlcf	(___fldiv@grs+1)^0,f,c
  5958  0020A4  364A               	rlcf	(___fldiv@grs+2)^0,f,c
  5959  0020A6  364B               	rlcf	(___fldiv@grs+3)^0,f,c
  5960  0020A8  0646               	decf	___fldiv@new_exp^0,f,c
  5961  0020AA  A0D8               	btfss	status,0,c
  5962  0020AC  0647               	decf	(___fldiv@new_exp+1)^0,f,c
  5963  0020AE                     l10286:
  5964  0020AE  AE37               	btfss	(___fldiv@b+2)^0,7,c
  5965  0020B0  EF5C  F010         	goto	u10711
  5966  0020B4  EF5E  F010         	goto	u10710
  5967  0020B8                     u10711:
  5968  0020B8  EF42  F010         	goto	l10280
  5969  0020BC                     u10710:
  5970  0020BC  0E00               	movlw	0
  5971  0020BE  6E4D               	movwf	___fldiv@aexp^0,c
  5972  0020C0  AE4B               	btfss	(___fldiv@grs+3)^0,7,c
  5973  0020C2  EF65  F010         	goto	u10721
  5974  0020C6  EF67  F010         	goto	u10720
  5975  0020CA                     u10721:
  5976  0020CA  EF8B  F010         	goto	l2203
  5977  0020CE                     u10720:
  5978  0020CE  0EFF               	movlw	255
  5979  0020D0  1448               	andwf	___fldiv@grs^0,w,c
  5980  0020D2  6E3D               	movwf	??___fldiv^0,c
  5981  0020D4  0EFF               	movlw	255
  5982  0020D6  1449               	andwf	(___fldiv@grs+1)^0,w,c
  5983  0020D8  6E3E               	movwf	(??___fldiv+1)^0,c
  5984  0020DA  0EFF               	movlw	255
  5985  0020DC  144A               	andwf	(___fldiv@grs+2)^0,w,c
  5986  0020DE  6E3F               	movwf	(??___fldiv+2)^0,c
  5987  0020E0  0E7F               	movlw	127
  5988  0020E2  144B               	andwf	(___fldiv@grs+3)^0,w,c
  5989  0020E4  6E40               	movwf	(??___fldiv+3)^0,c
  5990  0020E6  503D               	movf	??___fldiv^0,w,c
  5991  0020E8  103E               	iorwf	(??___fldiv+1)^0,w,c
  5992  0020EA  103F               	iorwf	(??___fldiv+2)^0,w,c
  5993  0020EC  1040               	iorwf	(??___fldiv+3)^0,w,c
  5994  0020EE  B4D8               	btfsc	status,2,c
  5995  0020F0  EF7C  F010         	goto	u10731
  5996  0020F4  EF7E  F010         	goto	u10730
  5997  0020F8                     u10731:
  5998  0020F8  EF82  F010         	goto	l2204
  5999  0020FC                     u10730:
  6000  0020FC                     l10294:
  6001  0020FC  0E01               	movlw	1
  6002  0020FE  6E4D               	movwf	___fldiv@aexp^0,c
  6003  002100  EF8B  F010         	goto	l2203
  6004  002104                     l2204:
  6005  002104  A035               	btfss	___fldiv@b^0,0,c
  6006  002106  EF87  F010         	goto	u10741
  6007  00210A  EF89  F010         	goto	u10740
  6008  00210E                     u10741:
  6009  00210E  EF8B  F010         	goto	l2203
  6010  002112                     u10740:
  6011  002112  EF7E  F010         	goto	l10294
  6012  002116                     l2203:
  6013  002116  504D               	movf	___fldiv@aexp^0,w,c
  6014  002118  B4D8               	btfsc	status,2,c
  6015  00211A  EF91  F010         	goto	u10751
  6016  00211E  EF93  F010         	goto	u10750
  6017  002122                     u10751:
  6018  002122  EFB7  F010         	goto	l10306
  6019  002126                     u10750:
  6020  002126  0E01               	movlw	1
  6021  002128  2635               	addwf	___fldiv@b^0,f,c
  6022  00212A  0E00               	movlw	0
  6023  00212C  2236               	addwfc	(___fldiv@b+1)^0,f,c
  6024  00212E  2237               	addwfc	(___fldiv@b+2)^0,f,c
  6025  002130  2238               	addwfc	(___fldiv@b+3)^0,f,c
  6026  002132  A038               	btfss	(___fldiv@b+3)^0,0,c
  6027  002134  EF9E  F010         	goto	u10761
  6028  002138  EFA0  F010         	goto	u10760
  6029  00213C                     u10761:
  6030  00213C  EFB7  F010         	goto	l10306
  6031  002140                     u10760:
  6032  002140  C035  F03D         	movff	___fldiv@b,??___fldiv
  6033  002144  C036  F03E         	movff	___fldiv@b+1,??___fldiv+1
  6034  002148  C037  F03F         	movff	___fldiv@b+2,??___fldiv+2
  6035  00214C  C038  F040         	movff	___fldiv@b+3,??___fldiv+3
  6036  002150  3440               	rlcf	(??___fldiv+3)^0,w,c
  6037  002152  3240               	rrcf	(??___fldiv+3)^0,f,c
  6038  002154  323F               	rrcf	(??___fldiv+2)^0,f,c
  6039  002156  323E               	rrcf	(??___fldiv+1)^0,f,c
  6040  002158  323D               	rrcf	??___fldiv^0,f,c
  6041  00215A  C03D  F035         	movff	??___fldiv,___fldiv@b
  6042  00215E  C03E  F036         	movff	??___fldiv+1,___fldiv@b+1
  6043  002162  C03F  F037         	movff	??___fldiv+2,___fldiv@b+2
  6044  002166  C040  F038         	movff	??___fldiv+3,___fldiv@b+3
  6045  00216A  4A46               	infsnz	___fldiv@new_exp^0,f,c
  6046  00216C  2A47               	incf	(___fldiv@new_exp+1)^0,f,c
  6047  00216E                     l10306:
  6048  00216E  BE47               	btfsc	(___fldiv@new_exp+1)^0,7,c
  6049  002170  EFC2  F010         	goto	u10771
  6050  002174  5047               	movf	(___fldiv@new_exp+1)^0,w,c
  6051  002176  E108               	bnz	u10770
  6052  002178  2846               	incf	___fldiv@new_exp^0,w,c
  6053  00217A  A0D8               	btfss	status,0,c
  6054  00217C  EFC2  F010         	goto	u10771
  6055  002180  EFC4  F010         	goto	u10770
  6056  002184                     u10771:
  6057  002184  EFCF  F010         	goto	l10310
  6058  002188                     u10770:
  6059  002188  0E00               	movlw	0
  6060  00218A  6E47               	movwf	(___fldiv@new_exp+1)^0,c
  6061  00218C  6846               	setf	___fldiv@new_exp^0,c
  6062  00218E  0E00               	movlw	0
  6063  002190  6E35               	movwf	___fldiv@b^0,c
  6064  002192  0E00               	movlw	0
  6065  002194  6E36               	movwf	(___fldiv@b+1)^0,c
  6066  002196  0E00               	movlw	0
  6067  002198  6E37               	movwf	(___fldiv@b+2)^0,c
  6068  00219A  0E00               	movlw	0
  6069  00219C  6E38               	movwf	(___fldiv@b+3)^0,c
  6070  00219E                     l10310:
  6071  00219E  BE47               	btfsc	(___fldiv@new_exp+1)^0,7,c
  6072  0021A0  EFDC  F010         	goto	u10780
  6073  0021A4  5047               	movf	(___fldiv@new_exp+1)^0,w,c
  6074  0021A6  E106               	bnz	u10781
  6075  0021A8  0446               	decf	___fldiv@new_exp^0,w,c
  6076  0021AA  B0D8               	btfsc	status,0,c
  6077  0021AC  EFDA  F010         	goto	u10781
  6078  0021B0  EFDC  F010         	goto	u10780
  6079  0021B4                     u10781:
  6080  0021B4  EFEA  F010         	goto	l10314
  6081  0021B8                     u10780:
  6082  0021B8  0E00               	movlw	0
  6083  0021BA  6E47               	movwf	(___fldiv@new_exp+1)^0,c
  6084  0021BC  0E00               	movlw	0
  6085  0021BE  6E46               	movwf	___fldiv@new_exp^0,c
  6086  0021C0  0E00               	movlw	0
  6087  0021C2  6E35               	movwf	___fldiv@b^0,c
  6088  0021C4  0E00               	movlw	0
  6089  0021C6  6E36               	movwf	(___fldiv@b+1)^0,c
  6090  0021C8  0E00               	movlw	0
  6091  0021CA  6E37               	movwf	(___fldiv@b+2)^0,c
  6092  0021CC  0E00               	movlw	0
  6093  0021CE  6E38               	movwf	(___fldiv@b+3)^0,c
  6094  0021D0  0E00               	movlw	0
  6095  0021D2  6E45               	movwf	___fldiv@sign^0,c
  6096  0021D4                     l10314:
  6097  0021D4  C046  F04C         	movff	___fldiv@new_exp,___fldiv@bexp
  6098  0021D8  A04C               	btfss	___fldiv@bexp^0,0,c
  6099  0021DA  EFF1  F010         	goto	u10791
  6100  0021DE  EFF3  F010         	goto	u10790
  6101  0021E2                     u10791:
  6102  0021E2  EFF6  F010         	goto	l10320
  6103  0021E6                     u10790:
  6104  0021E6  8E37               	bsf	(___fldiv@b+2)^0,7,c
  6105  0021E8  EFF7  F010         	goto	l10322
  6106  0021EC                     l10320:
  6107  0021EC  9E37               	bcf	(___fldiv@b+2)^0,7,c
  6108  0021EE                     l10322:
  6109  0021EE  90D8               	bcf	status,0,c
  6110  0021F0  304C               	rrcf	___fldiv@bexp^0,w,c
  6111  0021F2  6E38               	movwf	(___fldiv@b+3)^0,c
  6112  0021F4  EFAD  F00F         	goto	l10236
  6113  0021F8                     l2190:
  6114  0021F8  0012               	return		;funcret
  6115  0021FA                     __end_of___fldiv:
  6116                           	callstack 0
  6117                           
  6118 ;; *************** function ___fladd *****************
  6119 ;; Defined at:
  6120 ;;		line 10 in file "C:\Program Files\Microchip\xc8\v2.36\pic\sources\c99\common\sprcadd.c"
  6121 ;; Parameters:    Size  Location     Type
  6122 ;;  b               4   77[COMRAM] unsigned char 
  6123 ;;  a               4   81[COMRAM] unsigned char 
  6124 ;; Auto vars:     Size  Location     Type
  6125 ;;  grs             1   92[COMRAM] unsigned char 
  6126 ;;  bexp            1   91[COMRAM] unsigned char 
  6127 ;;  aexp            1   90[COMRAM] unsigned char 
  6128 ;;  signs           1   89[COMRAM] unsigned char 
  6129 ;; Return value:  Size  Location     Type
  6130 ;;                  4   77[COMRAM] unsigned char 
  6131 ;; Registers used:
  6132 ;;		wreg, status,2, status,0
  6133 ;; Tracked objects:
  6134 ;;		On entry : 0/0
  6135 ;;		On exit  : 0/0
  6136 ;;		Unchanged: 0/0
  6137 ;; Data sizes:     COMRAM   BANK0   BANK1   BANK2   BANK3   BANK4   BANK5   BANK6   BANK7   BANK8   BANK9  BANK10  BANK1
      +1  BANK12  BANK13  BANK14  BANK15
  6138 ;;      Params:         8       0       0       0       0       0       0       0       0       0       0       0       
      +0       0       0       0       0
  6139 ;;      Locals:         4       0       0       0       0       0       0       0       0       0       0       0       
      +0       0       0       0       0
  6140 ;;      Temps:          4       0       0       0       0       0       0       0       0       0       0       0       
      +0       0       0       0       0
  6141 ;;      Totals:        16       0       0       0       0       0       0       0       0       0       0       0       
      +0       0       0       0       0
  6142 ;;Total ram usage:       16 bytes
  6143 ;; Hardware stack levels used: 1
  6144 ;; Hardware stack levels required when called: 4
  6145 ;; This function calls:
  6146 ;;		Nothing
  6147 ;; This function is called by:
  6148 ;;		_hal_ccp_init
  6149 ;; This function uses a non-reentrant model
  6150 ;;
  6151                           
  6152                           	psect	text26
  6153  001576                     __ptext26:
  6154                           	callstack 0
  6155  001576                     ___fladd:
  6156                           	callstack 25
  6157  001576  5051               	movf	(___fladd@b+3)^0,w,c
  6158  001578  0B80               	andlw	128
  6159  00157A  6E5A               	movwf	___fladd@signs^0,c
  6160  00157C  5051               	movf	(___fladd@b+3)^0,w,c
  6161  00157E  2451               	addwf	(___fladd@b+3)^0,w,c
  6162  001580  6E5C               	movwf	___fladd@bexp^0,c
  6163  001582  AE50               	btfss	(___fladd@b+2)^0,7,c
  6164  001584  EFC6  F00A         	goto	u10181
  6165  001588  EFC8  F00A         	goto	u10180
  6166  00158C                     u10181:
  6167  00158C  EFC9  F00A         	goto	l9996
  6168  001590                     u10180:
  6169  001590  805C               	bsf	___fladd@bexp^0,0,c
  6170  001592                     l9996:
  6171  001592  505C               	movf	___fladd@bexp^0,w,c
  6172  001594  B4D8               	btfsc	status,2,c
  6173  001596  EFCF  F00A         	goto	u10191
  6174  00159A  EFD1  F00A         	goto	u10190
  6175  00159E                     u10191:
  6176  00159E  EFE6  F00A         	goto	l10006
  6177  0015A2                     u10190:
  6178  0015A2  285C               	incf	___fladd@bexp^0,w,c
  6179  0015A4  A4D8               	btfss	status,2,c
  6180  0015A6  EFD7  F00A         	goto	u10201
  6181  0015AA  EFD9  F00A         	goto	u10200
  6182  0015AE                     u10201:
  6183  0015AE  EFE1  F00A         	goto	l10002
  6184  0015B2                     u10200:
  6185  0015B2  0E00               	movlw	0
  6186  0015B4  6E4E               	movwf	___fladd@b^0,c
  6187  0015B6  0E00               	movlw	0
  6188  0015B8  6E4F               	movwf	(___fladd@b+1)^0,c
  6189  0015BA  0E00               	movlw	0
  6190  0015BC  6E50               	movwf	(___fladd@b+2)^0,c
  6191  0015BE  0E00               	movlw	0
  6192  0015C0  6E51               	movwf	(___fladd@b+3)^0,c
  6193  0015C2                     l10002:
  6194  0015C2  8E50               	bsf	(___fladd@b+2)^0,7,c
  6195  0015C4  0E00               	movlw	0
  6196  0015C6  6E51               	movwf	(___fladd@b+3)^0,c
  6197  0015C8  EFEE  F00A         	goto	l10008
  6198  0015CC                     l10006:
  6199  0015CC  0E00               	movlw	0
  6200  0015CE  6E4E               	movwf	___fladd@b^0,c
  6201  0015D0  0E00               	movlw	0
  6202  0015D2  6E4F               	movwf	(___fladd@b+1)^0,c
  6203  0015D4  0E00               	movlw	0
  6204  0015D6  6E50               	movwf	(___fladd@b+2)^0,c
  6205  0015D8  0E00               	movlw	0
  6206  0015DA  6E51               	movwf	(___fladd@b+3)^0,c
  6207  0015DC                     l10008:
  6208  0015DC  5055               	movf	(___fladd@a+3)^0,w,c
  6209  0015DE  0B80               	andlw	128
  6210  0015E0  6E5B               	movwf	___fladd@aexp^0,c
  6211  0015E2  505A               	movf	___fladd@signs^0,w,c
  6212  0015E4  185B               	xorwf	___fladd@aexp^0,w,c
  6213  0015E6  B4D8               	btfsc	status,2,c
  6214  0015E8  EFF8  F00A         	goto	u10211
  6215  0015EC  EFFA  F00A         	goto	u10210
  6216  0015F0                     u10211:
  6217  0015F0  EFFB  F00A         	goto	l10014
  6218  0015F4                     u10210:
  6219  0015F4  8C5A               	bsf	___fladd@signs^0,6,c
  6220  0015F6                     l10014:
  6221  0015F6  5055               	movf	(___fladd@a+3)^0,w,c
  6222  0015F8  2455               	addwf	(___fladd@a+3)^0,w,c
  6223  0015FA  6E5B               	movwf	___fladd@aexp^0,c
  6224  0015FC  AE54               	btfss	(___fladd@a+2)^0,7,c
  6225  0015FE  EF03  F00B         	goto	u10221
  6226  001602  EF05  F00B         	goto	u10220
  6227  001606                     u10221:
  6228  001606  EF06  F00B         	goto	l10020
  6229  00160A                     u10220:
  6230  00160A  805B               	bsf	___fladd@aexp^0,0,c
  6231  00160C                     l10020:
  6232  00160C  505B               	movf	___fladd@aexp^0,w,c
  6233  00160E  B4D8               	btfsc	status,2,c
  6234  001610  EF0C  F00B         	goto	u10231
  6235  001614  EF0E  F00B         	goto	u10230
  6236  001618                     u10231:
  6237  001618  EF23  F00B         	goto	l10030
  6238  00161C                     u10230:
  6239  00161C  285B               	incf	___fladd@aexp^0,w,c
  6240  00161E  A4D8               	btfss	status,2,c
  6241  001620  EF14  F00B         	goto	u10241
  6242  001624  EF16  F00B         	goto	u10240
  6243  001628                     u10241:
  6244  001628  EF1E  F00B         	goto	l10026
  6245  00162C                     u10240:
  6246  00162C  0E00               	movlw	0
  6247  00162E  6E52               	movwf	___fladd@a^0,c
  6248  001630  0E00               	movlw	0
  6249  001632  6E53               	movwf	(___fladd@a+1)^0,c
  6250  001634  0E00               	movlw	0
  6251  001636  6E54               	movwf	(___fladd@a+2)^0,c
  6252  001638  0E00               	movlw	0
  6253  00163A  6E55               	movwf	(___fladd@a+3)^0,c
  6254  00163C                     l10026:
  6255  00163C  8E54               	bsf	(___fladd@a+2)^0,7,c
  6256  00163E  0E00               	movlw	0
  6257  001640  6E55               	movwf	(___fladd@a+3)^0,c
  6258  001642  EF2B  F00B         	goto	l10032
  6259  001646                     l10030:
  6260  001646  0E00               	movlw	0
  6261  001648  6E52               	movwf	___fladd@a^0,c
  6262  00164A  0E00               	movlw	0
  6263  00164C  6E53               	movwf	(___fladd@a+1)^0,c
  6264  00164E  0E00               	movlw	0
  6265  001650  6E54               	movwf	(___fladd@a+2)^0,c
  6266  001652  0E00               	movlw	0
  6267  001654  6E55               	movwf	(___fladd@a+3)^0,c
  6268  001656                     l10032:
  6269  001656  505C               	movf	___fladd@bexp^0,w,c
  6270  001658  5C5B               	subwf	___fladd@aexp^0,w,c
  6271  00165A  B0D8               	btfsc	status,0,c
  6272  00165C  EF32  F00B         	goto	u10251
  6273  001660  EF34  F00B         	goto	u10250
  6274  001664                     u10251:
  6275  001664  EF5B  F00B         	goto	l10068
  6276  001668                     u10250:
  6277  001668  AC5A               	btfss	___fladd@signs^0,6,c
  6278  00166A  EF39  F00B         	goto	u10261
  6279  00166E  EF3B  F00B         	goto	u10260
  6280  001672                     u10261:
  6281  001672  EF3D  F00B         	goto	l10038
  6282  001676                     u10260:
  6283  001676  0E80               	movlw	128
  6284  001678  1A5A               	xorwf	___fladd@signs^0,f,c
  6285  00167A                     l10038:
  6286  00167A  C05C  F05D         	movff	___fladd@bexp,___fladd@grs
  6287  00167E  C05B  F05C         	movff	___fladd@aexp,___fladd@bexp
  6288  001682  C05D  F05B         	movff	___fladd@grs,___fladd@aexp
  6289  001686  C04E  F05D         	movff	___fladd@b,___fladd@grs
  6290  00168A  C052  F04E         	movff	___fladd@a,___fladd@b
  6291  00168E  C05D  F052         	movff	___fladd@grs,___fladd@a
  6292  001692  C04F  F05D         	movff	___fladd@b+1,___fladd@grs
  6293  001696  C053  F04F         	movff	___fladd@a+1,___fladd@b+1
  6294  00169A  C05D  F053         	movff	___fladd@grs,___fladd@a+1
  6295  00169E  C050  F05D         	movff	___fladd@b+2,___fladd@grs
  6296  0016A2  C054  F050         	movff	___fladd@a+2,___fladd@b+2
  6297  0016A6  C05D  F054         	movff	___fladd@grs,___fladd@a+2
  6298  0016AA  C051  F05D         	movff	___fladd@b+3,___fladd@grs
  6299  0016AE  C055  F051         	movff	___fladd@a+3,___fladd@b+3
  6300  0016B2  C05D  F055         	movff	___fladd@grs,___fladd@a+3
  6301  0016B6                     l10068:
  6302  0016B6  0E00               	movlw	0
  6303  0016B8  6E5D               	movwf	___fladd@grs^0,c
  6304  0016BA  505C               	movf	___fladd@bexp^0,w,c
  6305  0016BC  C05B  F056         	movff	___fladd@aexp,??___fladd
  6306  0016C0  6A57               	clrf	(??___fladd+1)^0,c
  6307  0016C2  5E56               	subwf	??___fladd^0,f,c
  6308  0016C4  0E00               	movlw	0
  6309  0016C6  5A57               	subwfb	(??___fladd+1)^0,f,c
  6310  0016C8  BE57               	btfsc	(??___fladd+1)^0,7,c
  6311  0016CA  EF70  F00B         	goto	u10271
  6312  0016CE  5057               	movf	(??___fladd+1)^0,w,c
  6313  0016D0  E109               	bnz	u10270
  6314  0016D2  0E1A               	movlw	26
  6315  0016D4  5C56               	subwf	??___fladd^0,w,c
  6316  0016D6  A0D8               	btfss	status,0,c
  6317  0016D8  EF70  F00B         	goto	u10271
  6318  0016DC  EF72  F00B         	goto	u10270
  6319  0016E0                     u10271:
  6320  0016E0  EFA9  F00B         	goto	l2137
  6321  0016E4                     u10270:
  6322  0016E4  504E               	movf	___fladd@b^0,w,c
  6323  0016E6  104F               	iorwf	(___fladd@b+1)^0,w,c
  6324  0016E8  1050               	iorwf	(___fladd@b+2)^0,w,c
  6325  0016EA  1051               	iorwf	(___fladd@b+3)^0,w,c
  6326  0016EC  A4D8               	btfss	status,2,c
  6327  0016EE  EF7B  F00B         	goto	u10281
  6328  0016F2  EF7E  F00B         	goto	u10280
  6329  0016F6                     u10281:
  6330  0016F6  0E01               	movlw	1
  6331  0016F8  EF7F  F00B         	goto	u10290
  6332  0016FC                     u10280:
  6333  0016FC  0E00               	movlw	0
  6334  0016FE                     u10290:
  6335  0016FE  6E5D               	movwf	___fladd@grs^0,c
  6336  001700  0E00               	movlw	0
  6337  001702  6E4E               	movwf	___fladd@b^0,c
  6338  001704  0E00               	movlw	0
  6339  001706  6E4F               	movwf	(___fladd@b+1)^0,c
  6340  001708  0E00               	movlw	0
  6341  00170A  6E50               	movwf	(___fladd@b+2)^0,c
  6342  00170C  0E00               	movlw	0
  6343  00170E  6E51               	movwf	(___fladd@b+3)^0,c
  6344  001710  C05B  F05C         	movff	___fladd@aexp,___fladd@bexp
  6345  001714  EFB2  F00B         	goto	l2136
  6346  001718                     l2138:
  6347  001718  A05D               	btfss	___fladd@grs^0,0,c
  6348  00171A  EF91  F00B         	goto	u10301
  6349  00171E  EF93  F00B         	goto	u10300
  6350  001722                     u10301:
  6351  001722  EF99  F00B         	goto	l10080
  6352  001726                     u10300:
  6353  001726  90D8               	bcf	status,0,c
  6354  001728  305D               	rrcf	___fladd@grs^0,w,c
  6355  00172A  0901               	iorlw	1
  6356  00172C  6E5D               	movwf	___fladd@grs^0,c
  6357  00172E  EF9B  F00B         	goto	l10082
  6358  001732                     l10080:
  6359  001732  90D8               	bcf	status,0,c
  6360  001734  325D               	rrcf	___fladd@grs^0,f,c
  6361  001736                     l10082:
  6362  001736  A04E               	btfss	___fladd@b^0,0,c
  6363  001738  EFA0  F00B         	goto	u10311
  6364  00173C  EFA2  F00B         	goto	u10310
  6365  001740                     u10311:
  6366  001740  EFA3  F00B         	goto	l10086
  6367  001744                     u10310:
  6368  001744  8E5D               	bsf	___fladd@grs^0,7,c
  6369  001746                     l10086:
  6370  001746  3451               	rlcf	(___fladd@b+3)^0,w,c
  6371  001748  3251               	rrcf	(___fladd@b+3)^0,f,c
  6372  00174A  3250               	rrcf	(___fladd@b+2)^0,f,c
  6373  00174C  324F               	rrcf	(___fladd@b+1)^0,f,c
  6374  00174E  324E               	rrcf	___fladd@b^0,f,c
  6375  001750  2A5C               	incf	___fladd@bexp^0,f,c
  6376  001752                     l2137:
  6377  001752  505B               	movf	___fladd@aexp^0,w,c
  6378  001754  5C5C               	subwf	___fladd@bexp^0,w,c
  6379  001756  A0D8               	btfss	status,0,c
  6380  001758  EFB0  F00B         	goto	u10321
  6381  00175C  EFB2  F00B         	goto	u10320
  6382  001760                     u10321:
  6383  001760  EF8C  F00B         	goto	l2138
  6384  001764                     u10320:
  6385  001764                     l2136:
  6386  001764  BC5A               	btfsc	___fladd@signs^0,6,c
  6387  001766  EFB7  F00B         	goto	u10331
  6388  00176A  EFB9  F00B         	goto	u10330
  6389  00176E                     u10331:
  6390  00176E  EFF9  F00B         	goto	l10114
  6391  001772                     u10330:
  6392  001772  505C               	movf	___fladd@bexp^0,w,c
  6393  001774  A4D8               	btfss	status,2,c
  6394  001776  EFBF  F00B         	goto	u10341
  6395  00177A  EFC1  F00B         	goto	u10340
  6396  00177E                     u10341:
  6397  00177E  EFCB  F00B         	goto	l10096
  6398  001782                     u10340:
  6399  001782  0E00               	movlw	0
  6400  001784  6E4E               	movwf	?___fladd^0,c
  6401  001786  0E00               	movlw	0
  6402  001788  6E4F               	movwf	(?___fladd+1)^0,c
  6403  00178A  0E00               	movlw	0
  6404  00178C  6E50               	movwf	(?___fladd+2)^0,c
  6405  00178E  0E00               	movlw	0
  6406  001790  6E51               	movwf	(?___fladd+3)^0,c
  6407  001792  EF1A  F00D         	goto	l2145
  6408  001796                     l10096:
  6409  001796  5052               	movf	___fladd@a^0,w,c
  6410  001798  264E               	addwf	___fladd@b^0,f,c
  6411  00179A  5053               	movf	(___fladd@a+1)^0,w,c
  6412  00179C  224F               	addwfc	(___fladd@b+1)^0,f,c
  6413  00179E  5054               	movf	(___fladd@a+2)^0,w,c
  6414  0017A0  2250               	addwfc	(___fladd@b+2)^0,f,c
  6415  0017A2  5055               	movf	(___fladd@a+3)^0,w,c
  6416  0017A4  2251               	addwfc	(___fladd@b+3)^0,f,c
  6417  0017A6  A051               	btfss	(___fladd@b+3)^0,0,c
  6418  0017A8  EFD8  F00B         	goto	u10351
  6419  0017AC  EFDA  F00B         	goto	u10350
  6420  0017B0                     u10351:
  6421  0017B0  EF86  F00C         	goto	l10150
  6422  0017B4                     u10350:
  6423  0017B4  A05D               	btfss	___fladd@grs^0,0,c
  6424  0017B6  EFDF  F00B         	goto	u10361
  6425  0017BA  EFE1  F00B         	goto	u10360
  6426  0017BE                     u10361:
  6427  0017BE  EFE7  F00B         	goto	l10104
  6428  0017C2                     u10360:
  6429  0017C2  90D8               	bcf	status,0,c
  6430  0017C4  305D               	rrcf	___fladd@grs^0,w,c
  6431  0017C6  0901               	iorlw	1
  6432  0017C8  6E5D               	movwf	___fladd@grs^0,c
  6433  0017CA  EFE9  F00B         	goto	l10106
  6434  0017CE                     l10104:
  6435  0017CE  90D8               	bcf	status,0,c
  6436  0017D0  325D               	rrcf	___fladd@grs^0,f,c
  6437  0017D2                     l10106:
  6438  0017D2  A04E               	btfss	___fladd@b^0,0,c
  6439  0017D4  EFEE  F00B         	goto	u10371
  6440  0017D8  EFF0  F00B         	goto	u10370
  6441  0017DC                     u10371:
  6442  0017DC  EFF1  F00B         	goto	l10110
  6443  0017E0                     u10370:
  6444  0017E0  8E5D               	bsf	___fladd@grs^0,7,c
  6445  0017E2                     l10110:
  6446  0017E2  3451               	rlcf	(___fladd@b+3)^0,w,c
  6447  0017E4  3251               	rrcf	(___fladd@b+3)^0,f,c
  6448  0017E6  3250               	rrcf	(___fladd@b+2)^0,f,c
  6449  0017E8  324F               	rrcf	(___fladd@b+1)^0,f,c
  6450  0017EA  324E               	rrcf	___fladd@b^0,f,c
  6451  0017EC  2A5C               	incf	___fladd@bexp^0,f,c
  6452  0017EE  EF86  F00C         	goto	l10150
  6453  0017F2                     l10114:
  6454  0017F2  5052               	movf	___fladd@a^0,w,c
  6455  0017F4  5C4E               	subwf	___fladd@b^0,w,c
  6456  0017F6  5053               	movf	(___fladd@a+1)^0,w,c
  6457  0017F8  584F               	subwfb	(___fladd@b+1)^0,w,c
  6458  0017FA  5054               	movf	(___fladd@a+2)^0,w,c
  6459  0017FC  5850               	subwfb	(___fladd@b+2)^0,w,c
  6460  0017FE  5051               	movf	(___fladd@b+3)^0,w,c
  6461  001800  0A80               	xorlw	128
  6462  001802  6E56               	movwf	??___fladd^0,c
  6463  001804  5055               	movf	(___fladd@a+3)^0,w,c
  6464  001806  0A80               	xorlw	128
  6465  001808  5856               	subwfb	??___fladd^0,w,c
  6466  00180A  B0D8               	btfsc	status,0,c
  6467  00180C  EF0A  F00C         	goto	u10381
  6468  001810  EF0C  F00C         	goto	u10380
  6469  001814                     u10381:
  6470  001814  EF37  F00C         	goto	l10124
  6471  001818                     u10380:
  6472  001818  504E               	movf	___fladd@b^0,w,c
  6473  00181A  5C52               	subwf	___fladd@a^0,w,c
  6474  00181C  6E56               	movwf	??___fladd^0,c
  6475  00181E  504F               	movf	(___fladd@b+1)^0,w,c
  6476  001820  5853               	subwfb	(___fladd@a+1)^0,w,c
  6477  001822  6E57               	movwf	(??___fladd+1)^0,c
  6478  001824  5050               	movf	(___fladd@b+2)^0,w,c
  6479  001826  5854               	subwfb	(___fladd@a+2)^0,w,c
  6480  001828  6E58               	movwf	(??___fladd+2)^0,c
  6481  00182A  5051               	movf	(___fladd@b+3)^0,w,c
  6482  00182C  5855               	subwfb	(___fladd@a+3)^0,w,c
  6483  00182E  6E59               	movwf	(??___fladd+3)^0,c
  6484  001830  0EFF               	movlw	255
  6485  001832  2456               	addwf	??___fladd^0,w,c
  6486  001834  6E4E               	movwf	___fladd@b^0,c
  6487  001836  0EFF               	movlw	255
  6488  001838  2057               	addwfc	(??___fladd+1)^0,w,c
  6489  00183A  6E4F               	movwf	(___fladd@b+1)^0,c
  6490  00183C  0EFF               	movlw	255
  6491  00183E  2058               	addwfc	(??___fladd+2)^0,w,c
  6492  001840  6E50               	movwf	(___fladd@b+2)^0,c
  6493  001842  0EFF               	movlw	255
  6494  001844  2059               	addwfc	(??___fladd+3)^0,w,c
  6495  001846  6E51               	movwf	(___fladd@b+3)^0,c
  6496  001848  0E80               	movlw	128
  6497  00184A  1A5A               	xorwf	___fladd@signs^0,f,c
  6498  00184C  6C5D               	negf	___fladd@grs^0,c
  6499  00184E  505D               	movf	___fladd@grs^0,w,c
  6500  001850  A4D8               	btfss	status,2,c
  6501  001852  EF2D  F00C         	goto	u10391
  6502  001856  EF2F  F00C         	goto	u10390
  6503  00185A                     u10391:
  6504  00185A  EF3F  F00C         	goto	l2153
  6505  00185E                     u10390:
  6506  00185E  0E01               	movlw	1
  6507  001860  264E               	addwf	___fladd@b^0,f,c
  6508  001862  0E00               	movlw	0
  6509  001864  224F               	addwfc	(___fladd@b+1)^0,f,c
  6510  001866  2250               	addwfc	(___fladd@b+2)^0,f,c
  6511  001868  2251               	addwfc	(___fladd@b+3)^0,f,c
  6512  00186A  EF3F  F00C         	goto	l2153
  6513  00186E                     l10124:
  6514  00186E  5052               	movf	___fladd@a^0,w,c
  6515  001870  5E4E               	subwf	___fladd@b^0,f,c
  6516  001872  5053               	movf	(___fladd@a+1)^0,w,c
  6517  001874  5A4F               	subwfb	(___fladd@b+1)^0,f,c
  6518  001876  5054               	movf	(___fladd@a+2)^0,w,c
  6519  001878  5A50               	subwfb	(___fladd@b+2)^0,f,c
  6520  00187A  5055               	movf	(___fladd@a+3)^0,w,c
  6521  00187C  5A51               	subwfb	(___fladd@b+3)^0,f,c
  6522  00187E                     l2153:
  6523  00187E  504E               	movf	___fladd@b^0,w,c
  6524  001880  104F               	iorwf	(___fladd@b+1)^0,w,c
  6525  001882  1050               	iorwf	(___fladd@b+2)^0,w,c
  6526  001884  1051               	iorwf	(___fladd@b+3)^0,w,c
  6527  001886  A4D8               	btfss	status,2,c
  6528  001888  EF48  F00C         	goto	u10401
  6529  00188C  EF4A  F00C         	goto	u10400
  6530  001890                     u10401:
  6531  001890  EF7F  F00C         	goto	l10148
  6532  001894                     u10400:
  6533  001894  505D               	movf	___fladd@grs^0,w,c
  6534  001896  A4D8               	btfss	status,2,c
  6535  001898  EF50  F00C         	goto	u10411
  6536  00189C  EF52  F00C         	goto	u10410
  6537  0018A0                     u10411:
  6538  0018A0  EF7F  F00C         	goto	l10148
  6539  0018A4                     u10410:
  6540  0018A4  0E00               	movlw	0
  6541  0018A6  6E4E               	movwf	?___fladd^0,c
  6542  0018A8  0E00               	movlw	0
  6543  0018AA  6E4F               	movwf	(?___fladd+1)^0,c
  6544  0018AC  0E00               	movlw	0
  6545  0018AE  6E50               	movwf	(?___fladd+2)^0,c
  6546  0018B0  0E00               	movlw	0
  6547  0018B2  6E51               	movwf	(?___fladd+3)^0,c
  6548  0018B4  EF1A  F00D         	goto	l2145
  6549  0018B8                     l10132:
  6550  0018B8  90D8               	bcf	status,0,c
  6551  0018BA  364E               	rlcf	___fladd@b^0,f,c
  6552  0018BC  364F               	rlcf	(___fladd@b+1)^0,f,c
  6553  0018BE  3650               	rlcf	(___fladd@b+2)^0,f,c
  6554  0018C0  3651               	rlcf	(___fladd@b+3)^0,f,c
  6555  0018C2  AE5D               	btfss	___fladd@grs^0,7,c
  6556  0018C4  EF66  F00C         	goto	u10421
  6557  0018C8  EF68  F00C         	goto	u10420
  6558  0018CC                     u10421:
  6559  0018CC  EF69  F00C         	goto	l10138
  6560  0018D0                     u10420:
  6561  0018D0  804E               	bsf	___fladd@b^0,0,c
  6562  0018D2                     l10138:
  6563  0018D2  A05D               	btfss	___fladd@grs^0,0,c
  6564  0018D4  EF6E  F00C         	goto	u10431
  6565  0018D8  EF70  F00C         	goto	u10430
  6566  0018DC                     u10431:
  6567  0018DC  EF74  F00C         	goto	l10142
  6568  0018E0                     u10430:
  6569  0018E0  80D8               	bsf	status,0,c
  6570  0018E2  365D               	rlcf	___fladd@grs^0,f,c
  6571  0018E4  EF76  F00C         	goto	l10144
  6572  0018E8                     l10142:
  6573  0018E8  90D8               	bcf	status,0,c
  6574  0018EA  365D               	rlcf	___fladd@grs^0,f,c
  6575  0018EC                     l10144:
  6576  0018EC  505C               	movf	___fladd@bexp^0,w,c
  6577  0018EE  B4D8               	btfsc	status,2,c
  6578  0018F0  EF7C  F00C         	goto	u10441
  6579  0018F4  EF7E  F00C         	goto	u10440
  6580  0018F8                     u10441:
  6581  0018F8  EF7F  F00C         	goto	l10148
  6582  0018FC                     u10440:
  6583  0018FC  065C               	decf	___fladd@bexp^0,f,c
  6584  0018FE                     l10148:
  6585  0018FE  AE50               	btfss	(___fladd@b+2)^0,7,c
  6586  001900  EF84  F00C         	goto	u10451
  6587  001904  EF86  F00C         	goto	u10450
  6588  001908                     u10451:
  6589  001908  EF5C  F00C         	goto	l10132
  6590  00190C                     u10450:
  6591  00190C                     l10150:
  6592  00190C  0E00               	movlw	0
  6593  00190E  6E5B               	movwf	___fladd@aexp^0,c
  6594  001910  AE5D               	btfss	___fladd@grs^0,7,c
  6595  001912  EF8D  F00C         	goto	u10461
  6596  001916  EF8F  F00C         	goto	u10460
  6597  00191A                     u10461:
  6598  00191A  EFA7  F00C         	goto	l2162
  6599  00191E                     u10460:
  6600  00191E  C05D  F056         	movff	___fladd@grs,??___fladd
  6601  001922  0E7F               	movlw	127
  6602  001924  1656               	andwf	??___fladd^0,f,c
  6603  001926  B4D8               	btfsc	status,2,c
  6604  001928  EF98  F00C         	goto	u10471
  6605  00192C  EF9A  F00C         	goto	u10470
  6606  001930                     u10471:
  6607  001930  EF9E  F00C         	goto	l2163
  6608  001934                     u10470:
  6609  001934                     l10156:
  6610  001934  0E01               	movlw	1
  6611  001936  6E5B               	movwf	___fladd@aexp^0,c
  6612  001938  EFA7  F00C         	goto	l2162
  6613  00193C                     l2163:
  6614  00193C  A04E               	btfss	___fladd@b^0,0,c
  6615  00193E  EFA3  F00C         	goto	u10481
  6616  001942  EFA5  F00C         	goto	u10480
  6617  001946                     u10481:
  6618  001946  EFA7  F00C         	goto	l2162
  6619  00194A                     u10480:
  6620  00194A  EF9A  F00C         	goto	l10156
  6621  00194E                     l2162:
  6622  00194E  505B               	movf	___fladd@aexp^0,w,c
  6623  001950  B4D8               	btfsc	status,2,c
  6624  001952  EFAD  F00C         	goto	u10491
  6625  001956  EFAF  F00C         	goto	u10490
  6626  00195A                     u10491:
  6627  00195A  EFDA  F00C         	goto	l10168
  6628  00195E                     u10490:
  6629  00195E  0E01               	movlw	1
  6630  001960  264E               	addwf	___fladd@b^0,f,c
  6631  001962  0E00               	movlw	0
  6632  001964  224F               	addwfc	(___fladd@b+1)^0,f,c
  6633  001966  2250               	addwfc	(___fladd@b+2)^0,f,c
  6634  001968  2251               	addwfc	(___fladd@b+3)^0,f,c
  6635  00196A  A051               	btfss	(___fladd@b+3)^0,0,c
  6636  00196C  EFBA  F00C         	goto	u10501
  6637  001970  EFBC  F00C         	goto	u10500
  6638  001974                     u10501:
  6639  001974  EFDA  F00C         	goto	l10168
  6640  001978                     u10500:
  6641  001978  C04E  F056         	movff	___fladd@b,??___fladd
  6642  00197C  C04F  F057         	movff	___fladd@b+1,??___fladd+1
  6643  001980  C050  F058         	movff	___fladd@b+2,??___fladd+2
  6644  001984  C051  F059         	movff	___fladd@b+3,??___fladd+3
  6645  001988  3459               	rlcf	(??___fladd+3)^0,w,c
  6646  00198A  3259               	rrcf	(??___fladd+3)^0,f,c
  6647  00198C  3258               	rrcf	(??___fladd+2)^0,f,c
  6648  00198E  3257               	rrcf	(??___fladd+1)^0,f,c
  6649  001990  3256               	rrcf	??___fladd^0,f,c
  6650  001992  C056  F04E         	movff	??___fladd,___fladd@b
  6651  001996  C057  F04F         	movff	??___fladd+1,___fladd@b+1
  6652  00199A  C058  F050         	movff	??___fladd+2,___fladd@b+2
  6653  00199E  C059  F051         	movff	??___fladd+3,___fladd@b+3
  6654  0019A2  285C               	incf	___fladd@bexp^0,w,c
  6655  0019A4  B4D8               	btfsc	status,2,c
  6656  0019A6  EFD7  F00C         	goto	u10511
  6657  0019AA  EFD9  F00C         	goto	u10510
  6658  0019AE                     u10511:
  6659  0019AE  EFDA  F00C         	goto	l10168
  6660  0019B2                     u10510:
  6661  0019B2  2A5C               	incf	___fladd@bexp^0,f,c
  6662  0019B4                     l10168:
  6663  0019B4  285C               	incf	___fladd@bexp^0,w,c
  6664  0019B6  B4D8               	btfsc	status,2,c
  6665  0019B8  EFE0  F00C         	goto	u10521
  6666  0019BC  EFE2  F00C         	goto	u10520
  6667  0019C0                     u10521:
  6668  0019C0  EFEA  F00C         	goto	l10172
  6669  0019C4                     u10520:
  6670  0019C4  505C               	movf	___fladd@bexp^0,w,c
  6671  0019C6  A4D8               	btfss	status,2,c
  6672  0019C8  EFE8  F00C         	goto	u10531
  6673  0019CC  EFEA  F00C         	goto	u10530
  6674  0019D0                     u10531:
  6675  0019D0  EFFC  F00C         	goto	l10176
  6676  0019D4                     u10530:
  6677  0019D4                     l10172:
  6678  0019D4  0E00               	movlw	0
  6679  0019D6  6E4E               	movwf	___fladd@b^0,c
  6680  0019D8  0E00               	movlw	0
  6681  0019DA  6E4F               	movwf	(___fladd@b+1)^0,c
  6682  0019DC  0E00               	movlw	0
  6683  0019DE  6E50               	movwf	(___fladd@b+2)^0,c
  6684  0019E0  0E00               	movlw	0
  6685  0019E2  6E51               	movwf	(___fladd@b+3)^0,c
  6686  0019E4  505C               	movf	___fladd@bexp^0,w,c
  6687  0019E6  A4D8               	btfss	status,2,c
  6688  0019E8  EFF8  F00C         	goto	u10541
  6689  0019EC  EFFA  F00C         	goto	u10540
  6690  0019F0                     u10541:
  6691  0019F0  EFFC  F00C         	goto	l10176
  6692  0019F4                     u10540:
  6693  0019F4  0E00               	movlw	0
  6694  0019F6  6E5A               	movwf	___fladd@signs^0,c
  6695  0019F8                     l10176:
  6696  0019F8  A05C               	btfss	___fladd@bexp^0,0,c
  6697  0019FA  EF01  F00D         	goto	u10551
  6698  0019FE  EF03  F00D         	goto	u10550
  6699  001A02                     u10551:
  6700  001A02  EF06  F00D         	goto	l10180
  6701  001A06                     u10550:
  6702  001A06  8E50               	bsf	(___fladd@b+2)^0,7,c
  6703  001A08  EF07  F00D         	goto	l10182
  6704  001A0C                     l10180:
  6705  001A0C  9E50               	bcf	(___fladd@b+2)^0,7,c
  6706  001A0E                     l10182:
  6707  001A0E  90D8               	bcf	status,0,c
  6708  001A10  305C               	rrcf	___fladd@bexp^0,w,c
  6709  001A12  6E51               	movwf	(___fladd@b+3)^0,c
  6710  001A14  AE5A               	btfss	___fladd@signs^0,7,c
  6711  001A16  EF0F  F00D         	goto	u10561
  6712  001A1A  EF11  F00D         	goto	u10560
  6713  001A1E                     u10561:
  6714  001A1E  EF12  F00D         	goto	l10188
  6715  001A22                     u10560:
  6716  001A22  8E51               	bsf	(___fladd@b+3)^0,7,c
  6717  001A24                     l10188:
  6718  001A24  C04E  F04E         	movff	___fladd@b,?___fladd
  6719  001A28  C04F  F04F         	movff	___fladd@b+1,?___fladd+1
  6720  001A2C  C050  F050         	movff	___fladd@b+2,?___fladd+2
  6721  001A30  C051  F051         	movff	___fladd@b+3,?___fladd+3
  6722  001A34                     l2145:
  6723  001A34  0012               	return		;funcret
  6724  001A36                     __end_of___fladd:
  6725                           	callstack 0
  6726                           
  6727 ;; *************** function _convert_byte_to_string *****************
  6728 ;; Defined at:
  6729 ;;		line 424 in file "ECU_Layer/Chr_LCD/ecu_chr_lcd.c"
  6730 ;; Parameters:    Size  Location     Type
  6731 ;;  value           1    wreg     unsigned char 
  6732 ;;  str             2   19[BANK0 ] PTR unsigned char 
  6733 ;;		 -> main@arr(4), 
  6734 ;; Auto vars:     Size  Location     Type
  6735 ;;  value           1   21[BANK0 ] unsigned char 
  6736 ;;  Status          1    0        unsigned char 
  6737 ;; Return value:  Size  Location     Type
  6738 ;;                  1    wreg      unsigned char 
  6739 ;; Registers used:
  6740 ;;		wreg, fsr1l, fsr1h, fsr2l, fsr2h, status,2, status,0, tblptrl, tblptrh, tblptru, cstack
  6741 ;; Tracked objects:
  6742 ;;		On entry : 0/0
  6743 ;;		On exit  : 0/0
  6744 ;;		Unchanged: 0/0
  6745 ;; Data sizes:     COMRAM   BANK0   BANK1   BANK2   BANK3   BANK4   BANK5   BANK6   BANK7   BANK8   BANK9  BANK10  BANK1
      +1  BANK12  BANK13  BANK14  BANK15
  6746 ;;      Params:         0       2       0       0       0       0       0       0       0       0       0       0       
      +0       0       0       0       0
  6747 ;;      Locals:         0       1       0       0       0       0       0       0       0       0       0       0       
      +0       0       0       0       0
  6748 ;;      Temps:          0       0       0       0       0       0       0       0       0       0       0       0       
      +0       0       0       0       0
  6749 ;;      Totals:         0       3       0       0       0       0       0       0       0       0       0       0       
      +0       0       0       0       0
  6750 ;;Total ram usage:        3 bytes
  6751 ;; Hardware stack levels used: 1
  6752 ;; Hardware stack levels required when called: 12
  6753 ;; This function calls:
  6754 ;;		_memset
  6755 ;;		_sprintf
  6756 ;; This function is called by:
  6757 ;;		_main
  6758 ;; This function uses a non-reentrant model
  6759 ;;
  6760                           
  6761                           	psect	text27
  6762  003FFC                     __ptext27:
  6763                           	callstack 0
  6764  003FFC                     _convert_byte_to_string:
  6765                           	callstack 18
  6766                           
  6767                           ;incstack = 0
  6768                           ;convert_byte_to_string@value stored from wreg
  6769  003FFC  0100               	movlb	0	; () banked
  6770  003FFE  6FFA               	movwf	convert_byte_to_string@value& (0+255),b
  6771  004000                     
  6772                           ;ECU_Layer/Chr_LCD/ecu_chr_lcd.c: 426:     if(str != ((void*)0)){
  6773  004000  0100               	movlb	0	; () banked
  6774  004002  51F8               	movf	convert_byte_to_string@str& (0+255),w,b
  6775  004004  11F9               	iorwf	(convert_byte_to_string@str+1)& (0+255),w,b
  6776  004006  B4D8               	btfsc	status,2,c
  6777  004008  EF08  F020         	goto	u11271
  6778  00400C  EF0A  F020         	goto	u11270
  6779  004010                     u11271:
  6780  004010  EF28  F020         	goto	l10706
  6781  004014                     u11270:
  6782  004014                     
  6783                           ; BSR set to: 0
  6784                           ;ECU_Layer/Chr_LCD/ecu_chr_lcd.c: 427:         memset(str,'\0',4);
  6785  004014  C0F8  F00E         	movff	convert_byte_to_string@str,memset@dest
  6786  004018  C0F9  F00F         	movff	convert_byte_to_string@str+1,memset@dest+1
  6787  00401C  0E00               	movlw	0
  6788  00401E  6E11               	movwf	(memset@c+1)^0,c
  6789  004020  0E00               	movlw	0
  6790  004022  6E10               	movwf	memset@c^0,c
  6791  004024  0E00               	movlw	0
  6792  004026  6E13               	movwf	(memset@n+1)^0,c
  6793  004028  0E04               	movlw	4
  6794  00402A  6E12               	movwf	memset@n^0,c
  6795  00402C  EC72  F017         	call	_memset	;wreg free
  6796  004030                     
  6797                           ;ECU_Layer/Chr_LCD/ecu_chr_lcd.c: 428:         sprintf(str,"%i",value);
  6798  004030  C0F8  F0E5         	movff	convert_byte_to_string@str,sprintf@s
  6799  004034  C0F9  F0E6         	movff	convert_byte_to_string@str+1,sprintf@s+1
  6800  004038  0E1B               	movlw	low STR_1
  6801  00403A  0100               	movlb	0	; () banked
  6802  00403C  6FE7               	movwf	sprintf@fmt& (0+255),b
  6803  00403E  0E10               	movlw	high STR_1
  6804  004040  6FE8               	movwf	(sprintf@fmt+1)& (0+255),b
  6805  004042  C0FA  F0E9         	movff	convert_byte_to_string@value,?_sprintf+4
  6806  004046  6BEA               	clrf	(?_sprintf+5)& (0+255),b
  6807  004048  ECA7  F020         	call	_sprintf	;wreg free
  6808                           
  6809                           ;ECU_Layer/Chr_LCD/ecu_chr_lcd.c: 429:     }
  6810  00404C  EF28  F020         	goto	l178
  6811  004050                     l10706:
  6812  004050                     l178:
  6813  004050  0012               	return		;funcret
  6814  004052                     __end_of_convert_byte_to_string:
  6815                           	callstack 0
  6816                           
  6817 ;; *************** function _sprintf *****************
  6818 ;; Defined at:
  6819 ;;		line 9 in file "C:\Program Files\Microchip\xc8\v2.36\pic\sources\c99\common\nf_sprintf.c"
  6820 ;; Parameters:    Size  Location     Type
  6821 ;;  s               2    0[BANK0 ] PTR unsigned char 
  6822 ;;		 -> main@arr(4), 
  6823 ;;  fmt             2    2[BANK0 ] PTR const unsigned char 
  6824 ;;		 -> STR_3(3), STR_2(3), STR_1(3), 
  6825 ;; Auto vars:     Size  Location     Type
  6826 ;;  f              11    8[BANK0 ] struct _IO_FILE
  6827 ;;  ap              2    6[BANK0 ] PTR void [1]
  6828 ;;		 -> ?_sprintf(2), 
  6829 ;;  ret             2    0        int 
  6830 ;; Return value:  Size  Location     Type
  6831 ;;                  2    0[BANK0 ] int 
  6832 ;; Registers used:
  6833 ;;		wreg, fsr1l, fsr1h, fsr2l, fsr2h, status,2, status,0, tblptrl, tblptrh, tblptru, cstack
  6834 ;; Tracked objects:
  6835 ;;		On entry : 0/0
  6836 ;;		On exit  : 0/0
  6837 ;;		Unchanged: 0/0
  6838 ;; Data sizes:     COMRAM   BANK0   BANK1   BANK2   BANK3   BANK4   BANK5   BANK6   BANK7   BANK8   BANK9  BANK10  BANK1
      +1  BANK12  BANK13  BANK14  BANK15
  6839 ;;      Params:         0       6       0       0       0       0       0       0       0       0       0       0       
      +0       0       0       0       0
  6840 ;;      Locals:         0      13       0       0       0       0       0       0       0       0       0       0       
      +0       0       0       0       0
  6841 ;;      Temps:          0       0       0       0       0       0       0       0       0       0       0       0       
      +0       0       0       0       0
  6842 ;;      Totals:         0      19       0       0       0       0       0       0       0       0       0       0       
      +0       0       0       0       0
  6843 ;;Total ram usage:       19 bytes
  6844 ;; Hardware stack levels used: 1
  6845 ;; Hardware stack levels required when called: 11
  6846 ;; This function calls:
  6847 ;;		_vfprintf
  6848 ;; This function is called by:
  6849 ;;		_convert_byte_to_string
  6850 ;;		_convert_short_to_string
  6851 ;;		_convert_int_to_string
  6852 ;; This function uses a non-reentrant model
  6853 ;;
  6854                           
  6855                           	psect	text28
  6856  00414E                     __ptext28:
  6857                           	callstack 0
  6858  00414E                     _sprintf:
  6859                           	callstack 18
  6860  00414E  0EE9               	movlw	low (?_sprintf+4)
  6861  004150  0100               	movlb	0	; () banked
  6862  004152  6FEB               	movwf	sprintf@ap& (0+255),b
  6863  004154  0E00               	movlw	high (?_sprintf+4)
  6864  004156  6FEC               	movwf	(sprintf@ap+1)& (0+255),b
  6865  004158  C0E5  F0ED         	movff	sprintf@s,sprintf@f
  6866  00415C  C0E6  F0EE         	movff	sprintf@s+1,sprintf@f+1
  6867  004160                     
  6868                           ; BSR set to: 0
  6869  004160  0E00               	movlw	0
  6870  004162  6FF1               	movwf	(sprintf@f+4)& (0+255),b
  6871  004164  0E00               	movlw	0
  6872  004166  6FF0               	movwf	(sprintf@f+3)& (0+255),b
  6873  004168                     
  6874                           ; BSR set to: 0
  6875  004168  0E00               	movlw	0
  6876  00416A  6FF7               	movwf	(sprintf@f+10)& (0+255),b
  6877  00416C  0E00               	movlw	0
  6878  00416E  6FF6               	movwf	(sprintf@f+9)& (0+255),b
  6879  004170                     
  6880                           ; BSR set to: 0
  6881  004170  0EED               	movlw	low sprintf@f
  6882  004172  6E5D               	movwf	vfprintf@fp^0,c
  6883  004174  0E00               	movlw	high sprintf@f
  6884  004176  6E5E               	movwf	(vfprintf@fp+1)^0,c
  6885  004178  C0E7  F05F         	movff	sprintf@fmt,vfprintf@fmt
  6886  00417C  C0E8  F060         	movff	sprintf@fmt+1,vfprintf@fmt+1
  6887  004180  0EEB               	movlw	low sprintf@ap
  6888  004182  6E61               	movwf	vfprintf@ap^0,c
  6889  004184  0E00               	movlw	high sprintf@ap
  6890  004186  6E62               	movwf	(vfprintf@ap+1)^0,c
  6891  004188  EC45  F01F         	call	_vfprintf	;wreg free
  6892  00418C  0100               	movlb	0	; () banked
  6893  00418E  51F0               	movf	(sprintf@f+3)& (0+255),w,b
  6894  004190  25E5               	addwf	sprintf@s& (0+255),w,b
  6895  004192  6ED9               	movwf	fsr2l,c
  6896  004194  51F1               	movf	(sprintf@f+4)& (0+255),w,b
  6897  004196  21E6               	addwfc	(sprintf@s+1)& (0+255),w,b
  6898  004198  6EDA               	movwf	fsr2h,c
  6899  00419A  0E00               	movlw	0
  6900  00419C  6EDF               	movwf	indf2,c
  6901  00419E                     
  6902                           ; BSR set to: 0
  6903  00419E  0012               	return		;funcret
  6904  0041A0                     __end_of_sprintf:
  6905                           	callstack 0
  6906                           
  6907 ;; *************** function _vfprintf *****************
  6908 ;; Defined at:
  6909 ;;		line 1390 in file "C:\Program Files\Microchip\xc8\v2.36\pic\sources\c99\common\doprnt.c"
  6910 ;; Parameters:    Size  Location     Type
  6911 ;;  fp              2   92[COMRAM] PTR struct _IO_FILE
  6912 ;;		 -> sprintf@f(11), 
  6913 ;;  fmt             2   94[COMRAM] PTR const unsigned char 
  6914 ;;		 -> STR_3(3), STR_2(3), STR_1(3), 
  6915 ;;  ap              2   96[COMRAM] PTR PTR void 
  6916 ;;		 -> sprintf@ap(2), 
  6917 ;; Auto vars:     Size  Location     Type
  6918 ;;  cfmt            2   98[COMRAM] PTR unsigned char 
  6919 ;;		 -> STR_3(3), STR_2(3), STR_1(3), 
  6920 ;; Return value:  Size  Location     Type
  6921 ;;                  2   92[COMRAM] int 
  6922 ;; Registers used:
  6923 ;;		wreg, fsr1l, fsr1h, fsr2l, fsr2h, status,2, status,0, tblptrl, tblptrh, tblptru, cstack
  6924 ;; Tracked objects:
  6925 ;;		On entry : 0/0
  6926 ;;		On exit  : 0/0
  6927 ;;		Unchanged: 0/0
  6928 ;; Data sizes:     COMRAM   BANK0   BANK1   BANK2   BANK3   BANK4   BANK5   BANK6   BANK7   BANK8   BANK9  BANK10  BANK1
      +1  BANK12  BANK13  BANK14  BANK15
  6929 ;;      Params:         6       0       0       0       0       0       0       0       0       0       0       0       
      +0       0       0       0       0
  6930 ;;      Locals:         2       0       0       0       0       0       0       0       0       0       0       0       
      +0       0       0       0       0
  6931 ;;      Temps:          0       0       0       0       0       0       0       0       0       0       0       0       
      +0       0       0       0       0
  6932 ;;      Totals:         8       0       0       0       0       0       0       0       0       0       0       0       
      +0       0       0       0       0
  6933 ;;Total ram usage:        8 bytes
  6934 ;; Hardware stack levels used: 1
  6935 ;; Hardware stack levels required when called: 10
  6936 ;; This function calls:
  6937 ;;		_vfpfcnvrt
  6938 ;; This function is called by:
  6939 ;;		_sprintf
  6940 ;; This function uses a non-reentrant model
  6941 ;;
  6942                           
  6943                           	psect	text29
  6944  003E8A                     __ptext29:
  6945                           	callstack 0
  6946  003E8A                     _vfprintf:
  6947                           	callstack 18
  6948  003E8A                     
  6949                           ;C:\Program Files\Microchip\xc8\v2.36\pic\sources\c99\common\doprnt.c: 1390: int vfprint
      +                          f(FILE *fp, const char *fmt, va_list ap);C:\Program Files\Microchip\xc8\v2.36\pic\source
      +                          s\c99\common\doprnt.c: 1391: {;C:\Program Files\Microchip\xc8\v2.36\pic\sources\c99\comm
      +                          on\doprnt.c: 1393:     char *cfmt;;C:\Program Files\Microchip\xc8\v2.36\pic\sources\c99\
      +                          common\doprnt.c: 1395:     cfmt = (char *)fmt;
  6950  003E8A  C05F  F063         	movff	vfprintf@fmt,vfprintf@cfmt
  6951  003E8E  C060  F064         	movff	vfprintf@fmt+1,vfprintf@cfmt+1
  6952  003E92                     
  6953                           ;C:\Program Files\Microchip\xc8\v2.36\pic\sources\c99\common\doprnt.c: 1396:     nout = 
      +                          0;
  6954  003E92  0E00               	movlw	0
  6955  003E94  0100               	movlb	0	; () banked
  6956  003E96  6F89               	movwf	(_nout+1)& (0+255),b
  6957  003E98  0E00               	movlw	0
  6958  003E9A  6F88               	movwf	_nout& (0+255),b
  6959                           
  6960                           ;C:\Program Files\Microchip\xc8\v2.36\pic\sources\c99\common\doprnt.c: 1397:     while (
      +                          *cfmt) {
  6961  003E9C  EF63  F01F         	goto	l9670
  6962  003EA0                     l9668:
  6963                           
  6964                           ; BSR set to: 0
  6965                           ;C:\Program Files\Microchip\xc8\v2.36\pic\sources\c99\common\doprnt.c: 1398:         nou
      +                          t += vfpfcnvrt(fp, &cfmt, ap);
  6966  003EA0  C05D  F04D         	movff	vfprintf@fp,vfpfcnvrt@fp
  6967  003EA4  C05E  F04E         	movff	vfprintf@fp+1,vfpfcnvrt@fp+1
  6968  003EA8  0E63               	movlw	low vfprintf@cfmt
  6969  003EAA  6E4F               	movwf	vfpfcnvrt@fmt^0,c
  6970  003EAC  0E00               	movlw	high vfprintf@cfmt
  6971  003EAE  6E50               	movwf	(vfpfcnvrt@fmt+1)^0,c
  6972  003EB0  C061  F051         	movff	vfprintf@ap,vfpfcnvrt@ap
  6973  003EB4  C062  F052         	movff	vfprintf@ap+1,vfpfcnvrt@ap+1
  6974  003EB8  EC30  F014         	call	_vfpfcnvrt	;wreg free
  6975  003EBC  504D               	movf	?_vfpfcnvrt^0,w,c
  6976  003EBE  0100               	movlb	0	; () banked
  6977  003EC0  2788               	addwf	_nout& (0+255),f,b
  6978  003EC2  504E               	movf	(?_vfpfcnvrt+1)^0,w,c
  6979  003EC4  2389               	addwfc	(_nout+1)& (0+255),f,b
  6980  003EC6                     l9670:
  6981                           
  6982                           ; BSR set to: 0
  6983                           ;C:\Program Files\Microchip\xc8\v2.36\pic\sources\c99\common\doprnt.c: 1397:     while (
      +                          *cfmt) {
  6984  003EC6  C063  FFF6         	movff	vfprintf@cfmt,tblptrl
  6985  003ECA  C064  FFF7         	movff	vfprintf@cfmt+1,tblptrh
  6986  003ECE                     	if	1	;Program memory is < 0x10000, tblptru is always zero
  6987  003ECE  6AF8               	clrf	tblptru,c
  6988  003ED0                     	endif
  6989  003ED0                     	if	0	;tblptru may be non-zero
  6990  003ED0                     	endif
  6991  003ED0  0008               	tblrd		*
  6992  003ED2  50F5               	movf	tablat,w,c
  6993  003ED4  0900               	iorlw	0
  6994  003ED6  A4D8               	btfss	status,2,c
  6995  003ED8  EF70  F01F         	goto	u9751
  6996  003EDC  EF72  F01F         	goto	u9750
  6997  003EE0                     u9751:
  6998  003EE0  EF50  F01F         	goto	l9668
  6999  003EE4                     u9750:
  7000  003EE4                     
  7001                           ; BSR set to: 0
  7002                           ;C:\Program Files\Microchip\xc8\v2.36\pic\sources\c99\common\doprnt.c: 1400:     return 
      +                          nout;
  7003  003EE4  C088  F05D         	movff	_nout,?_vfprintf
  7004  003EE8  C089  F05E         	movff	_nout+1,?_vfprintf+1
  7005  003EEC                     
  7006                           ; BSR set to: 0
  7007  003EEC  0012               	return		;funcret
  7008  003EEE                     __end_of_vfprintf:
  7009                           	callstack 0
  7010                           
  7011 ;; *************** function _vfpfcnvrt *****************
  7012 ;; Defined at:
  7013 ;;		line 692 in file "C:\Program Files\Microchip\xc8\v2.36\pic\sources\c99\common\doprnt.c"
  7014 ;; Parameters:    Size  Location     Type
  7015 ;;  fp              2   76[COMRAM] PTR struct _IO_FILE
  7016 ;;		 -> sprintf@f(11), 
  7017 ;;  fmt             2   78[COMRAM] PTR PTR unsigned char 
  7018 ;;		 -> vfprintf@cfmt(2), 
  7019 ;;  ap              2   80[COMRAM] PTR PTR void 
  7020 ;;		 -> sprintf@ap(2), 
  7021 ;; Auto vars:     Size  Location     Type
  7022 ;;  ll              8   84[COMRAM] long long 
  7023 ;;  llu             8    0        unsigned long long 
  7024 ;;  f               4    0        unsigned long long 
  7025 ;;  vp              3    0        PTR void 
  7026 ;;  ct              3    0        unsigned char [3]
  7027 ;;  cp              3    0        PTR unsigned char 
  7028 ;;  i               2    0        int 
  7029 ;;  done            2    0        int 
  7030 ;;  c               1    0        unsigned char 
  7031 ;; Return value:  Size  Location     Type
  7032 ;;                  2   76[COMRAM] int 
  7033 ;; Registers used:
  7034 ;;		wreg, fsr1l, fsr1h, fsr2l, fsr2h, status,2, status,0, tblptrl, tblptrh, tblptru, cstack
  7035 ;; Tracked objects:
  7036 ;;		On entry : 0/0
  7037 ;;		On exit  : 0/0
  7038 ;;		Unchanged: 0/0
  7039 ;; Data sizes:     COMRAM   BANK0   BANK1   BANK2   BANK3   BANK4   BANK5   BANK6   BANK7   BANK8   BANK9  BANK10  BANK1
      +1  BANK12  BANK13  BANK14  BANK15
  7040 ;;      Params:         6       0       0       0       0       0       0       0       0       0       0       0       
      +0       0       0       0       0
  7041 ;;      Locals:         8       0       0       0       0       0       0       0       0       0       0       0       
      +0       0       0       0       0
  7042 ;;      Temps:          2       0       0       0       0       0       0       0       0       0       0       0       
      +0       0       0       0       0
  7043 ;;      Totals:        16       0       0       0       0       0       0       0       0       0       0       0       
      +0       0       0       0       0
  7044 ;;Total ram usage:       16 bytes
  7045 ;; Hardware stack levels used: 1
  7046 ;; Hardware stack levels required when called: 9
  7047 ;; This function calls:
  7048 ;;		_dtoa
  7049 ;;		_fputc
  7050 ;; This function is called by:
  7051 ;;		_vfprintf
  7052 ;; This function uses a non-reentrant model
  7053 ;;
  7054                           
  7055                           	psect	text30
  7056  002860                     __ptext30:
  7057                           	callstack 0
  7058  002860                     _vfpfcnvrt:
  7059                           	callstack 18
  7060  002860                     
  7061                           ;C:\Program Files\Microchip\xc8\v2.36\pic\sources\c99\common\doprnt.c: 692: static int v
      +                          fpfcnvrt(FILE *fp, char *fmt[], va_list ap);C:\Program Files\Microchip\xc8\v2.36\pic\sou
      +                          rces\c99\common\doprnt.c: 693: {;C:\Program Files\Microchip\xc8\v2.36\pic\sources\c99\co
      +                          mmon\doprnt.c: 694:     char c, *cp, ct[3];;C:\Program Files\Microchip\xc8\v2.36\pic\sou
      +                          rces\c99\common\doprnt.c: 695:     int done, i;;C:\Program Files\Microchip\xc8\v2.36\pic
      +                          \sources\c99\common\doprnt.c: 696:     long long ll;;C:\Program Files\Microchip\xc8\v2.3
      +                          6\pic\sources\c99\common\doprnt.c: 697:     unsigned long long llu;
  7062  002860  C04F  FFD9         	movff	vfpfcnvrt@fmt,fsr2l
  7063  002864  C050  FFDA         	movff	vfpfcnvrt@fmt+1,fsr2h
  7064  002868  CFDE FFF6          	movff	postinc2,tblptrl
  7065  00286C  CFDD FFF7          	movff	postdec2,tblptrh
  7066  002870                     	if	1	;Program memory is < 0x10000, tblptru is always zero
  7067  002870  6AF8               	clrf	tblptru,c
  7068  002872                     	endif
  7069  002872                     	if	0	;tblptru may be non-zero
  7070  002872                     	endif
  7071  002872  0008               	tblrd		*
  7072  002874  50F5               	movf	tablat,w,c
  7073  002876  0A25               	xorlw	37
  7074  002878  A4D8               	btfss	status,2,c
  7075  00287A  EF41  F014         	goto	u9591
  7076  00287E  EF43  F014         	goto	u9590
  7077  002882                     u9591:
  7078  002882  EFF2  F014         	goto	l9574
  7079  002886                     u9590:
  7080  002886                     
  7081                           ;C:\Program Files\Microchip\xc8\v2.36\pic\sources\c99\common\doprnt.c: 703:         ++*f
      +                          mt;
  7082  002886  C04F  FFD9         	movff	vfpfcnvrt@fmt,fsr2l
  7083  00288A  C050  FFDA         	movff	vfpfcnvrt@fmt+1,fsr2h
  7084  00288E  2ADE               	incf	postinc2,f,c
  7085  002890  0E00               	movlw	0
  7086  002892  22DD               	addwfc	postdec2,f,c
  7087  002894                     
  7088                           ;C:\Program Files\Microchip\xc8\v2.36\pic\sources\c99\common\doprnt.c: 705:         flag
      +                          s = width = 0;
  7089  002894  0E00               	movlw	0
  7090  002896  0100               	movlb	0	; () banked
  7091  002898  6F8B               	movwf	(_width+1)& (0+255),b
  7092  00289A  0E00               	movlw	0
  7093  00289C  6F8A               	movwf	_width& (0+255),b
  7094  00289E  C08A  F065         	movff	_width,_flags
  7095  0028A2  C08B  F066         	movff	_width+1,_flags+1
  7096  0028A6                     
  7097                           ; BSR set to: 0
  7098                           ;C:\Program Files\Microchip\xc8\v2.36\pic\sources\c99\common\doprnt.c: 706:         prec
      +                           = -1;
  7099  0028A6  698C               	setf	_prec& (0+255),b
  7100  0028A8  698D               	setf	(_prec+1)& (0+255),b
  7101  0028AA                     
  7102                           ; BSR set to: 0
  7103                           ;C:\Program Files\Microchip\xc8\v2.36\pic\sources\c99\common\doprnt.c: 847:         if (
      +                          (*fmt[0] == 'd') || (*fmt[0] == 'i')) {
  7104  0028AA  C04F  FFD9         	movff	vfpfcnvrt@fmt,fsr2l
  7105  0028AE  C050  FFDA         	movff	vfpfcnvrt@fmt+1,fsr2h
  7106  0028B2  CFDE FFF6          	movff	postinc2,tblptrl
  7107  0028B6  CFDD FFF7          	movff	postdec2,tblptrh
  7108  0028BA                     	if	1	;Program memory is < 0x10000, tblptru is always zero
  7109  0028BA  6AF8               	clrf	tblptru,c
  7110  0028BC                     	endif
  7111  0028BC                     	if	0	;tblptru may be non-zero
  7112  0028BC                     	endif
  7113  0028BC  0008               	tblrd		*
  7114  0028BE  50F5               	movf	tablat,w,c
  7115  0028C0  0A64               	xorlw	100
  7116  0028C2  B4D8               	btfsc	status,2,c
  7117  0028C4  EF66  F014         	goto	u9601
  7118  0028C8  EF68  F014         	goto	u9600
  7119  0028CC                     u9601:
  7120  0028CC  EF7B  F014         	goto	l9552
  7121  0028D0                     u9600:
  7122  0028D0                     
  7123                           ; BSR set to: 0
  7124  0028D0  C04F  FFD9         	movff	vfpfcnvrt@fmt,fsr2l
  7125  0028D4  C050  FFDA         	movff	vfpfcnvrt@fmt+1,fsr2h
  7126  0028D8  CFDE FFF6          	movff	postinc2,tblptrl
  7127  0028DC  CFDD FFF7          	movff	postdec2,tblptrh
  7128  0028E0                     	if	1	;Program memory is < 0x10000, tblptru is always zero
  7129  0028E0  6AF8               	clrf	tblptru,c
  7130  0028E2                     	endif
  7131  0028E2                     	if	0	;tblptru may be non-zero
  7132  0028E2                     	endif
  7133  0028E2  0008               	tblrd		*
  7134  0028E4  50F5               	movf	tablat,w,c
  7135  0028E6  0A69               	xorlw	105
  7136  0028E8  A4D8               	btfss	status,2,c
  7137  0028EA  EF79  F014         	goto	u9611
  7138  0028EE  EF7B  F014         	goto	u9610
  7139  0028F2                     u9611:
  7140  0028F2  EFBB  F014         	goto	l9558
  7141  0028F6                     u9610:
  7142  0028F6                     l9552:
  7143                           
  7144                           ; BSR set to: 0
  7145                           ;C:\Program Files\Microchip\xc8\v2.36\pic\sources\c99\common\doprnt.c: 849:             
      +                          ++*fmt;
  7146  0028F6  C04F  FFD9         	movff	vfpfcnvrt@fmt,fsr2l
  7147  0028FA  C050  FFDA         	movff	vfpfcnvrt@fmt+1,fsr2h
  7148  0028FE  2ADE               	incf	postinc2,f,c
  7149  002900  0E00               	movlw	0
  7150  002902  22DD               	addwfc	postdec2,f,c
  7151                           
  7152                           ;C:\Program Files\Microchip\xc8\v2.36\pic\sources\c99\common\doprnt.c: 850:             
      +                          ll = (long long)(*(int *)__va_arg(*(int **)ap, (int)0));
  7153  002904  C051  FFD9         	movff	vfpfcnvrt@ap,fsr2l
  7154  002908  C052  FFDA         	movff	vfpfcnvrt@ap+1,fsr2h
  7155  00290C  CFDF F053          	movff	indf2,??_vfpfcnvrt
  7156  002910  0E02               	movlw	2
  7157  002912  26DE               	addwf	postinc2,f,c
  7158  002914  CFDF F054          	movff	indf2,??_vfpfcnvrt+1
  7159  002918  0E00               	movlw	0
  7160  00291A  22DD               	addwfc	postdec2,f,c
  7161  00291C  C053  FFD9         	movff	??_vfpfcnvrt,fsr2l
  7162  002920  C054  FFDA         	movff	??_vfpfcnvrt+1,fsr2h
  7163  002924  CFDE F055          	movff	postinc2,vfpfcnvrt@ll
  7164  002928  CFDD F056          	movff	postdec2,vfpfcnvrt@ll+1
  7165  00292C  0E00               	movlw	0
  7166  00292E  BE56               	btfsc	(vfpfcnvrt@ll+1)^0,7,c
  7167  002930  0EFF               	movlw	-1
  7168  002932  6E57               	movwf	(vfpfcnvrt@ll+2)^0,c
  7169  002934  6E58               	movwf	(vfpfcnvrt@ll+3)^0,c
  7170  002936  6E59               	movwf	(vfpfcnvrt@ll+4)^0,c
  7171  002938  6E5A               	movwf	(vfpfcnvrt@ll+5)^0,c
  7172  00293A  6E5B               	movwf	(vfpfcnvrt@ll+6)^0,c
  7173  00293C  6E5C               	movwf	(vfpfcnvrt@ll+7)^0,c
  7174  00293E                     
  7175                           ; BSR set to: 0
  7176                           ;C:\Program Files\Microchip\xc8\v2.36\pic\sources\c99\common\doprnt.c: 852:             
      +                          return dtoa(fp, ll);
  7177  00293E  C04D  F029         	movff	vfpfcnvrt@fp,dtoa@fp
  7178  002942  C04E  F02A         	movff	vfpfcnvrt@fp+1,dtoa@fp+1
  7179  002946  C055  F02B         	movff	vfpfcnvrt@ll,dtoa@d
  7180  00294A  C056  F02C         	movff	vfpfcnvrt@ll+1,dtoa@d+1
  7181  00294E  C057  F02D         	movff	vfpfcnvrt@ll+2,dtoa@d+2
  7182  002952  C058  F02E         	movff	vfpfcnvrt@ll+3,dtoa@d+3
  7183  002956  C059  F02F         	movff	vfpfcnvrt@ll+4,dtoa@d+4
  7184  00295A  C05A  F030         	movff	vfpfcnvrt@ll+5,dtoa@d+5
  7185  00295E  C05B  F031         	movff	vfpfcnvrt@ll+6,dtoa@d+6
  7186  002962  C05C  F032         	movff	vfpfcnvrt@ll+7,dtoa@d+7
  7187  002966  ECC0  F012         	call	_dtoa	;wreg free
  7188  00296A  C029  F04D         	movff	?_dtoa,?_vfpfcnvrt
  7189  00296E  C02A  F04E         	movff	?_dtoa+1,?_vfpfcnvrt+1
  7190  002972  EF0E  F015         	goto	l2361
  7191  002976                     l9558:
  7192                           
  7193                           ; BSR set to: 0
  7194                           ;C:\Program Files\Microchip\xc8\v2.36\pic\sources\c99\common\doprnt.c: 1372:         if 
      +                          ((*fmt)[0] == '%') {
  7195  002976  C04F  FFD9         	movff	vfpfcnvrt@fmt,fsr2l
  7196  00297A  C050  FFDA         	movff	vfpfcnvrt@fmt+1,fsr2h
  7197  00297E  CFDE FFF6          	movff	postinc2,tblptrl
  7198  002982  CFDD FFF7          	movff	postdec2,tblptrh
  7199  002986                     	if	1	;Program memory is < 0x10000, tblptru is always zero
  7200  002986  6AF8               	clrf	tblptru,c
  7201  002988                     	endif
  7202  002988                     	if	0	;tblptru may be non-zero
  7203  002988                     	endif
  7204  002988  0008               	tblrd		*
  7205  00298A  50F5               	movf	tablat,w,c
  7206  00298C  0A25               	xorlw	37
  7207  00298E  A4D8               	btfss	status,2,c
  7208  002990  EFCC  F014         	goto	u9621
  7209  002994  EFCE  F014         	goto	u9620
  7210  002998                     u9621:
  7211  002998  EFE5  F014         	goto	l9568
  7212  00299C                     u9620:
  7213  00299C                     
  7214                           ; BSR set to: 0
  7215                           ;C:\Program Files\Microchip\xc8\v2.36\pic\sources\c99\common\doprnt.c: 1373:            
      +                           ++*fmt;
  7216  00299C  C04F  FFD9         	movff	vfpfcnvrt@fmt,fsr2l
  7217  0029A0  C050  FFDA         	movff	vfpfcnvrt@fmt+1,fsr2h
  7218  0029A4  2ADE               	incf	postinc2,f,c
  7219  0029A6  0E00               	movlw	0
  7220  0029A8  22DD               	addwfc	postdec2,f,c
  7221  0029AA                     
  7222                           ; BSR set to: 0
  7223                           ;C:\Program Files\Microchip\xc8\v2.36\pic\sources\c99\common\doprnt.c: 1374:            
      +                           fputc((int)'%', fp);
  7224  0029AA  0E00               	movlw	0
  7225  0029AC  6E0F               	movwf	(fputc@c+1)^0,c
  7226  0029AE  0E25               	movlw	37
  7227  0029B0  6E0E               	movwf	fputc@c^0,c
  7228  0029B2  C04D  F010         	movff	vfpfcnvrt@fp,fputc@fp
  7229  0029B6  C04E  F011         	movff	vfpfcnvrt@fp+1,fputc@fp+1
  7230  0029BA  EC2F  F01B         	call	_fputc	;wreg free
  7231  0029BE                     l9564:
  7232                           
  7233                           ;C:\Program Files\Microchip\xc8\v2.36\pic\sources\c99\common\doprnt.c: 1375:            
      +                           return 1;
  7234  0029BE  0E00               	movlw	0
  7235  0029C0  6E4E               	movwf	(?_vfpfcnvrt+1)^0,c
  7236  0029C2  0E01               	movlw	1
  7237  0029C4  6E4D               	movwf	?_vfpfcnvrt^0,c
  7238  0029C6  EF0E  F015         	goto	l2361
  7239  0029CA                     l9568:
  7240                           
  7241                           ; BSR set to: 0
  7242                           ;C:\Program Files\Microchip\xc8\v2.36\pic\sources\c99\common\doprnt.c: 1379:         ++*
      +                          fmt;
  7243  0029CA  C04F  FFD9         	movff	vfpfcnvrt@fmt,fsr2l
  7244  0029CE  C050  FFDA         	movff	vfpfcnvrt@fmt+1,fsr2h
  7245  0029D2  2ADE               	incf	postinc2,f,c
  7246  0029D4  0E00               	movlw	0
  7247  0029D6  22DD               	addwfc	postdec2,f,c
  7248  0029D8                     
  7249                           ; BSR set to: 0
  7250                           ;C:\Program Files\Microchip\xc8\v2.36\pic\sources\c99\common\doprnt.c: 1380:         ret
      +                          urn 0;
  7251  0029D8  0E00               	movlw	0
  7252  0029DA  6E4E               	movwf	(?_vfpfcnvrt+1)^0,c
  7253  0029DC  0E00               	movlw	0
  7254  0029DE  6E4D               	movwf	?_vfpfcnvrt^0,c
  7255  0029E0  EF0E  F015         	goto	l2361
  7256  0029E4                     l9574:
  7257                           
  7258                           ;C:\Program Files\Microchip\xc8\v2.36\pic\sources\c99\common\doprnt.c: 1384:     fputc((
      +                          int)(*fmt)[0], fp);
  7259  0029E4  C04F  FFD9         	movff	vfpfcnvrt@fmt,fsr2l
  7260  0029E8  C050  FFDA         	movff	vfpfcnvrt@fmt+1,fsr2h
  7261  0029EC  CFDE FFF6          	movff	postinc2,tblptrl
  7262  0029F0  CFDD FFF7          	movff	postdec2,tblptrh
  7263  0029F4                     	if	1	;Program memory is < 0x10000, tblptru is always zero
  7264  0029F4  6AF8               	clrf	tblptru,c
  7265  0029F6                     	endif
  7266  0029F6                     	if	0	;tblptru may be non-zero
  7267  0029F6                     	endif
  7268  0029F6  0008               	tblrd		*
  7269  0029F8  50F5               	movf	tablat,w,c
  7270  0029FA  6E0E               	movwf	fputc@c^0,c
  7271  0029FC  6A0F               	clrf	(fputc@c+1)^0,c
  7272  0029FE  C04D  F010         	movff	vfpfcnvrt@fp,fputc@fp
  7273  002A02  C04E  F011         	movff	vfpfcnvrt@fp+1,fputc@fp+1
  7274  002A06  EC2F  F01B         	call	_fputc	;wreg free
  7275  002A0A                     
  7276                           ;C:\Program Files\Microchip\xc8\v2.36\pic\sources\c99\common\doprnt.c: 1385:     ++*fmt;
  7277  002A0A  C04F  FFD9         	movff	vfpfcnvrt@fmt,fsr2l
  7278  002A0E  C050  FFDA         	movff	vfpfcnvrt@fmt+1,fsr2h
  7279  002A12  2ADE               	incf	postinc2,f,c
  7280  002A14  0E00               	movlw	0
  7281  002A16  22DD               	addwfc	postdec2,f,c
  7282  002A18  EFDF  F014         	goto	l9564
  7283  002A1C                     l2361:
  7284  002A1C  0012               	return		;funcret
  7285  002A1E                     __end_of_vfpfcnvrt:
  7286                           	callstack 0
  7287                           
  7288 ;; *************** function _dtoa *****************
  7289 ;; Defined at:
  7290 ;;		line 287 in file "C:\Program Files\Microchip\xc8\v2.36\pic\sources\c99\common\doprnt.c"
  7291 ;; Parameters:    Size  Location     Type
  7292 ;;  fp              2   40[COMRAM] PTR struct _IO_FILE
  7293 ;;		 -> sprintf@f(11), 
  7294 ;;  d               8   42[COMRAM] long long 
  7295 ;; Auto vars:     Size  Location     Type
  7296 ;;  n               8   66[COMRAM] long long 
  7297 ;;  i               2   74[COMRAM] int 
  7298 ;;  s               2   64[COMRAM] int 
  7299 ;;  w               2   62[COMRAM] int 
  7300 ;;  p               2   60[COMRAM] int 
  7301 ;; Return value:  Size  Location     Type
  7302 ;;                  2   40[COMRAM] int 
  7303 ;; Registers used:
  7304 ;;		wreg, fsr1l, fsr1h, fsr2l, fsr2h, status,2, status,0, cstack
  7305 ;; Tracked objects:
  7306 ;;		On entry : 0/0
  7307 ;;		On exit  : 0/0
  7308 ;;		Unchanged: 0/0
  7309 ;; Data sizes:     COMRAM   BANK0   BANK1   BANK2   BANK3   BANK4   BANK5   BANK6   BANK7   BANK8   BANK9  BANK10  BANK1
      +1  BANK12  BANK13  BANK14  BANK15
  7310 ;;      Params:        10       0       0       0       0       0       0       0       0       0       0       0       
      +0       0       0       0       0
  7311 ;;      Locals:        18       0       0       0       0       0       0       0       0       0       0       0       
      +0       0       0       0       0
  7312 ;;      Temps:          8       0       0       0       0       0       0       0       0       0       0       0       
      +0       0       0       0       0
  7313 ;;      Totals:        36       0       0       0       0       0       0       0       0       0       0       0       
      +0       0       0       0       0
  7314 ;;Total ram usage:       36 bytes
  7315 ;; Hardware stack levels used: 1
  7316 ;; Hardware stack levels required when called: 8
  7317 ;; This function calls:
  7318 ;;		___aodiv
  7319 ;;		___aomod
  7320 ;;		_abs
  7321 ;;		_pad
  7322 ;; This function is called by:
  7323 ;;		_vfpfcnvrt
  7324 ;; This function uses a non-reentrant model
  7325 ;;
  7326                           
  7327                           	psect	text31
  7328  002580                     __ptext31:
  7329                           	callstack 0
  7330  002580                     _dtoa:
  7331                           	callstack 18
  7332  002580                     
  7333                           ;C:\Program Files\Microchip\xc8\v2.36\pic\sources\c99\common\doprnt.c: 287: static int d
      +                          toa(FILE *fp, long long d);C:\Program Files\Microchip\xc8\v2.36\pic\sources\c99\common\d
      +                          oprnt.c: 288: {;C:\Program Files\Microchip\xc8\v2.36\pic\sources\c99\common\doprnt.c: 28
      +                          9:     int i, p, s, w;;C:\Program Files\Microchip\xc8\v2.36\pic\sources\c99\common\doprn
      +                          t.c: 290:     long long n;;C:\Program Files\Microchip\xc8\v2.36\pic\sources\c99\common\d
      +                          oprnt.c: 293:     n = d;
  7334  002580  C02B  F043         	movff	dtoa@d,dtoa@n
  7335  002584  C02C  F044         	movff	dtoa@d+1,dtoa@n+1
  7336  002588  C02D  F045         	movff	dtoa@d+2,dtoa@n+2
  7337  00258C  C02E  F046         	movff	dtoa@d+3,dtoa@n+3
  7338  002590  C02F  F047         	movff	dtoa@d+4,dtoa@n+4
  7339  002594  C030  F048         	movff	dtoa@d+5,dtoa@n+5
  7340  002598  C031  F049         	movff	dtoa@d+6,dtoa@n+6
  7341  00259C  C032  F04A         	movff	dtoa@d+7,dtoa@n+7
  7342  0025A0                     
  7343                           ;C:\Program Files\Microchip\xc8\v2.36\pic\sources\c99\common\doprnt.c: 294:     s = n < 
      +                          0 ? 1 : 0;
  7344  0025A0  BE4A               	btfsc	(dtoa@n+7)^0,7,c
  7345  0025A2  EFD5  F012         	goto	u9401
  7346  0025A6  EFD8  F012         	goto	u9400
  7347  0025AA                     u9401:
  7348  0025AA  0E01               	movlw	1
  7349  0025AC  EFD9  F012         	goto	u9410
  7350  0025B0                     u9400:
  7351  0025B0  0E00               	movlw	0
  7352  0025B2                     u9410:
  7353  0025B2  6E41               	movwf	dtoa@s^0,c
  7354  0025B4  6A42               	clrf	(dtoa@s+1)^0,c
  7355                           
  7356                           ;C:\Program Files\Microchip\xc8\v2.36\pic\sources\c99\common\doprnt.c: 295:     if (s) {
  7357  0025B6  5041               	movf	dtoa@s^0,w,c
  7358  0025B8  1042               	iorwf	(dtoa@s+1)^0,w,c
  7359  0025BA  B4D8               	btfsc	status,2,c
  7360  0025BC  EFE2  F012         	goto	u9421
  7361  0025C0  EFE4  F012         	goto	u9420
  7362  0025C4                     u9421:
  7363  0025C4  EFF4  F012         	goto	l9458
  7364  0025C8                     u9420:
  7365  0025C8                     
  7366                           ;C:\Program Files\Microchip\xc8\v2.36\pic\sources\c99\common\doprnt.c: 296:         n = 
      +                          -n;
  7367  0025C8  1E4A               	comf	(dtoa@n+7)^0,f,c
  7368  0025CA  1E49               	comf	(dtoa@n+6)^0,f,c
  7369  0025CC  1E48               	comf	(dtoa@n+5)^0,f,c
  7370  0025CE  1E47               	comf	(dtoa@n+4)^0,f,c
  7371  0025D0  1E46               	comf	(dtoa@n+3)^0,f,c
  7372  0025D2  1E45               	comf	(dtoa@n+2)^0,f,c
  7373  0025D4  1E44               	comf	(dtoa@n+1)^0,f,c
  7374  0025D6  6C43               	negf	dtoa@n^0,c
  7375  0025D8  0E00               	movlw	0
  7376  0025DA  2244               	addwfc	(dtoa@n+1)^0,f,c
  7377  0025DC  2245               	addwfc	(dtoa@n+2)^0,f,c
  7378  0025DE  2246               	addwfc	(dtoa@n+3)^0,f,c
  7379  0025E0  2247               	addwfc	(dtoa@n+4)^0,f,c
  7380  0025E2  2248               	addwfc	(dtoa@n+5)^0,f,c
  7381  0025E4  2249               	addwfc	(dtoa@n+6)^0,f,c
  7382  0025E6  224A               	addwfc	(dtoa@n+7)^0,f,c
  7383  0025E8                     l9458:
  7384                           
  7385                           ;C:\Program Files\Microchip\xc8\v2.36\pic\sources\c99\common\doprnt.c: 300:     if (!(pr
      +                          ec < 0)) {
  7386  0025E8  0100               	movlb	0	; () banked
  7387  0025EA  BF8D               	btfsc	(_prec+1)& (0+255),7,b
  7388  0025EC  EFFA  F012         	goto	u9431
  7389  0025F0  EFFC  F012         	goto	u9430
  7390  0025F4                     u9431:
  7391  0025F4  EFFD  F012         	goto	l9462
  7392  0025F8                     u9430:
  7393  0025F8                     
  7394                           ; BSR set to: 0
  7395                           ;C:\Program Files\Microchip\xc8\v2.36\pic\sources\c99\common\doprnt.c: 301:         flag
      +                          s &= ~(1 << 1);
  7396  0025F8  9265               	bcf	_flags^0,1,c
  7397  0025FA                     l9462:
  7398                           
  7399                           ; BSR set to: 0
  7400                           ;C:\Program Files\Microchip\xc8\v2.36\pic\sources\c99\common\doprnt.c: 303:     p = (0 <
      +                           prec) ? prec : 1;
  7401  0025FA  BF8D               	btfsc	(_prec+1)& (0+255),7,b
  7402  0025FC  EF0A  F013         	goto	u9440
  7403  002600  518D               	movf	(_prec+1)& (0+255),w,b
  7404  002602  E106               	bnz	u9441
  7405  002604  058C               	decf	_prec& (0+255),w,b
  7406  002606  B0D8               	btfsc	status,0,c
  7407  002608  EF08  F013         	goto	u9441
  7408  00260C  EF0A  F013         	goto	u9440
  7409  002610                     u9441:
  7410  002610  EF10  F013         	goto	l2334
  7411  002614                     u9440:
  7412  002614                     
  7413                           ; BSR set to: 0
  7414  002614  0E00               	movlw	0
  7415  002616  6E3E               	movwf	(dtoa@p+1)^0,c
  7416  002618  0E01               	movlw	1
  7417  00261A  6E3D               	movwf	dtoa@p^0,c
  7418  00261C  EF14  F013         	goto	l2336
  7419  002620                     l2334:
  7420                           
  7421                           ; BSR set to: 0
  7422  002620  C08C  F03D         	movff	_prec,dtoa@p
  7423  002624  C08D  F03E         	movff	_prec+1,dtoa@p+1
  7424  002628                     l2336:
  7425                           
  7426                           ; BSR set to: 0
  7427                           ;C:\Program Files\Microchip\xc8\v2.36\pic\sources\c99\common\doprnt.c: 304:     w = widt
      +                          h;
  7428  002628  C08A  F03F         	movff	_width,dtoa@w
  7429  00262C  C08B  F040         	movff	_width+1,dtoa@w+1
  7430  002630                     
  7431                           ; BSR set to: 0
  7432                           ;C:\Program Files\Microchip\xc8\v2.36\pic\sources\c99\common\doprnt.c: 305:     if (s ||
      +                           (flags & (1 << 2))) {
  7433  002630  5041               	movf	dtoa@s^0,w,c
  7434  002632  1042               	iorwf	(dtoa@s+1)^0,w,c
  7435  002634  A4D8               	btfss	status,2,c
  7436  002636  EF1F  F013         	goto	u9451
  7437  00263A  EF21  F013         	goto	u9450
  7438  00263E                     u9451:
  7439  00263E  EF28  F013         	goto	l9470
  7440  002642                     u9450:
  7441  002642                     
  7442                           ; BSR set to: 0
  7443  002642  A465               	btfss	_flags^0,2,c
  7444  002644  EF26  F013         	goto	u9461
  7445  002648  EF28  F013         	goto	u9460
  7446  00264C                     u9461:
  7447  00264C  EF2B  F013         	goto	l9472
  7448  002650                     u9460:
  7449  002650                     l9470:
  7450                           
  7451                           ; BSR set to: 0
  7452                           ;C:\Program Files\Microchip\xc8\v2.36\pic\sources\c99\common\doprnt.c: 306:         --w;
  7453  002650  063F               	decf	dtoa@w^0,f,c
  7454  002652  A0D8               	btfss	status,0,c
  7455  002654  0640               	decf	(dtoa@w+1)^0,f,c
  7456  002656                     l9472:
  7457                           
  7458                           ; BSR set to: 0
  7459                           ;C:\Program Files\Microchip\xc8\v2.36\pic\sources\c99\common\doprnt.c: 310:     i = size
      +                          of(dbuf) - 1;
  7460  002656  0E00               	movlw	0
  7461  002658  6E4C               	movwf	(dtoa@i+1)^0,c
  7462  00265A  0E1F               	movlw	31
  7463  00265C  6E4B               	movwf	dtoa@i^0,c
  7464  00265E                     
  7465                           ; BSR set to: 0
  7466                           ;C:\Program Files\Microchip\xc8\v2.36\pic\sources\c99\common\doprnt.c: 311:     dbuf[i] 
      +                          = '\0';
  7467  00265E  0E00               	movlw	0
  7468  002660  0101               	movlb	1	; () banked
  7469  002662  6F53               	movwf	(_dbuf+31)& (0+255),b
  7470                           
  7471                           ;C:\Program Files\Microchip\xc8\v2.36\pic\sources\c99\common\doprnt.c: 312:     while (!
      +                          (i < 1) && (n || (0 < p) || ((0 < w) && (flags & (1 << 1))))) {
  7472  002664  EFB0  F013         	goto	l9486
  7473  002668                     l9476:
  7474                           
  7475                           ;C:\Program Files\Microchip\xc8\v2.36\pic\sources\c99\common\doprnt.c: 313:         --i;
  7476  002668  064B               	decf	dtoa@i^0,f,c
  7477  00266A  A0D8               	btfss	status,0,c
  7478  00266C  064C               	decf	(dtoa@i+1)^0,f,c
  7479  00266E                     
  7480                           ;C:\Program Files\Microchip\xc8\v2.36\pic\sources\c99\common\doprnt.c: 314:         dbuf
      +                          [i] = (char)((int)'0' + abs(n % 10));
  7481  00266E  0E34               	movlw	low _dbuf
  7482  002670  244B               	addwf	dtoa@i^0,w,c
  7483  002672  6ED9               	movwf	fsr2l,c
  7484  002674  0E01               	movlw	high _dbuf
  7485  002676  204C               	addwfc	(dtoa@i+1)^0,w,c
  7486  002678  6EDA               	movwf	fsr2h,c
  7487  00267A  C043  F00E         	movff	dtoa@n,___aomod@dividend
  7488  00267E  C044  F00F         	movff	dtoa@n+1,___aomod@dividend+1
  7489  002682  C045  F010         	movff	dtoa@n+2,___aomod@dividend+2
  7490  002686  C046  F011         	movff	dtoa@n+3,___aomod@dividend+3
  7491  00268A  C047  F012         	movff	dtoa@n+4,___aomod@dividend+4
  7492  00268E  C048  F013         	movff	dtoa@n+5,___aomod@dividend+5
  7493  002692  C049  F014         	movff	dtoa@n+6,___aomod@dividend+6
  7494  002696  C04A  F015         	movff	dtoa@n+7,___aomod@dividend+7
  7495  00269A  0E0A               	movlw	10
  7496  00269C  6E16               	movwf	___aomod@divisor^0,c
  7497  00269E  0E00               	movlw	0
  7498  0026A0  6E17               	movwf	(___aomod@divisor+1)^0,c
  7499  0026A2  0E00               	movlw	0
  7500  0026A4  6E18               	movwf	(___aomod@divisor+2)^0,c
  7501  0026A6  0E00               	movlw	0
  7502  0026A8  6E19               	movwf	(___aomod@divisor+3)^0,c
  7503  0026AA  0E00               	movlw	0
  7504  0026AC  6E1A               	movwf	(___aomod@divisor+4)^0,c
  7505  0026AE  0E00               	movlw	0
  7506  0026B0  6E1B               	movwf	(___aomod@divisor+5)^0,c
  7507  0026B2  0E00               	movlw	0
  7508  0026B4  6E1C               	movwf	(___aomod@divisor+6)^0,c
  7509  0026B6  0E00               	movlw	0
  7510  0026B8  6E1D               	movwf	(___aomod@divisor+7)^0,c
  7511  0026BA  EC2D  F018         	call	___aomod	;wreg free
  7512  0026BE  C00E  F033         	movff	?___aomod,??_dtoa
  7513  0026C2  C00F  F034         	movff	?___aomod+1,??_dtoa+1
  7514  0026C6  C010  F035         	movff	?___aomod+2,??_dtoa+2
  7515  0026CA  C011  F036         	movff	?___aomod+3,??_dtoa+3
  7516  0026CE  C012  F037         	movff	?___aomod+4,??_dtoa+4
  7517  0026D2  C013  F038         	movff	?___aomod+5,??_dtoa+5
  7518  0026D6  C014  F039         	movff	?___aomod+6,??_dtoa+6
  7519  0026DA  C015  F03A         	movff	?___aomod+7,??_dtoa+7
  7520  0026DE  C033  F020         	movff	??_dtoa,abs@a
  7521  0026E2  C035  F021         	movff	??_dtoa+2,abs@a+1
  7522  0026E6  ECF2  F020         	call	_abs	;wreg free
  7523  0026EA  5020               	movf	?_abs^0,w,c
  7524  0026EC  0F30               	addlw	48
  7525  0026EE  6EDF               	movwf	indf2,c
  7526  0026F0                     
  7527                           ;C:\Program Files\Microchip\xc8\v2.36\pic\sources\c99\common\doprnt.c: 315:         --p;
  7528  0026F0  063D               	decf	dtoa@p^0,f,c
  7529  0026F2  A0D8               	btfss	status,0,c
  7530  0026F4  063E               	decf	(dtoa@p+1)^0,f,c
  7531  0026F6                     
  7532                           ;C:\Program Files\Microchip\xc8\v2.36\pic\sources\c99\common\doprnt.c: 316:         --w;
  7533  0026F6  063F               	decf	dtoa@w^0,f,c
  7534  0026F8  A0D8               	btfss	status,0,c
  7535  0026FA  0640               	decf	(dtoa@w+1)^0,f,c
  7536  0026FC                     
  7537                           ;C:\Program Files\Microchip\xc8\v2.36\pic\sources\c99\common\doprnt.c: 317:         n = 
      +                          n / 10;
  7538  0026FC  C043  F00E         	movff	dtoa@n,___aodiv@dividend
  7539  002700  C044  F00F         	movff	dtoa@n+1,___aodiv@dividend+1
  7540  002704  C045  F010         	movff	dtoa@n+2,___aodiv@dividend+2
  7541  002708  C046  F011         	movff	dtoa@n+3,___aodiv@dividend+3
  7542  00270C  C047  F012         	movff	dtoa@n+4,___aodiv@dividend+4
  7543  002710  C048  F013         	movff	dtoa@n+5,___aodiv@dividend+5
  7544  002714  C049  F014         	movff	dtoa@n+6,___aodiv@dividend+6
  7545  002718  C04A  F015         	movff	dtoa@n+7,___aodiv@dividend+7
  7546  00271C  0E0A               	movlw	10
  7547  00271E  6E16               	movwf	___aodiv@divisor^0,c
  7548  002720  0E00               	movlw	0
  7549  002722  6E17               	movwf	(___aodiv@divisor+1)^0,c
  7550  002724  0E00               	movlw	0
  7551  002726  6E18               	movwf	(___aodiv@divisor+2)^0,c
  7552  002728  0E00               	movlw	0
  7553  00272A  6E19               	movwf	(___aodiv@divisor+3)^0,c
  7554  00272C  0E00               	movlw	0
  7555  00272E  6E1A               	movwf	(___aodiv@divisor+4)^0,c
  7556  002730  0E00               	movlw	0
  7557  002732  6E1B               	movwf	(___aodiv@divisor+5)^0,c
  7558  002734  0E00               	movlw	0
  7559  002736  6E1C               	movwf	(___aodiv@divisor+6)^0,c
  7560  002738  0E00               	movlw	0
  7561  00273A  6E1D               	movwf	(___aodiv@divisor+7)^0,c
  7562  00273C  ECAE  F016         	call	___aodiv	;wreg free
  7563  002740  C00E  F043         	movff	?___aodiv,dtoa@n
  7564  002744  C00F  F044         	movff	?___aodiv+1,dtoa@n+1
  7565  002748  C010  F045         	movff	?___aodiv+2,dtoa@n+2
  7566  00274C  C011  F046         	movff	?___aodiv+3,dtoa@n+3
  7567  002750  C012  F047         	movff	?___aodiv+4,dtoa@n+4
  7568  002754  C013  F048         	movff	?___aodiv+5,dtoa@n+5
  7569  002758  C014  F049         	movff	?___aodiv+6,dtoa@n+6
  7570  00275C  C015  F04A         	movff	?___aodiv+7,dtoa@n+7
  7571  002760                     l9486:
  7572                           
  7573                           ;C:\Program Files\Microchip\xc8\v2.36\pic\sources\c99\common\doprnt.c: 312:     while (!
      +                          (i < 1) && (n || (0 < p) || ((0 < w) && (flags & (1 << 1))))) {
  7574  002760  BE4C               	btfsc	(dtoa@i+1)^0,7,c
  7575  002762  EFBB  F013         	goto	u9471
  7576  002766  504C               	movf	(dtoa@i+1)^0,w,c
  7577  002768  E108               	bnz	u9470
  7578  00276A  044B               	decf	dtoa@i^0,w,c
  7579  00276C  A0D8               	btfss	status,0,c
  7580  00276E  EFBB  F013         	goto	u9471
  7581  002772  EFBD  F013         	goto	u9470
  7582  002776                     u9471:
  7583  002776  EFED  F013         	goto	l9496
  7584  00277A                     u9470:
  7585  00277A  5043               	movf	dtoa@n^0,w,c
  7586  00277C  1044               	iorwf	(dtoa@n+1)^0,w,c
  7587  00277E  1045               	iorwf	(dtoa@n+2)^0,w,c
  7588  002780  1046               	iorwf	(dtoa@n+3)^0,w,c
  7589  002782  1047               	iorwf	(dtoa@n+4)^0,w,c
  7590  002784  1048               	iorwf	(dtoa@n+5)^0,w,c
  7591  002786  1049               	iorwf	(dtoa@n+6)^0,w,c
  7592  002788  104A               	iorwf	(dtoa@n+7)^0,w,c
  7593  00278A  A4D8               	btfss	status,2,c
  7594  00278C  EFCA  F013         	goto	u9481
  7595  002790  EFCC  F013         	goto	u9480
  7596  002794                     u9481:
  7597  002794  EF34  F013         	goto	l9476
  7598  002798                     u9480:
  7599  002798  BE3E               	btfsc	(dtoa@p+1)^0,7,c
  7600  00279A  EFD9  F013         	goto	u9490
  7601  00279E  503E               	movf	(dtoa@p+1)^0,w,c
  7602  0027A0  E106               	bnz	u9491
  7603  0027A2  043D               	decf	dtoa@p^0,w,c
  7604  0027A4  B0D8               	btfsc	status,0,c
  7605  0027A6  EFD7  F013         	goto	u9491
  7606  0027AA  EFD9  F013         	goto	u9490
  7607  0027AE                     u9491:
  7608  0027AE  EF34  F013         	goto	l9476
  7609  0027B2                     u9490:
  7610  0027B2  BE40               	btfsc	(dtoa@w+1)^0,7,c
  7611  0027B4  EFE4  F013         	goto	u9501
  7612  0027B8  5040               	movf	(dtoa@w+1)^0,w,c
  7613  0027BA  E108               	bnz	u9500
  7614  0027BC  043F               	decf	dtoa@w^0,w,c
  7615  0027BE  A0D8               	btfss	status,0,c
  7616  0027C0  EFE4  F013         	goto	u9501
  7617  0027C4  EFE6  F013         	goto	u9500
  7618  0027C8                     u9501:
  7619  0027C8  EFED  F013         	goto	l9496
  7620  0027CC                     u9500:
  7621  0027CC  B265               	btfsc	_flags^0,1,c
  7622  0027CE  EFEB  F013         	goto	u9511
  7623  0027D2  EFED  F013         	goto	u9510
  7624  0027D6                     u9511:
  7625  0027D6  EF34  F013         	goto	l9476
  7626  0027DA                     u9510:
  7627  0027DA                     l9496:
  7628                           
  7629                           ;C:\Program Files\Microchip\xc8\v2.36\pic\sources\c99\common\doprnt.c: 321:     if (s ||
      +                           (flags & (1 << 2))) {
  7630  0027DA  5041               	movf	dtoa@s^0,w,c
  7631  0027DC  1042               	iorwf	(dtoa@s+1)^0,w,c
  7632  0027DE  A4D8               	btfss	status,2,c
  7633  0027E0  EFF4  F013         	goto	u9521
  7634  0027E4  EFF6  F013         	goto	u9520
  7635  0027E8                     u9521:
  7636  0027E8  EFFD  F013         	goto	l9500
  7637  0027EC                     u9520:
  7638  0027EC  A465               	btfss	_flags^0,2,c
  7639  0027EE  EFFB  F013         	goto	u9531
  7640  0027F2  EFFD  F013         	goto	u9530
  7641  0027F6                     u9531:
  7642  0027F6  EF1B  F014         	goto	l9510
  7643  0027FA                     u9530:
  7644  0027FA                     l9500:
  7645                           
  7646                           ;C:\Program Files\Microchip\xc8\v2.36\pic\sources\c99\common\doprnt.c: 322:         --i;
  7647  0027FA  064B               	decf	dtoa@i^0,f,c
  7648  0027FC  A0D8               	btfss	status,0,c
  7649  0027FE  064C               	decf	(dtoa@i+1)^0,f,c
  7650  002800                     
  7651                           ;C:\Program Files\Microchip\xc8\v2.36\pic\sources\c99\common\doprnt.c: 323:         dbuf
      +                          [i] = s ? '-' : '+';
  7652  002800  5041               	movf	dtoa@s^0,w,c
  7653  002802  1042               	iorwf	(dtoa@s+1)^0,w,c
  7654  002804  A4D8               	btfss	status,2,c
  7655  002806  EF07  F014         	goto	u9541
  7656  00280A  EF09  F014         	goto	u9540
  7657  00280E                     u9541:
  7658  00280E  EF0F  F014         	goto	l9506
  7659  002812                     u9540:
  7660  002812  0E00               	movlw	0
  7661  002814  6E3C               	movwf	(_dtoa$4175+1)^0,c
  7662  002816  0E2B               	movlw	43
  7663  002818  6E3B               	movwf	_dtoa$4175^0,c
  7664  00281A  EF13  F014         	goto	l9508
  7665  00281E                     l9506:
  7666  00281E  0E00               	movlw	0
  7667  002820  6E3C               	movwf	(_dtoa$4175+1)^0,c
  7668  002822  0E2D               	movlw	45
  7669  002824  6E3B               	movwf	_dtoa$4175^0,c
  7670  002826                     l9508:
  7671  002826  0E34               	movlw	low _dbuf
  7672  002828  244B               	addwf	dtoa@i^0,w,c
  7673  00282A  6ED9               	movwf	fsr2l,c
  7674  00282C  0E01               	movlw	high _dbuf
  7675  00282E  204C               	addwfc	(dtoa@i+1)^0,w,c
  7676  002830  6EDA               	movwf	fsr2h,c
  7677  002832  C03B  FFDF         	movff	_dtoa$4175,indf2
  7678  002836                     l9510:
  7679                           
  7680                           ;C:\Program Files\Microchip\xc8\v2.36\pic\sources\c99\common\doprnt.c: 327:     return p
      +                          ad(fp, &dbuf[i], w);
  7681  002836  C029  F01E         	movff	dtoa@fp,pad@fp
  7682  00283A  C02A  F01F         	movff	dtoa@fp+1,pad@fp+1
  7683  00283E  0E34               	movlw	low _dbuf
  7684  002840  244B               	addwf	dtoa@i^0,w,c
  7685  002842  6E20               	movwf	pad@buf^0,c
  7686  002844  0E01               	movlw	high _dbuf
  7687  002846  204C               	addwfc	(dtoa@i+1)^0,w,c
  7688  002848  6E21               	movwf	(pad@buf+1)^0,c
  7689  00284A  C03F  F022         	movff	dtoa@w,pad@p
  7690  00284E  C040  F023         	movff	dtoa@w+1,pad@p+1
  7691  002852  EC94  F01B         	call	_pad	;wreg free
  7692  002856  C01E  F029         	movff	?_pad,?_dtoa
  7693  00285A  C01F  F02A         	movff	?_pad+1,?_dtoa+1
  7694  00285E  0012               	return		;funcret
  7695  002860                     __end_of_dtoa:
  7696                           	callstack 0
  7697                           
  7698 ;; *************** function _pad *****************
  7699 ;; Defined at:
  7700 ;;		line 72 in file "C:\Program Files\Microchip\xc8\v2.36\pic\sources\c99\common\doprnt.c"
  7701 ;; Parameters:    Size  Location     Type
  7702 ;;  fp              2   29[COMRAM] PTR struct _IO_FILE
  7703 ;;		 -> sprintf@f(11), 
  7704 ;;  buf             2   31[COMRAM] PTR unsigned char 
  7705 ;;		 -> dbuf(32), 
  7706 ;;  p               2   33[COMRAM] int 
  7707 ;; Auto vars:     Size  Location     Type
  7708 ;;  w               2   38[COMRAM] int 
  7709 ;;  i               2   36[COMRAM] int 
  7710 ;; Return value:  Size  Location     Type
  7711 ;;                  2   29[COMRAM] int 
  7712 ;; Registers used:
  7713 ;;		wreg, fsr1l, fsr1h, fsr2l, fsr2h, status,2, status,0, cstack
  7714 ;; Tracked objects:
  7715 ;;		On entry : 0/0
  7716 ;;		On exit  : 0/0
  7717 ;;		Unchanged: 0/0
  7718 ;; Data sizes:     COMRAM   BANK0   BANK1   BANK2   BANK3   BANK4   BANK5   BANK6   BANK7   BANK8   BANK9  BANK10  BANK1
      +1  BANK12  BANK13  BANK14  BANK15
  7719 ;;      Params:         6       0       0       0       0       0       0       0       0       0       0       0       
      +0       0       0       0       0
  7720 ;;      Locals:         4       0       0       0       0       0       0       0       0       0       0       0       
      +0       0       0       0       0
  7721 ;;      Temps:          1       0       0       0       0       0       0       0       0       0       0       0       
      +0       0       0       0       0
  7722 ;;      Totals:        11       0       0       0       0       0       0       0       0       0       0       0       
      +0       0       0       0       0
  7723 ;;Total ram usage:       11 bytes
  7724 ;; Hardware stack levels used: 1
  7725 ;; Hardware stack levels required when called: 7
  7726 ;; This function calls:
  7727 ;;		_fputc
  7728 ;;		_fputs
  7729 ;;		_strlen
  7730 ;; This function is called by:
  7731 ;;		_dtoa
  7732 ;; This function uses a non-reentrant model
  7733 ;;
  7734                           
  7735                           	psect	text32
  7736  003728                     __ptext32:
  7737                           	callstack 0
  7738  003728                     _pad:
  7739                           	callstack 18
  7740  003728                     
  7741                           ;C:\Program Files\Microchip\xc8\v2.36\pic\sources\c99\common\doprnt.c: 72: static int pa
      +                          d(FILE *fp, char *buf, int p);C:\Program Files\Microchip\xc8\v2.36\pic\sources\c99\commo
      +                          n\doprnt.c: 73: {;C:\Program Files\Microchip\xc8\v2.36\pic\sources\c99\common\doprnt.c: 
      +                          74:     int i, w;;C:\Program Files\Microchip\xc8\v2.36\pic\sources\c99\common\doprnt.c: 
      +                          77:     if (flags & (1 << 0)) {
  7742  003728  A065               	btfss	_flags^0,0,c
  7743  00372A  EF99  F01B         	goto	u9351
  7744  00372E  EF9B  F01B         	goto	u9350
  7745  003732                     u9351:
  7746  003732  EFA5  F01B         	goto	l9430
  7747  003736                     u9350:
  7748  003736                     
  7749                           ;C:\Program Files\Microchip\xc8\v2.36\pic\sources\c99\common\doprnt.c: 78:         fputs
      +                          ((const char *)buf, fp);
  7750  003736  C020  F017         	movff	pad@buf,fputs@s
  7751  00373A  C021  F018         	movff	pad@buf+1,fputs@s+1
  7752  00373E  C01E  F019         	movff	pad@fp,fputs@fp
  7753  003742  C01F  F01A         	movff	pad@fp+1,fputs@fp+1
  7754  003746  ECD0  F020         	call	_fputs	;wreg free
  7755  00374A                     l9430:
  7756                           
  7757                           ;C:\Program Files\Microchip\xc8\v2.36\pic\sources\c99\common\doprnt.c: 82:     w = (p < 
      +                          0) ? 0 : p;
  7758  00374A  BE23               	btfsc	(pad@p+1)^0,7,c
  7759  00374C  EFAA  F01B         	goto	u9361
  7760  003750  EFAC  F01B         	goto	u9360
  7761  003754                     u9361:
  7762  003754  EFB2  F01B         	goto	l9434
  7763  003758                     u9360:
  7764  003758  C022  F027         	movff	pad@p,pad@w
  7765  00375C  C023  F028         	movff	pad@p+1,pad@w+1
  7766  003760  EFB6  F01B         	goto	l2323
  7767  003764                     l9434:
  7768  003764  0E00               	movlw	0
  7769  003766  6E28               	movwf	(pad@w+1)^0,c
  7770  003768  0E00               	movlw	0
  7771  00376A  6E27               	movwf	pad@w^0,c
  7772  00376C                     l2323:
  7773                           
  7774                           ;C:\Program Files\Microchip\xc8\v2.36\pic\sources\c99\common\doprnt.c: 83:     i = 0;
  7775  00376C  0E00               	movlw	0
  7776  00376E  6E26               	movwf	(pad@i+1)^0,c
  7777  003770  0E00               	movlw	0
  7778  003772  6E25               	movwf	pad@i^0,c
  7779                           
  7780                           ;C:\Program Files\Microchip\xc8\v2.36\pic\sources\c99\common\doprnt.c: 84:     while (i 
      +                          < w) {
  7781  003774  EFC8  F01B         	goto	l9440
  7782  003778                     l9436:
  7783                           
  7784                           ;C:\Program Files\Microchip\xc8\v2.36\pic\sources\c99\common\doprnt.c: 85:         fputc
      +                          (' ', fp);
  7785  003778  0E00               	movlw	0
  7786  00377A  6E0F               	movwf	(fputc@c+1)^0,c
  7787  00377C  0E20               	movlw	32
  7788  00377E  6E0E               	movwf	fputc@c^0,c
  7789  003780  C01E  F010         	movff	pad@fp,fputc@fp
  7790  003784  C01F  F011         	movff	pad@fp+1,fputc@fp+1
  7791  003788  EC2F  F01B         	call	_fputc	;wreg free
  7792  00378C                     
  7793                           ;C:\Program Files\Microchip\xc8\v2.36\pic\sources\c99\common\doprnt.c: 86:         ++i;
  7794  00378C  4A25               	infsnz	pad@i^0,f,c
  7795  00378E  2A26               	incf	(pad@i+1)^0,f,c
  7796  003790                     l9440:
  7797                           
  7798                           ;C:\Program Files\Microchip\xc8\v2.36\pic\sources\c99\common\doprnt.c: 84:     while (i 
      +                          < w) {
  7799  003790  5027               	movf	pad@w^0,w,c
  7800  003792  5C25               	subwf	pad@i^0,w,c
  7801  003794  5026               	movf	(pad@i+1)^0,w,c
  7802  003796  0A80               	xorlw	128
  7803  003798  6E24               	movwf	??_pad^0,c
  7804  00379A  5028               	movf	(pad@w+1)^0,w,c
  7805  00379C  0A80               	xorlw	128
  7806  00379E  5824               	subwfb	??_pad^0,w,c
  7807  0037A0  A0D8               	btfss	status,0,c
  7808  0037A2  EFD5  F01B         	goto	u9371
  7809  0037A6  EFD7  F01B         	goto	u9370
  7810  0037AA                     u9371:
  7811  0037AA  EFBC  F01B         	goto	l9436
  7812  0037AE                     u9370:
  7813  0037AE                     
  7814                           ;C:\Program Files\Microchip\xc8\v2.36\pic\sources\c99\common\doprnt.c: 90:     if (!(fla
      +                          gs & (1 << 0))) {
  7815  0037AE  B065               	btfsc	_flags^0,0,c
  7816  0037B0  EFDC  F01B         	goto	u9381
  7817  0037B4  EFDE  F01B         	goto	u9380
  7818  0037B8                     u9381:
  7819  0037B8  EFE8  F01B         	goto	l9444
  7820  0037BC                     u9380:
  7821  0037BC                     
  7822                           ;C:\Program Files\Microchip\xc8\v2.36\pic\sources\c99\common\doprnt.c: 91:         fputs
      +                          ((const char *)buf, fp);
  7823  0037BC  C020  F017         	movff	pad@buf,fputs@s
  7824  0037C0  C021  F018         	movff	pad@buf+1,fputs@s+1
  7825  0037C4  C01E  F019         	movff	pad@fp,fputs@fp
  7826  0037C8  C01F  F01A         	movff	pad@fp+1,fputs@fp+1
  7827  0037CC  ECD0  F020         	call	_fputs	;wreg free
  7828  0037D0                     l9444:
  7829                           
  7830                           ;C:\Program Files\Microchip\xc8\v2.36\pic\sources\c99\common\doprnt.c: 94:     return (i
      +                          nt)(strlen(buf) + (size_t)w);
  7831  0037D0  C020  F00E         	movff	pad@buf,strlen@s
  7832  0037D4  C021  F00F         	movff	pad@buf+1,strlen@s+1
  7833  0037D8  EC2E  F021         	call	_strlen	;wreg free
  7834  0037DC  5027               	movf	pad@w^0,w,c
  7835  0037DE  240E               	addwf	?_strlen^0,w,c
  7836  0037E0  6E1E               	movwf	?_pad^0,c
  7837  0037E2  5028               	movf	(pad@w+1)^0,w,c
  7838  0037E4  200F               	addwfc	(?_strlen+1)^0,w,c
  7839  0037E6  6E1F               	movwf	(?_pad+1)^0,c
  7840  0037E8  0012               	return		;funcret
  7841  0037EA                     __end_of_pad:
  7842                           	callstack 0
  7843                           
  7844 ;; *************** function _strlen *****************
  7845 ;; Defined at:
  7846 ;;		line 5 in file "C:\Program Files\Microchip\xc8\v2.36\pic\sources\c99\common\strlen.c"
  7847 ;; Parameters:    Size  Location     Type
  7848 ;;  s               2   13[COMRAM] PTR const unsigned char 
  7849 ;;		 -> dbuf(32), 
  7850 ;; Auto vars:     Size  Location     Type
  7851 ;;  a               2   15[COMRAM] PTR const unsigned char 
  7852 ;;		 -> dbuf(32), 
  7853 ;; Return value:  Size  Location     Type
  7854 ;;                  2   13[COMRAM] unsigned int 
  7855 ;; Registers used:
  7856 ;;		wreg, fsr2l, fsr2h, status,2, status,0
  7857 ;; Tracked objects:
  7858 ;;		On entry : 0/0
  7859 ;;		On exit  : 0/0
  7860 ;;		Unchanged: 0/0
  7861 ;; Data sizes:     COMRAM   BANK0   BANK1   BANK2   BANK3   BANK4   BANK5   BANK6   BANK7   BANK8   BANK9  BANK10  BANK1
      +1  BANK12  BANK13  BANK14  BANK15
  7862 ;;      Params:         2       0       0       0       0       0       0       0       0       0       0       0       
      +0       0       0       0       0
  7863 ;;      Locals:         2       0       0       0       0       0       0       0       0       0       0       0       
      +0       0       0       0       0
  7864 ;;      Temps:          0       0       0       0       0       0       0       0       0       0       0       0       
      +0       0       0       0       0
  7865 ;;      Totals:         4       0       0       0       0       0       0       0       0       0       0       0       
      +0       0       0       0       0
  7866 ;;Total ram usage:        4 bytes
  7867 ;; Hardware stack levels used: 1
  7868 ;; Hardware stack levels required when called: 4
  7869 ;; This function calls:
  7870 ;;		Nothing
  7871 ;; This function is called by:
  7872 ;;		_pad
  7873 ;; This function uses a non-reentrant model
  7874 ;;
  7875                           
  7876                           	psect	text33
  7877  00425C                     __ptext33:
  7878                           	callstack 0
  7879  00425C                     _strlen:
  7880                           	callstack 20
  7881  00425C  C00E  F010         	movff	strlen@s,strlen@a
  7882  004260  C00F  F011         	movff	strlen@s+1,strlen@a+1
  7883  004264  EF36  F021         	goto	l9340
  7884  004268                     l9338:
  7885  004268  4A0E               	infsnz	strlen@s^0,f,c
  7886  00426A  2A0F               	incf	(strlen@s+1)^0,f,c
  7887  00426C                     l9340:
  7888  00426C  C00E  FFD9         	movff	strlen@s,fsr2l
  7889  004270  C00F  FFDA         	movff	strlen@s+1,fsr2h
  7890  004274  50DF               	movf	indf2,w,c
  7891  004276  A4D8               	btfss	status,2,c
  7892  004278  EF40  F021         	goto	u9211
  7893  00427C  EF42  F021         	goto	u9210
  7894  004280                     u9211:
  7895  004280  EF34  F021         	goto	l9338
  7896  004284                     u9210:
  7897  004284  5010               	movf	strlen@a^0,w,c
  7898  004286  5C0E               	subwf	strlen@s^0,w,c
  7899  004288  6E0E               	movwf	?_strlen^0,c
  7900  00428A  5011               	movf	(strlen@a+1)^0,w,c
  7901  00428C  580F               	subwfb	(strlen@s+1)^0,w,c
  7902  00428E  6E0F               	movwf	(?_strlen+1)^0,c
  7903  004290  0012               	return		;funcret
  7904  004292                     __end_of_strlen:
  7905                           	callstack 0
  7906                           
  7907 ;; *************** function _fputs *****************
  7908 ;; Defined at:
  7909 ;;		line 8 in file "C:\Program Files\Microchip\xc8\v2.36\pic\sources\c99\common\nf_fputs.c"
  7910 ;; Parameters:    Size  Location     Type
  7911 ;;  s               2   22[COMRAM] PTR const unsigned char 
  7912 ;;		 -> dbuf(32), 
  7913 ;;  fp              2   24[COMRAM] PTR struct _IO_FILE
  7914 ;;		 -> sprintf@f(11), 
  7915 ;; Auto vars:     Size  Location     Type
  7916 ;;  i               2   27[COMRAM] int 
  7917 ;;  c               1   26[COMRAM] unsigned char 
  7918 ;; Return value:  Size  Location     Type
  7919 ;;                  2   22[COMRAM] int 
  7920 ;; Registers used:
  7921 ;;		wreg, fsr1l, fsr1h, fsr2l, fsr2h, status,2, status,0, cstack
  7922 ;; Tracked objects:
  7923 ;;		On entry : 0/0
  7924 ;;		On exit  : 0/0
  7925 ;;		Unchanged: 0/0
  7926 ;; Data sizes:     COMRAM   BANK0   BANK1   BANK2   BANK3   BANK4   BANK5   BANK6   BANK7   BANK8   BANK9  BANK10  BANK1
      +1  BANK12  BANK13  BANK14  BANK15
  7927 ;;      Params:         4       0       0       0       0       0       0       0       0       0       0       0       
      +0       0       0       0       0
  7928 ;;      Locals:         3       0       0       0       0       0       0       0       0       0       0       0       
      +0       0       0       0       0
  7929 ;;      Temps:          0       0       0       0       0       0       0       0       0       0       0       0       
      +0       0       0       0       0
  7930 ;;      Totals:         7       0       0       0       0       0       0       0       0       0       0       0       
      +0       0       0       0       0
  7931 ;;Total ram usage:        7 bytes
  7932 ;; Hardware stack levels used: 1
  7933 ;; Hardware stack levels required when called: 6
  7934 ;; This function calls:
  7935 ;;		_fputc
  7936 ;; This function is called by:
  7937 ;;		_pad
  7938 ;; This function uses a non-reentrant model
  7939 ;;
  7940                           
  7941                           	psect	text34
  7942  0041A0                     __ptext34:
  7943                           	callstack 0
  7944  0041A0                     _fputs:
  7945                           	callstack 18
  7946  0041A0  0E00               	movlw	0
  7947  0041A2  6E1D               	movwf	(fputs@i+1)^0,c
  7948  0041A4  0E00               	movlw	0
  7949  0041A6  6E1C               	movwf	fputs@i^0,c
  7950  0041A8  EFE1  F020         	goto	l9334
  7951  0041AC                     l9330:
  7952  0041AC  C01B  F00E         	movff	fputs@c,fputc@c
  7953  0041B0  6A0F               	clrf	(fputc@c+1)^0,c
  7954  0041B2  C019  F010         	movff	fputs@fp,fputc@fp
  7955  0041B6  C01A  F011         	movff	fputs@fp+1,fputc@fp+1
  7956  0041BA  EC2F  F01B         	call	_fputc	;wreg free
  7957  0041BE  4A1C               	infsnz	fputs@i^0,f,c
  7958  0041C0  2A1D               	incf	(fputs@i+1)^0,f,c
  7959  0041C2                     l9334:
  7960  0041C2  501C               	movf	fputs@i^0,w,c
  7961  0041C4  2417               	addwf	fputs@s^0,w,c
  7962  0041C6  6ED9               	movwf	fsr2l,c
  7963  0041C8  501D               	movf	(fputs@i+1)^0,w,c
  7964  0041CA  2018               	addwfc	(fputs@s+1)^0,w,c
  7965  0041CC  6EDA               	movwf	fsr2h,c
  7966  0041CE  50DF               	movf	indf2,w,c
  7967  0041D0  6E1B               	movwf	fputs@c^0,c
  7968  0041D2  501B               	movf	fputs@c^0,w,c
  7969  0041D4  A4D8               	btfss	status,2,c
  7970  0041D6  EFEF  F020         	goto	u9201
  7971  0041DA  EFF1  F020         	goto	u9200
  7972  0041DE                     u9201:
  7973  0041DE  EFD6  F020         	goto	l9330
  7974  0041E2                     u9200:
  7975  0041E2  0012               	return		;funcret
  7976  0041E4                     __end_of_fputs:
  7977                           	callstack 0
  7978                           
  7979 ;; *************** function _fputc *****************
  7980 ;; Defined at:
  7981 ;;		line 8 in file "C:\Program Files\Microchip\xc8\v2.36\pic\sources\c99\common\nf_fputc.c"
  7982 ;; Parameters:    Size  Location     Type
  7983 ;;  c               2   13[COMRAM] int 
  7984 ;;  fp              2   15[COMRAM] PTR struct _IO_FILE
  7985 ;;		 -> sprintf@f(11), 
  7986 ;; Auto vars:     Size  Location     Type
  7987 ;;		None
  7988 ;; Return value:  Size  Location     Type
  7989 ;;                  2   13[COMRAM] int 
  7990 ;; Registers used:
  7991 ;;		wreg, fsr1l, fsr1h, fsr2l, fsr2h, status,2, status,0, cstack
  7992 ;; Tracked objects:
  7993 ;;		On entry : 0/0
  7994 ;;		On exit  : 0/0
  7995 ;;		Unchanged: 0/0
  7996 ;; Data sizes:     COMRAM   BANK0   BANK1   BANK2   BANK3   BANK4   BANK5   BANK6   BANK7   BANK8   BANK9  BANK10  BANK1
      +1  BANK12  BANK13  BANK14  BANK15
  7997 ;;      Params:         4       0       0       0       0       0       0       0       0       0       0       0       
      +0       0       0       0       0
  7998 ;;      Locals:         0       0       0       0       0       0       0       0       0       0       0       0       
      +0       0       0       0       0
  7999 ;;      Temps:          5       0       0       0       0       0       0       0       0       0       0       0       
      +0       0       0       0       0
  8000 ;;      Totals:         9       0       0       0       0       0       0       0       0       0       0       0       
      +0       0       0       0       0
  8001 ;;Total ram usage:        9 bytes
  8002 ;; Hardware stack levels used: 1
  8003 ;; Hardware stack levels required when called: 5
  8004 ;; This function calls:
  8005 ;;		_putch
  8006 ;; This function is called by:
  8007 ;;		_pad
  8008 ;;		_vfpfcnvrt
  8009 ;;		_fputs
  8010 ;; This function uses a non-reentrant model
  8011 ;;
  8012                           
  8013                           	psect	text35
  8014  00365E                     __ptext35:
  8015                           	callstack 0
  8016  00365E                     _fputc:
  8017                           	callstack 21
  8018  00365E  5010               	movf	fputc@fp^0,w,c
  8019  003660  1011               	iorwf	(fputc@fp+1)^0,w,c
  8020  003662  B4D8               	btfsc	status,2,c
  8021  003664  EF36  F01B         	goto	u9161
  8022  003668  EF38  F01B         	goto	u9160
  8023  00366C                     u9161:
  8024  00366C  EF41  F01B         	goto	l9318
  8025  003670                     u9160:
  8026  003670  5010               	movf	fputc@fp^0,w,c
  8027  003672  1011               	iorwf	(fputc@fp+1)^0,w,c
  8028  003674  A4D8               	btfss	status,2,c
  8029  003676  EF3F  F01B         	goto	u9171
  8030  00367A  EF41  F01B         	goto	u9170
  8031  00367E                     u9171:
  8032  00367E  EF46  F01B         	goto	l9320
  8033  003682                     u9170:
  8034  003682                     l9318:
  8035  003682  500E               	movf	fputc@c^0,w,c
  8036  003684  EC1E  F022         	call	_putch
  8037  003688  EF93  F01B         	goto	l2387
  8038  00368C                     l9320:
  8039  00368C  EE20 F009          	lfsr	2,9
  8040  003690  5010               	movf	fputc@fp^0,w,c
  8041  003692  26D9               	addwf	fsr2l,f,c
  8042  003694  5011               	movf	(fputc@fp+1)^0,w,c
  8043  003696  22DA               	addwfc	fsr2h,f,c
  8044  003698  50DE               	movf	postinc2,w,c
  8045  00369A  10DE               	iorwf	postinc2,w,c
  8046  00369C  B4D8               	btfsc	status,2,c
  8047  00369E  EF53  F01B         	goto	u9181
  8048  0036A2  EF55  F01B         	goto	u9180
  8049  0036A6                     u9181:
  8050  0036A6  EF70  F01B         	goto	l9324
  8051  0036AA                     u9180:
  8052  0036AA  EE20 F009          	lfsr	2,9
  8053  0036AE  5010               	movf	fputc@fp^0,w,c
  8054  0036B0  26D9               	addwf	fsr2l,f,c
  8055  0036B2  5011               	movf	(fputc@fp+1)^0,w,c
  8056  0036B4  22DA               	addwfc	fsr2h,f,c
  8057  0036B6  EE10 F003          	lfsr	1,3
  8058  0036BA  5010               	movf	fputc@fp^0,w,c
  8059  0036BC  26E1               	addwf	fsr1l,f,c
  8060  0036BE  5011               	movf	(fputc@fp+1)^0,w,c
  8061  0036C0  22E2               	addwfc	fsr1h,f,c
  8062  0036C2  50DE               	movf	postinc2,w,c
  8063  0036C4  5CE6               	subwf	postinc1,w,c
  8064  0036C6  50E6               	movf	postinc1,w,c
  8065  0036C8  0A80               	xorlw	128
  8066  0036CA  6E16               	movwf	(??_fputc+4)^0,c
  8067  0036CC  50DE               	movf	postinc2,w,c
  8068  0036CE  0A80               	xorlw	128
  8069  0036D0  5816               	subwfb	(??_fputc+4)^0,w,c
  8070  0036D2  B0D8               	btfsc	status,0,c
  8071  0036D4  EF6E  F01B         	goto	u9191
  8072  0036D8  EF70  F01B         	goto	u9190
  8073  0036DC                     u9191:
  8074  0036DC  EF93  F01B         	goto	l2387
  8075  0036E0                     u9190:
  8076  0036E0                     l9324:
  8077  0036E0  EE20 F003          	lfsr	2,3
  8078  0036E4  5010               	movf	fputc@fp^0,w,c
  8079  0036E6  26D9               	addwf	fsr2l,f,c
  8080  0036E8  5011               	movf	(fputc@fp+1)^0,w,c
  8081  0036EA  22DA               	addwfc	fsr2h,f,c
  8082  0036EC  CFDE F012          	movff	postinc2,??_fputc
  8083  0036F0  CFDD F013          	movff	postdec2,??_fputc+1
  8084  0036F4  C010  FFD9         	movff	fputc@fp,fsr2l
  8085  0036F8  C011  FFDA         	movff	fputc@fp+1,fsr2h
  8086  0036FC  CFDE F014          	movff	postinc2,??_fputc+2
  8087  003700  CFDD F015          	movff	postdec2,??_fputc+3
  8088  003704  5012               	movf	??_fputc^0,w,c
  8089  003706  2414               	addwf	(??_fputc+2)^0,w,c
  8090  003708  6ED9               	movwf	fsr2l,c
  8091  00370A  5013               	movf	(??_fputc+1)^0,w,c
  8092  00370C  2015               	addwfc	(??_fputc+3)^0,w,c
  8093  00370E  6EDA               	movwf	fsr2h,c
  8094  003710  C00E  FFDF         	movff	fputc@c,indf2
  8095  003714  EE20 F003          	lfsr	2,3
  8096  003718  5010               	movf	fputc@fp^0,w,c
  8097  00371A  26D9               	addwf	fsr2l,f,c
  8098  00371C  5011               	movf	(fputc@fp+1)^0,w,c
  8099  00371E  22DA               	addwfc	fsr2h,f,c
  8100  003720  2ADE               	incf	postinc2,f,c
  8101  003722  0E00               	movlw	0
  8102  003724  22DD               	addwfc	postdec2,f,c
  8103  003726                     l2387:
  8104  003726  0012               	return		;funcret
  8105  003728                     __end_of_fputc:
  8106                           	callstack 0
  8107                           
  8108 ;; *************** function _putch *****************
  8109 ;; Defined at:
  8110 ;;		line 7 in file "C:\Program Files\Microchip\xc8\v2.36\pic\sources\c99\common\putch.c"
  8111 ;; Parameters:    Size  Location     Type
  8112 ;;  c               1    wreg     unsigned char 
  8113 ;; Auto vars:     Size  Location     Type
  8114 ;;  c               1    0[COMRAM] unsigned char 
  8115 ;; Return value:  Size  Location     Type
  8116 ;;                  1    wreg      void 
  8117 ;; Registers used:
  8118 ;;		wreg
  8119 ;; Tracked objects:
  8120 ;;		On entry : 0/0
  8121 ;;		On exit  : 0/0
  8122 ;;		Unchanged: 0/0
  8123 ;; Data sizes:     COMRAM   BANK0   BANK1   BANK2   BANK3   BANK4   BANK5   BANK6   BANK7   BANK8   BANK9  BANK10  BANK1
      +1  BANK12  BANK13  BANK14  BANK15
  8124 ;;      Params:         0       0       0       0       0       0       0       0       0       0       0       0       
      +0       0       0       0       0
  8125 ;;      Locals:         0       0       0       0       0       0       0       0       0       0       0       0       
      +0       0       0       0       0
  8126 ;;      Temps:          0       0       0       0       0       0       0       0       0       0       0       0       
      +0       0       0       0       0
  8127 ;;      Totals:         0       0       0       0       0       0       0       0       0       0       0       0       
      +0       0       0       0       0
  8128 ;;Total ram usage:        0 bytes
  8129 ;; Hardware stack levels used: 1
  8130 ;; Hardware stack levels required when called: 4
  8131 ;; This function calls:
  8132 ;;		Nothing
  8133 ;; This function is called by:
  8134 ;;		_fputc
  8135 ;; This function uses a non-reentrant model
  8136 ;;
  8137                           
  8138                           	psect	text36
  8139  00443C                     __ptext36:
  8140                           	callstack 0
  8141  00443C                     _putch:
  8142                           	callstack 21
  8143  00443C  0012               	return		;funcret
  8144  00443E                     __end_of_putch:
  8145                           	callstack 0
  8146                           
  8147 ;; *************** function _abs *****************
  8148 ;; Defined at:
  8149 ;;		line 1 in file "C:\Program Files\Microchip\xc8\v2.36\pic\sources\c99\common\abs.c"
  8150 ;; Parameters:    Size  Location     Type
  8151 ;;  a               2   31[COMRAM] int 
  8152 ;; Auto vars:     Size  Location     Type
  8153 ;;		None
  8154 ;; Return value:  Size  Location     Type
  8155 ;;                  2   31[COMRAM] int 
  8156 ;; Registers used:
  8157 ;;		wreg, status,2, status,0
  8158 ;; Tracked objects:
  8159 ;;		On entry : 0/0
  8160 ;;		On exit  : 0/0
  8161 ;;		Unchanged: 0/0
  8162 ;; Data sizes:     COMRAM   BANK0   BANK1   BANK2   BANK3   BANK4   BANK5   BANK6   BANK7   BANK8   BANK9  BANK10  BANK1
      +1  BANK12  BANK13  BANK14  BANK15
  8163 ;;      Params:         2       0       0       0       0       0       0       0       0       0       0       0       
      +0       0       0       0       0
  8164 ;;      Locals:         0       0       0       0       0       0       0       0       0       0       0       0       
      +0       0       0       0       0
  8165 ;;      Temps:          2       0       0       0       0       0       0       0       0       0       0       0       
      +0       0       0       0       0
  8166 ;;      Totals:         4       0       0       0       0       0       0       0       0       0       0       0       
      +0       0       0       0       0
  8167 ;;Total ram usage:        4 bytes
  8168 ;; Hardware stack levels used: 1
  8169 ;; Hardware stack levels required when called: 4
  8170 ;; This function calls:
  8171 ;;		Nothing
  8172 ;; This function is called by:
  8173 ;;		_dtoa
  8174 ;; This function uses a non-reentrant model
  8175 ;;
  8176                           
  8177                           	psect	text37
  8178  0041E4                     __ptext37:
  8179                           	callstack 0
  8180  0041E4                     _abs:
  8181                           	callstack 21
  8182  0041E4  BE21               	btfsc	(abs@a+1)^0,7,c
  8183  0041E6  EFFF  F020         	goto	u9390
  8184  0041EA  5021               	movf	(abs@a+1)^0,w,c
  8185  0041EC  E106               	bnz	u9391
  8186  0041EE  0420               	decf	abs@a^0,w,c
  8187  0041F0  B0D8               	btfsc	status,0,c
  8188  0041F2  EFFD  F020         	goto	u9391
  8189  0041F6  EFFF  F020         	goto	u9390
  8190  0041FA                     u9391:
  8191  0041FA  EF0D  F021         	goto	l2372
  8192  0041FE                     u9390:
  8193  0041FE  C020  F022         	movff	abs@a,??_abs
  8194  004202  C021  F023         	movff	abs@a+1,??_abs+1
  8195  004206  1E22               	comf	??_abs^0,f,c
  8196  004208  1E23               	comf	(??_abs+1)^0,f,c
  8197  00420A  4A22               	infsnz	??_abs^0,f,c
  8198  00420C  2A23               	incf	(??_abs+1)^0,f,c
  8199  00420E  C022  F020         	movff	??_abs,?_abs
  8200  004212  C023  F021         	movff	??_abs+1,?_abs+1
  8201  004216  EF11  F021         	goto	l2375
  8202  00421A                     l2372:
  8203  00421A  C020  F020         	movff	abs@a,?_abs
  8204  00421E  C021  F021         	movff	abs@a+1,?_abs+1
  8205  004222                     l2375:
  8206  004222  0012               	return		;funcret
  8207  004224                     __end_of_abs:
  8208                           	callstack 0
  8209                           
  8210 ;; *************** function ___aomod *****************
  8211 ;; Defined at:
  8212 ;;		line 9 in file "C:\Program Files\Microchip\xc8\v2.36\pic\sources\c99\common\aomod.c"
  8213 ;; Parameters:    Size  Location     Type
  8214 ;;  dividend        8   13[COMRAM] long long 
  8215 ;;  divisor         8   21[COMRAM] long long 
  8216 ;; Auto vars:     Size  Location     Type
  8217 ;;  sign            1   30[COMRAM] unsigned char 
  8218 ;;  counter         1   29[COMRAM] unsigned char 
  8219 ;; Return value:  Size  Location     Type
  8220 ;;                  8   13[COMRAM] long long 
  8221 ;; Registers used:
  8222 ;;		wreg, status,2, status,0
  8223 ;; Tracked objects:
  8224 ;;		On entry : 0/0
  8225 ;;		On exit  : 0/0
  8226 ;;		Unchanged: 0/0
  8227 ;; Data sizes:     COMRAM   BANK0   BANK1   BANK2   BANK3   BANK4   BANK5   BANK6   BANK7   BANK8   BANK9  BANK10  BANK1
      +1  BANK12  BANK13  BANK14  BANK15
  8228 ;;      Params:        16       0       0       0       0       0       0       0       0       0       0       0       
      +0       0       0       0       0
  8229 ;;      Locals:         2       0       0       0       0       0       0       0       0       0       0       0       
      +0       0       0       0       0
  8230 ;;      Temps:          0       0       0       0       0       0       0       0       0       0       0       0       
      +0       0       0       0       0
  8231 ;;      Totals:        18       0       0       0       0       0       0       0       0       0       0       0       
      +0       0       0       0       0
  8232 ;;Total ram usage:       18 bytes
  8233 ;; Hardware stack levels used: 1
  8234 ;; Hardware stack levels required when called: 4
  8235 ;; This function calls:
  8236 ;;		Nothing
  8237 ;; This function is called by:
  8238 ;;		_dtoa
  8239 ;; This function uses a non-reentrant model
  8240 ;;
  8241                           
  8242                           	psect	text38
  8243  00305A                     __ptext38:
  8244                           	callstack 0
  8245  00305A                     ___aomod:
  8246                           	callstack 21
  8247  00305A  0E00               	movlw	0
  8248  00305C  6E1F               	movwf	___aomod@sign^0,c
  8249  00305E  BE15               	btfsc	(___aomod@dividend+7)^0,7,c
  8250  003060  EF36  F018         	goto	u9290
  8251  003064  EF34  F018         	goto	u9291
  8252  003068                     u9291:
  8253  003068  EF48  F018         	goto	l9398
  8254  00306C                     u9290:
  8255  00306C  1E15               	comf	(___aomod@dividend+7)^0,f,c
  8256  00306E  1E14               	comf	(___aomod@dividend+6)^0,f,c
  8257  003070  1E13               	comf	(___aomod@dividend+5)^0,f,c
  8258  003072  1E12               	comf	(___aomod@dividend+4)^0,f,c
  8259  003074  1E11               	comf	(___aomod@dividend+3)^0,f,c
  8260  003076  1E10               	comf	(___aomod@dividend+2)^0,f,c
  8261  003078  1E0F               	comf	(___aomod@dividend+1)^0,f,c
  8262  00307A  6C0E               	negf	___aomod@dividend^0,c
  8263  00307C  0E00               	movlw	0
  8264  00307E  220F               	addwfc	(___aomod@dividend+1)^0,f,c
  8265  003080  2210               	addwfc	(___aomod@dividend+2)^0,f,c
  8266  003082  2211               	addwfc	(___aomod@dividend+3)^0,f,c
  8267  003084  2212               	addwfc	(___aomod@dividend+4)^0,f,c
  8268  003086  2213               	addwfc	(___aomod@dividend+5)^0,f,c
  8269  003088  2214               	addwfc	(___aomod@dividend+6)^0,f,c
  8270  00308A  2215               	addwfc	(___aomod@dividend+7)^0,f,c
  8271  00308C  0E01               	movlw	1
  8272  00308E  6E1F               	movwf	___aomod@sign^0,c
  8273  003090                     l9398:
  8274  003090  BE1D               	btfsc	(___aomod@divisor+7)^0,7,c
  8275  003092  EF4F  F018         	goto	u9300
  8276  003096  EF4D  F018         	goto	u9301
  8277  00309A                     u9301:
  8278  00309A  EF5F  F018         	goto	l9402
  8279  00309E                     u9300:
  8280  00309E  1E1D               	comf	(___aomod@divisor+7)^0,f,c
  8281  0030A0  1E1C               	comf	(___aomod@divisor+6)^0,f,c
  8282  0030A2  1E1B               	comf	(___aomod@divisor+5)^0,f,c
  8283  0030A4  1E1A               	comf	(___aomod@divisor+4)^0,f,c
  8284  0030A6  1E19               	comf	(___aomod@divisor+3)^0,f,c
  8285  0030A8  1E18               	comf	(___aomod@divisor+2)^0,f,c
  8286  0030AA  1E17               	comf	(___aomod@divisor+1)^0,f,c
  8287  0030AC  6C16               	negf	___aomod@divisor^0,c
  8288  0030AE  0E00               	movlw	0
  8289  0030B0  2217               	addwfc	(___aomod@divisor+1)^0,f,c
  8290  0030B2  2218               	addwfc	(___aomod@divisor+2)^0,f,c
  8291  0030B4  2219               	addwfc	(___aomod@divisor+3)^0,f,c
  8292  0030B6  221A               	addwfc	(___aomod@divisor+4)^0,f,c
  8293  0030B8  221B               	addwfc	(___aomod@divisor+5)^0,f,c
  8294  0030BA  221C               	addwfc	(___aomod@divisor+6)^0,f,c
  8295  0030BC  221D               	addwfc	(___aomod@divisor+7)^0,f,c
  8296  0030BE                     l9402:
  8297  0030BE  5016               	movf	___aomod@divisor^0,w,c
  8298  0030C0  1017               	iorwf	(___aomod@divisor+1)^0,w,c
  8299  0030C2  1018               	iorwf	(___aomod@divisor+2)^0,w,c
  8300  0030C4  1019               	iorwf	(___aomod@divisor+3)^0,w,c
  8301  0030C6  101A               	iorwf	(___aomod@divisor+4)^0,w,c
  8302  0030C8  101B               	iorwf	(___aomod@divisor+5)^0,w,c
  8303  0030CA  101C               	iorwf	(___aomod@divisor+6)^0,w,c
  8304  0030CC  101D               	iorwf	(___aomod@divisor+7)^0,w,c
  8305  0030CE  B4D8               	btfsc	status,2,c
  8306  0030D0  EF6C  F018         	goto	u9311
  8307  0030D4  EF6E  F018         	goto	u9310
  8308  0030D8                     u9311:
  8309  0030D8  EFB6  F018         	goto	l9418
  8310  0030DC                     u9310:
  8311  0030DC  0E01               	movlw	1
  8312  0030DE  6E1E               	movwf	___aomod@counter^0,c
  8313  0030E0  EF7C  F018         	goto	l9408
  8314  0030E4                     l9406:
  8315  0030E4  90D8               	bcf	status,0,c
  8316  0030E6  3616               	rlcf	___aomod@divisor^0,f,c
  8317  0030E8  3617               	rlcf	(___aomod@divisor+1)^0,f,c
  8318  0030EA  3618               	rlcf	(___aomod@divisor+2)^0,f,c
  8319  0030EC  3619               	rlcf	(___aomod@divisor+3)^0,f,c
  8320  0030EE  361A               	rlcf	(___aomod@divisor+4)^0,f,c
  8321  0030F0  361B               	rlcf	(___aomod@divisor+5)^0,f,c
  8322  0030F2  361C               	rlcf	(___aomod@divisor+6)^0,f,c
  8323  0030F4  361D               	rlcf	(___aomod@divisor+7)^0,f,c
  8324  0030F6  2A1E               	incf	___aomod@counter^0,f,c
  8325  0030F8                     l9408:
  8326  0030F8  AE1D               	btfss	(___aomod@divisor+7)^0,7,c
  8327  0030FA  EF81  F018         	goto	u9321
  8328  0030FE  EF83  F018         	goto	u9320
  8329  003102                     u9321:
  8330  003102  EF72  F018         	goto	l9406
  8331  003106                     u9320:
  8332  003106                     l9410:
  8333  003106  5016               	movf	___aomod@divisor^0,w,c
  8334  003108  5C0E               	subwf	___aomod@dividend^0,w,c
  8335  00310A  5017               	movf	(___aomod@divisor+1)^0,w,c
  8336  00310C  580F               	subwfb	(___aomod@dividend+1)^0,w,c
  8337  00310E  5018               	movf	(___aomod@divisor+2)^0,w,c
  8338  003110  5810               	subwfb	(___aomod@dividend+2)^0,w,c
  8339  003112  5019               	movf	(___aomod@divisor+3)^0,w,c
  8340  003114  5811               	subwfb	(___aomod@dividend+3)^0,w,c
  8341  003116  501A               	movf	(___aomod@divisor+4)^0,w,c
  8342  003118  5812               	subwfb	(___aomod@dividend+4)^0,w,c
  8343  00311A  501B               	movf	(___aomod@divisor+5)^0,w,c
  8344  00311C  5813               	subwfb	(___aomod@dividend+5)^0,w,c
  8345  00311E  501C               	movf	(___aomod@divisor+6)^0,w,c
  8346  003120  5814               	subwfb	(___aomod@dividend+6)^0,w,c
  8347  003122  501D               	movf	(___aomod@divisor+7)^0,w,c
  8348  003124  5815               	subwfb	(___aomod@dividend+7)^0,w,c
  8349  003126  A0D8               	btfss	status,0,c
  8350  003128  EF98  F018         	goto	u9331
  8351  00312C  EF9A  F018         	goto	u9330
  8352  003130                     u9331:
  8353  003130  EFAA  F018         	goto	l9414
  8354  003134                     u9330:
  8355  003134  5016               	movf	___aomod@divisor^0,w,c
  8356  003136  5E0E               	subwf	___aomod@dividend^0,f,c
  8357  003138  5017               	movf	(___aomod@divisor+1)^0,w,c
  8358  00313A  5A0F               	subwfb	(___aomod@dividend+1)^0,f,c
  8359  00313C  5018               	movf	(___aomod@divisor+2)^0,w,c
  8360  00313E  5A10               	subwfb	(___aomod@dividend+2)^0,f,c
  8361  003140  5019               	movf	(___aomod@divisor+3)^0,w,c
  8362  003142  5A11               	subwfb	(___aomod@dividend+3)^0,f,c
  8363  003144  501A               	movf	(___aomod@divisor+4)^0,w,c
  8364  003146  5A12               	subwfb	(___aomod@dividend+4)^0,f,c
  8365  003148  501B               	movf	(___aomod@divisor+5)^0,w,c
  8366  00314A  5A13               	subwfb	(___aomod@dividend+5)^0,f,c
  8367  00314C  501C               	movf	(___aomod@divisor+6)^0,w,c
  8368  00314E  5A14               	subwfb	(___aomod@dividend+6)^0,f,c
  8369  003150  501D               	movf	(___aomod@divisor+7)^0,w,c
  8370  003152  5A15               	subwfb	(___aomod@dividend+7)^0,f,c
  8371  003154                     l9414:
  8372  003154  90D8               	bcf	status,0,c
  8373  003156  321D               	rrcf	(___aomod@divisor+7)^0,f,c
  8374  003158  321C               	rrcf	(___aomod@divisor+6)^0,f,c
  8375  00315A  321B               	rrcf	(___aomod@divisor+5)^0,f,c
  8376  00315C  321A               	rrcf	(___aomod@divisor+4)^0,f,c
  8377  00315E  3219               	rrcf	(___aomod@divisor+3)^0,f,c
  8378  003160  3218               	rrcf	(___aomod@divisor+2)^0,f,c
  8379  003162  3217               	rrcf	(___aomod@divisor+1)^0,f,c
  8380  003164  3216               	rrcf	___aomod@divisor^0,f,c
  8381  003166  2E1E               	decfsz	___aomod@counter^0,f,c
  8382  003168  EF83  F018         	goto	l9410
  8383  00316C                     l9418:
  8384  00316C  501F               	movf	___aomod@sign^0,w,c
  8385  00316E  B4D8               	btfsc	status,2,c
  8386  003170  EFBC  F018         	goto	u9341
  8387  003174  EFBE  F018         	goto	u9340
  8388  003178                     u9341:
  8389  003178  EFCE  F018         	goto	l9422
  8390  00317C                     u9340:
  8391  00317C  1E15               	comf	(___aomod@dividend+7)^0,f,c
  8392  00317E  1E14               	comf	(___aomod@dividend+6)^0,f,c
  8393  003180  1E13               	comf	(___aomod@dividend+5)^0,f,c
  8394  003182  1E12               	comf	(___aomod@dividend+4)^0,f,c
  8395  003184  1E11               	comf	(___aomod@dividend+3)^0,f,c
  8396  003186  1E10               	comf	(___aomod@dividend+2)^0,f,c
  8397  003188  1E0F               	comf	(___aomod@dividend+1)^0,f,c
  8398  00318A  6C0E               	negf	___aomod@dividend^0,c
  8399  00318C  0E00               	movlw	0
  8400  00318E  220F               	addwfc	(___aomod@dividend+1)^0,f,c
  8401  003190  2210               	addwfc	(___aomod@dividend+2)^0,f,c
  8402  003192  2211               	addwfc	(___aomod@dividend+3)^0,f,c
  8403  003194  2212               	addwfc	(___aomod@dividend+4)^0,f,c
  8404  003196  2213               	addwfc	(___aomod@dividend+5)^0,f,c
  8405  003198  2214               	addwfc	(___aomod@dividend+6)^0,f,c
  8406  00319A  2215               	addwfc	(___aomod@dividend+7)^0,f,c
  8407  00319C                     l9422:
  8408  00319C  C00E  F00E         	movff	___aomod@dividend,?___aomod
  8409  0031A0  C00F  F00F         	movff	___aomod@dividend+1,?___aomod+1
  8410  0031A4  C010  F010         	movff	___aomod@dividend+2,?___aomod+2
  8411  0031A8  C011  F011         	movff	___aomod@dividend+3,?___aomod+3
  8412  0031AC  C012  F012         	movff	___aomod@dividend+4,?___aomod+4
  8413  0031B0  C013  F013         	movff	___aomod@dividend+5,?___aomod+5
  8414  0031B4  C014  F014         	movff	___aomod@dividend+6,?___aomod+6
  8415  0031B8  C015  F015         	movff	___aomod@dividend+7,?___aomod+7
  8416  0031BC  0012               	return		;funcret
  8417  0031BE                     __end_of___aomod:
  8418                           	callstack 0
  8419                           
  8420 ;; *************** function ___aodiv *****************
  8421 ;; Defined at:
  8422 ;;		line 9 in file "C:\Program Files\Microchip\xc8\v2.36\pic\sources\c99\common\aodiv.c"
  8423 ;; Parameters:    Size  Location     Type
  8424 ;;  dividend        8   13[COMRAM] long long 
  8425 ;;  divisor         8   21[COMRAM] long long 
  8426 ;; Auto vars:     Size  Location     Type
  8427 ;;  quotient        8   31[COMRAM] long long 
  8428 ;;  sign            1   30[COMRAM] unsigned char 
  8429 ;;  counter         1   29[COMRAM] unsigned char 
  8430 ;; Return value:  Size  Location     Type
  8431 ;;                  8   13[COMRAM] long long 
  8432 ;; Registers used:
  8433 ;;		wreg, fsr2l, fsr2h, status,2, status,0
  8434 ;; Tracked objects:
  8435 ;;		On entry : 0/0
  8436 ;;		On exit  : 0/0
  8437 ;;		Unchanged: 0/0
  8438 ;; Data sizes:     COMRAM   BANK0   BANK1   BANK2   BANK3   BANK4   BANK5   BANK6   BANK7   BANK8   BANK9  BANK10  BANK1
      +1  BANK12  BANK13  BANK14  BANK15
  8439 ;;      Params:        16       0       0       0       0       0       0       0       0       0       0       0       
      +0       0       0       0       0
  8440 ;;      Locals:        10       0       0       0       0       0       0       0       0       0       0       0       
      +0       0       0       0       0
  8441 ;;      Temps:          0       0       0       0       0       0       0       0       0       0       0       0       
      +0       0       0       0       0
  8442 ;;      Totals:        26       0       0       0       0       0       0       0       0       0       0       0       
      +0       0       0       0       0
  8443 ;;Total ram usage:       26 bytes
  8444 ;; Hardware stack levels used: 1
  8445 ;; Hardware stack levels required when called: 4
  8446 ;; This function calls:
  8447 ;;		Nothing
  8448 ;; This function is called by:
  8449 ;;		_dtoa
  8450 ;; This function uses a non-reentrant model
  8451 ;;
  8452                           
  8453                           	psect	text39
  8454  002D5C                     __ptext39:
  8455                           	callstack 0
  8456  002D5C                     ___aodiv:
  8457                           	callstack 21
  8458  002D5C  0E00               	movlw	0
  8459  002D5E  6E1F               	movwf	___aodiv@sign^0,c
  8460  002D60  BE1D               	btfsc	(___aodiv@divisor+7)^0,7,c
  8461  002D62  EFB7  F016         	goto	u9220
  8462  002D66  EFB5  F016         	goto	u9221
  8463  002D6A                     u9221:
  8464  002D6A  EFC9  F016         	goto	l9354
  8465  002D6E                     u9220:
  8466  002D6E  1E1D               	comf	(___aodiv@divisor+7)^0,f,c
  8467  002D70  1E1C               	comf	(___aodiv@divisor+6)^0,f,c
  8468  002D72  1E1B               	comf	(___aodiv@divisor+5)^0,f,c
  8469  002D74  1E1A               	comf	(___aodiv@divisor+4)^0,f,c
  8470  002D76  1E19               	comf	(___aodiv@divisor+3)^0,f,c
  8471  002D78  1E18               	comf	(___aodiv@divisor+2)^0,f,c
  8472  002D7A  1E17               	comf	(___aodiv@divisor+1)^0,f,c
  8473  002D7C  6C16               	negf	___aodiv@divisor^0,c
  8474  002D7E  0E00               	movlw	0
  8475  002D80  2217               	addwfc	(___aodiv@divisor+1)^0,f,c
  8476  002D82  2218               	addwfc	(___aodiv@divisor+2)^0,f,c
  8477  002D84  2219               	addwfc	(___aodiv@divisor+3)^0,f,c
  8478  002D86  221A               	addwfc	(___aodiv@divisor+4)^0,f,c
  8479  002D88  221B               	addwfc	(___aodiv@divisor+5)^0,f,c
  8480  002D8A  221C               	addwfc	(___aodiv@divisor+6)^0,f,c
  8481  002D8C  221D               	addwfc	(___aodiv@divisor+7)^0,f,c
  8482  002D8E  0E01               	movlw	1
  8483  002D90  6E1F               	movwf	___aodiv@sign^0,c
  8484  002D92                     l9354:
  8485  002D92  BE15               	btfsc	(___aodiv@dividend+7)^0,7,c
  8486  002D94  EFD0  F016         	goto	u9230
  8487  002D98  EFCE  F016         	goto	u9231
  8488  002D9C                     u9231:
  8489  002D9C  EFE2  F016         	goto	l9360
  8490  002DA0                     u9230:
  8491  002DA0  1E15               	comf	(___aodiv@dividend+7)^0,f,c
  8492  002DA2  1E14               	comf	(___aodiv@dividend+6)^0,f,c
  8493  002DA4  1E13               	comf	(___aodiv@dividend+5)^0,f,c
  8494  002DA6  1E12               	comf	(___aodiv@dividend+4)^0,f,c
  8495  002DA8  1E11               	comf	(___aodiv@dividend+3)^0,f,c
  8496  002DAA  1E10               	comf	(___aodiv@dividend+2)^0,f,c
  8497  002DAC  1E0F               	comf	(___aodiv@dividend+1)^0,f,c
  8498  002DAE  6C0E               	negf	___aodiv@dividend^0,c
  8499  002DB0  0E00               	movlw	0
  8500  002DB2  220F               	addwfc	(___aodiv@dividend+1)^0,f,c
  8501  002DB4  2210               	addwfc	(___aodiv@dividend+2)^0,f,c
  8502  002DB6  2211               	addwfc	(___aodiv@dividend+3)^0,f,c
  8503  002DB8  2212               	addwfc	(___aodiv@dividend+4)^0,f,c
  8504  002DBA  2213               	addwfc	(___aodiv@dividend+5)^0,f,c
  8505  002DBC  2214               	addwfc	(___aodiv@dividend+6)^0,f,c
  8506  002DBE  2215               	addwfc	(___aodiv@dividend+7)^0,f,c
  8507  002DC0  0E01               	movlw	1
  8508  002DC2  1A1F               	xorwf	___aodiv@sign^0,f,c
  8509  002DC4                     l9360:
  8510  002DC4  EE20  F020         	lfsr	2,___aodiv@quotient
  8511  002DC8  0E07               	movlw	7
  8512  002DCA                     u9241:
  8513  002DCA  6ADE               	clrf	postinc2,c
  8514  002DCC  06E8               	decf	wreg,f,c
  8515  002DCE  E2FD               	bc	u9241
  8516  002DD0  5016               	movf	___aodiv@divisor^0,w,c
  8517  002DD2  1017               	iorwf	(___aodiv@divisor+1)^0,w,c
  8518  002DD4  1018               	iorwf	(___aodiv@divisor+2)^0,w,c
  8519  002DD6  1019               	iorwf	(___aodiv@divisor+3)^0,w,c
  8520  002DD8  101A               	iorwf	(___aodiv@divisor+4)^0,w,c
  8521  002DDA  101B               	iorwf	(___aodiv@divisor+5)^0,w,c
  8522  002DDC  101C               	iorwf	(___aodiv@divisor+6)^0,w,c
  8523  002DDE  101D               	iorwf	(___aodiv@divisor+7)^0,w,c
  8524  002DE0  B4D8               	btfsc	status,2,c
  8525  002DE2  EFF5  F016         	goto	u9251
  8526  002DE6  EFF7  F016         	goto	u9250
  8527  002DEA                     u9251:
  8528  002DEA  EF49  F017         	goto	l9382
  8529  002DEE                     u9250:
  8530  002DEE  0E01               	movlw	1
  8531  002DF0  6E1E               	movwf	___aodiv@counter^0,c
  8532  002DF2  EF05  F017         	goto	l9368
  8533  002DF6                     l9366:
  8534  002DF6  90D8               	bcf	status,0,c
  8535  002DF8  3616               	rlcf	___aodiv@divisor^0,f,c
  8536  002DFA  3617               	rlcf	(___aodiv@divisor+1)^0,f,c
  8537  002DFC  3618               	rlcf	(___aodiv@divisor+2)^0,f,c
  8538  002DFE  3619               	rlcf	(___aodiv@divisor+3)^0,f,c
  8539  002E00  361A               	rlcf	(___aodiv@divisor+4)^0,f,c
  8540  002E02  361B               	rlcf	(___aodiv@divisor+5)^0,f,c
  8541  002E04  361C               	rlcf	(___aodiv@divisor+6)^0,f,c
  8542  002E06  361D               	rlcf	(___aodiv@divisor+7)^0,f,c
  8543  002E08  2A1E               	incf	___aodiv@counter^0,f,c
  8544  002E0A                     l9368:
  8545  002E0A  AE1D               	btfss	(___aodiv@divisor+7)^0,7,c
  8546  002E0C  EF0A  F017         	goto	u9261
  8547  002E10  EF0C  F017         	goto	u9260
  8548  002E14                     u9261:
  8549  002E14  EFFB  F016         	goto	l9366
  8550  002E18                     u9260:
  8551  002E18                     l9370:
  8552  002E18  90D8               	bcf	status,0,c
  8553  002E1A  3620               	rlcf	___aodiv@quotient^0,f,c
  8554  002E1C  3621               	rlcf	(___aodiv@quotient+1)^0,f,c
  8555  002E1E  3622               	rlcf	(___aodiv@quotient+2)^0,f,c
  8556  002E20  3623               	rlcf	(___aodiv@quotient+3)^0,f,c
  8557  002E22  3624               	rlcf	(___aodiv@quotient+4)^0,f,c
  8558  002E24  3625               	rlcf	(___aodiv@quotient+5)^0,f,c
  8559  002E26  3626               	rlcf	(___aodiv@quotient+6)^0,f,c
  8560  002E28  3627               	rlcf	(___aodiv@quotient+7)^0,f,c
  8561  002E2A  5016               	movf	___aodiv@divisor^0,w,c
  8562  002E2C  5C0E               	subwf	___aodiv@dividend^0,w,c
  8563  002E2E  5017               	movf	(___aodiv@divisor+1)^0,w,c
  8564  002E30  580F               	subwfb	(___aodiv@dividend+1)^0,w,c
  8565  002E32  5018               	movf	(___aodiv@divisor+2)^0,w,c
  8566  002E34  5810               	subwfb	(___aodiv@dividend+2)^0,w,c
  8567  002E36  5019               	movf	(___aodiv@divisor+3)^0,w,c
  8568  002E38  5811               	subwfb	(___aodiv@dividend+3)^0,w,c
  8569  002E3A  501A               	movf	(___aodiv@divisor+4)^0,w,c
  8570  002E3C  5812               	subwfb	(___aodiv@dividend+4)^0,w,c
  8571  002E3E  501B               	movf	(___aodiv@divisor+5)^0,w,c
  8572  002E40  5813               	subwfb	(___aodiv@dividend+5)^0,w,c
  8573  002E42  501C               	movf	(___aodiv@divisor+6)^0,w,c
  8574  002E44  5814               	subwfb	(___aodiv@dividend+6)^0,w,c
  8575  002E46  501D               	movf	(___aodiv@divisor+7)^0,w,c
  8576  002E48  5815               	subwfb	(___aodiv@dividend+7)^0,w,c
  8577  002E4A  A0D8               	btfss	status,0,c
  8578  002E4C  EF2A  F017         	goto	u9271
  8579  002E50  EF2C  F017         	goto	u9270
  8580  002E54                     u9271:
  8581  002E54  EF3D  F017         	goto	l9378
  8582  002E58                     u9270:
  8583  002E58  5016               	movf	___aodiv@divisor^0,w,c
  8584  002E5A  5E0E               	subwf	___aodiv@dividend^0,f,c
  8585  002E5C  5017               	movf	(___aodiv@divisor+1)^0,w,c
  8586  002E5E  5A0F               	subwfb	(___aodiv@dividend+1)^0,f,c
  8587  002E60  5018               	movf	(___aodiv@divisor+2)^0,w,c
  8588  002E62  5A10               	subwfb	(___aodiv@dividend+2)^0,f,c
  8589  002E64  5019               	movf	(___aodiv@divisor+3)^0,w,c
  8590  002E66  5A11               	subwfb	(___aodiv@dividend+3)^0,f,c
  8591  002E68  501A               	movf	(___aodiv@divisor+4)^0,w,c
  8592  002E6A  5A12               	subwfb	(___aodiv@dividend+4)^0,f,c
  8593  002E6C  501B               	movf	(___aodiv@divisor+5)^0,w,c
  8594  002E6E  5A13               	subwfb	(___aodiv@dividend+5)^0,f,c
  8595  002E70  501C               	movf	(___aodiv@divisor+6)^0,w,c
  8596  002E72  5A14               	subwfb	(___aodiv@dividend+6)^0,f,c
  8597  002E74  501D               	movf	(___aodiv@divisor+7)^0,w,c
  8598  002E76  5A15               	subwfb	(___aodiv@dividend+7)^0,f,c
  8599  002E78  8020               	bsf	___aodiv@quotient^0,0,c
  8600  002E7A                     l9378:
  8601  002E7A  90D8               	bcf	status,0,c
  8602  002E7C  321D               	rrcf	(___aodiv@divisor+7)^0,f,c
  8603  002E7E  321C               	rrcf	(___aodiv@divisor+6)^0,f,c
  8604  002E80  321B               	rrcf	(___aodiv@divisor+5)^0,f,c
  8605  002E82  321A               	rrcf	(___aodiv@divisor+4)^0,f,c
  8606  002E84  3219               	rrcf	(___aodiv@divisor+3)^0,f,c
  8607  002E86  3218               	rrcf	(___aodiv@divisor+2)^0,f,c
  8608  002E88  3217               	rrcf	(___aodiv@divisor+1)^0,f,c
  8609  002E8A  3216               	rrcf	___aodiv@divisor^0,f,c
  8610  002E8C  2E1E               	decfsz	___aodiv@counter^0,f,c
  8611  002E8E  EF0C  F017         	goto	l9370
  8612  002E92                     l9382:
  8613  002E92  501F               	movf	___aodiv@sign^0,w,c
  8614  002E94  B4D8               	btfsc	status,2,c
  8615  002E96  EF4F  F017         	goto	u9281
  8616  002E9A  EF51  F017         	goto	u9280
  8617  002E9E                     u9281:
  8618  002E9E  EF61  F017         	goto	l9386
  8619  002EA2                     u9280:
  8620  002EA2  1E27               	comf	(___aodiv@quotient+7)^0,f,c
  8621  002EA4  1E26               	comf	(___aodiv@quotient+6)^0,f,c
  8622  002EA6  1E25               	comf	(___aodiv@quotient+5)^0,f,c
  8623  002EA8  1E24               	comf	(___aodiv@quotient+4)^0,f,c
  8624  002EAA  1E23               	comf	(___aodiv@quotient+3)^0,f,c
  8625  002EAC  1E22               	comf	(___aodiv@quotient+2)^0,f,c
  8626  002EAE  1E21               	comf	(___aodiv@quotient+1)^0,f,c
  8627  002EB0  6C20               	negf	___aodiv@quotient^0,c
  8628  002EB2  0E00               	movlw	0
  8629  002EB4  2221               	addwfc	(___aodiv@quotient+1)^0,f,c
  8630  002EB6  2222               	addwfc	(___aodiv@quotient+2)^0,f,c
  8631  002EB8  2223               	addwfc	(___aodiv@quotient+3)^0,f,c
  8632  002EBA  2224               	addwfc	(___aodiv@quotient+4)^0,f,c
  8633  002EBC  2225               	addwfc	(___aodiv@quotient+5)^0,f,c
  8634  002EBE  2226               	addwfc	(___aodiv@quotient+6)^0,f,c
  8635  002EC0  2227               	addwfc	(___aodiv@quotient+7)^0,f,c
  8636  002EC2                     l9386:
  8637  002EC2  C020  F00E         	movff	___aodiv@quotient,?___aodiv
  8638  002EC6  C021  F00F         	movff	___aodiv@quotient+1,?___aodiv+1
  8639  002ECA  C022  F010         	movff	___aodiv@quotient+2,?___aodiv+2
  8640  002ECE  C023  F011         	movff	___aodiv@quotient+3,?___aodiv+3
  8641  002ED2  C024  F012         	movff	___aodiv@quotient+4,?___aodiv+4
  8642  002ED6  C025  F013         	movff	___aodiv@quotient+5,?___aodiv+5
  8643  002EDA  C026  F014         	movff	___aodiv@quotient+6,?___aodiv+6
  8644  002EDE  C027  F015         	movff	___aodiv@quotient+7,?___aodiv+7
  8645  002EE2  0012               	return		;funcret
  8646  002EE4                     __end_of___aodiv:
  8647                           	callstack 0
  8648                           
  8649 ;; *************** function _memset *****************
  8650 ;; Defined at:
  8651 ;;		line 4 in file "C:\Program Files\Microchip\xc8\v2.36\pic\sources\c99\common\memset.c"
  8652 ;; Parameters:    Size  Location     Type
  8653 ;;  dest            2   13[COMRAM] PTR void 
  8654 ;;		 -> main@arr(4), 
  8655 ;;  c               2   15[COMRAM] int 
  8656 ;;  n               2   17[COMRAM] unsigned int 
  8657 ;; Auto vars:     Size  Location     Type
  8658 ;;  s               2   23[COMRAM] PTR unsigned char 
  8659 ;;		 -> main@arr(4), 
  8660 ;;  k               2   21[COMRAM] unsigned int 
  8661 ;; Return value:  Size  Location     Type
  8662 ;;                  2   13[COMRAM] PTR void 
  8663 ;; Registers used:
  8664 ;;		wreg, fsr2l, fsr2h, status,2, status,0
  8665 ;; Tracked objects:
  8666 ;;		On entry : 0/0
  8667 ;;		On exit  : 0/0
  8668 ;;		Unchanged: 0/0
  8669 ;; Data sizes:     COMRAM   BANK0   BANK1   BANK2   BANK3   BANK4   BANK5   BANK6   BANK7   BANK8   BANK9  BANK10  BANK1
      +1  BANK12  BANK13  BANK14  BANK15
  8670 ;;      Params:         6       0       0       0       0       0       0       0       0       0       0       0       
      +0       0       0       0       0
  8671 ;;      Locals:         4       0       0       0       0       0       0       0       0       0       0       0       
      +0       0       0       0       0
  8672 ;;      Temps:          2       0       0       0       0       0       0       0       0       0       0       0       
      +0       0       0       0       0
  8673 ;;      Totals:        12       0       0       0       0       0       0       0       0       0       0       0       
      +0       0       0       0       0
  8674 ;;Total ram usage:       12 bytes
  8675 ;; Hardware stack levels used: 1
  8676 ;; Hardware stack levels required when called: 4
  8677 ;; This function calls:
  8678 ;;		Nothing
  8679 ;; This function is called by:
  8680 ;;		_convert_byte_to_string
  8681 ;;		_convert_short_to_string
  8682 ;;		_convert_int_to_string
  8683 ;; This function uses a non-reentrant model
  8684 ;;
  8685                           
  8686                           	psect	text40
  8687  002EE4                     __ptext40:
  8688                           	callstack 0
  8689  002EE4                     _memset:
  8690                           	callstack 25
  8691  002EE4  C00E  F018         	movff	memset@dest,memset@s
  8692  002EE8  C00F  F019         	movff	memset@dest+1,memset@s+1
  8693  002EEC  5012               	movf	memset@n^0,w,c
  8694  002EEE  1013               	iorwf	(memset@n+1)^0,w,c
  8695  002EF0  A4D8               	btfss	status,2,c
  8696  002EF2  EF7D  F017         	goto	u9891
  8697  002EF6  EF7F  F017         	goto	u9890
  8698  002EFA                     u9891:
  8699  002EFA  EF81  F017         	goto	l9780
  8700  002EFE                     u9890:
  8701  002EFE  EF2C  F018         	goto	l2283
  8702  002F02                     l9780:
  8703  002F02  C018  FFD9         	movff	memset@s,fsr2l
  8704  002F06  C019  FFDA         	movff	memset@s+1,fsr2h
  8705  002F0A  C010  FFDF         	movff	memset@c,indf2
  8706  002F0E  5012               	movf	memset@n^0,w,c
  8707  002F10  2418               	addwf	memset@s^0,w,c
  8708  002F12  6E14               	movwf	??_memset^0,c
  8709  002F14  5013               	movf	(memset@n+1)^0,w,c
  8710  002F16  2019               	addwfc	(memset@s+1)^0,w,c
  8711  002F18  6E15               	movwf	(??_memset+1)^0,c
  8712  002F1A  0EFF               	movlw	255
  8713  002F1C  2414               	addwf	??_memset^0,w,c
  8714  002F1E  6ED9               	movwf	fsr2l,c
  8715  002F20  0EFF               	movlw	255
  8716  002F22  2015               	addwfc	(??_memset+1)^0,w,c
  8717  002F24  6EDA               	movwf	fsr2h,c
  8718  002F26  C010  FFDF         	movff	memset@c,indf2
  8719  002F2A  5013               	movf	(memset@n+1)^0,w,c
  8720  002F2C  E107               	bnz	u9901
  8721  002F2E  0E03               	movlw	3
  8722  002F30  5C12               	subwf	memset@n^0,w,c
  8723  002F32  B0D8               	btfsc	status,0,c
  8724  002F34  EF9E  F017         	goto	u9901
  8725  002F38  EFA0  F017         	goto	u9900
  8726  002F3C                     u9901:
  8727  002F3C  EFA2  F017         	goto	l9786
  8728  002F40                     u9900:
  8729  002F40  EF2C  F018         	goto	l2283
  8730  002F44                     l9786:
  8731  002F44  EE20 F001          	lfsr	2,1
  8732  002F48  5018               	movf	memset@s^0,w,c
  8733  002F4A  26D9               	addwf	fsr2l,f,c
  8734  002F4C  5019               	movf	(memset@s+1)^0,w,c
  8735  002F4E  22DA               	addwfc	fsr2h,f,c
  8736  002F50  C010  FFDF         	movff	memset@c,indf2
  8737  002F54  EE20 F002          	lfsr	2,2
  8738  002F58  5018               	movf	memset@s^0,w,c
  8739  002F5A  26D9               	addwf	fsr2l,f,c
  8740  002F5C  5019               	movf	(memset@s+1)^0,w,c
  8741  002F5E  22DA               	addwfc	fsr2h,f,c
  8742  002F60  C010  FFDF         	movff	memset@c,indf2
  8743  002F64  5012               	movf	memset@n^0,w,c
  8744  002F66  2418               	addwf	memset@s^0,w,c
  8745  002F68  6E14               	movwf	??_memset^0,c
  8746  002F6A  5013               	movf	(memset@n+1)^0,w,c
  8747  002F6C  2019               	addwfc	(memset@s+1)^0,w,c
  8748  002F6E  6E15               	movwf	(??_memset+1)^0,c
  8749  002F70  0EFE               	movlw	254
  8750  002F72  2414               	addwf	??_memset^0,w,c
  8751  002F74  6ED9               	movwf	fsr2l,c
  8752  002F76  0EFF               	movlw	255
  8753  002F78  2015               	addwfc	(??_memset+1)^0,w,c
  8754  002F7A  6EDA               	movwf	fsr2h,c
  8755  002F7C  C010  FFDF         	movff	memset@c,indf2
  8756  002F80  5012               	movf	memset@n^0,w,c
  8757  002F82  2418               	addwf	memset@s^0,w,c
  8758  002F84  6E14               	movwf	??_memset^0,c
  8759  002F86  5013               	movf	(memset@n+1)^0,w,c
  8760  002F88  2019               	addwfc	(memset@s+1)^0,w,c
  8761  002F8A  6E15               	movwf	(??_memset+1)^0,c
  8762  002F8C  0EFD               	movlw	253
  8763  002F8E  2414               	addwf	??_memset^0,w,c
  8764  002F90  6ED9               	movwf	fsr2l,c
  8765  002F92  0EFF               	movlw	255
  8766  002F94  2015               	addwfc	(??_memset+1)^0,w,c
  8767  002F96  6EDA               	movwf	fsr2h,c
  8768  002F98  C010  FFDF         	movff	memset@c,indf2
  8769  002F9C  5013               	movf	(memset@n+1)^0,w,c
  8770  002F9E  E107               	bnz	u9911
  8771  002FA0  0E07               	movlw	7
  8772  002FA2  5C12               	subwf	memset@n^0,w,c
  8773  002FA4  B0D8               	btfsc	status,0,c
  8774  002FA6  EFD7  F017         	goto	u9911
  8775  002FAA  EFD9  F017         	goto	u9910
  8776  002FAE                     u9911:
  8777  002FAE  EFDB  F017         	goto	l9792
  8778  002FB2                     u9910:
  8779  002FB2  EF2C  F018         	goto	l2283
  8780  002FB6                     l9792:
  8781  002FB6  EE20 F003          	lfsr	2,3
  8782  002FBA  5018               	movf	memset@s^0,w,c
  8783  002FBC  26D9               	addwf	fsr2l,f,c
  8784  002FBE  5019               	movf	(memset@s+1)^0,w,c
  8785  002FC0  22DA               	addwfc	fsr2h,f,c
  8786  002FC2  C010  FFDF         	movff	memset@c,indf2
  8787  002FC6  5012               	movf	memset@n^0,w,c
  8788  002FC8  2418               	addwf	memset@s^0,w,c
  8789  002FCA  6E14               	movwf	??_memset^0,c
  8790  002FCC  5013               	movf	(memset@n+1)^0,w,c
  8791  002FCE  2019               	addwfc	(memset@s+1)^0,w,c
  8792  002FD0  6E15               	movwf	(??_memset+1)^0,c
  8793  002FD2  0EFC               	movlw	252
  8794  002FD4  2414               	addwf	??_memset^0,w,c
  8795  002FD6  6ED9               	movwf	fsr2l,c
  8796  002FD8  0EFF               	movlw	255
  8797  002FDA  2015               	addwfc	(??_memset+1)^0,w,c
  8798  002FDC  6EDA               	movwf	fsr2h,c
  8799  002FDE  C010  FFDF         	movff	memset@c,indf2
  8800  002FE2  5013               	movf	(memset@n+1)^0,w,c
  8801  002FE4  E107               	bnz	u9921
  8802  002FE6  0E09               	movlw	9
  8803  002FE8  5C12               	subwf	memset@n^0,w,c
  8804  002FEA  B0D8               	btfsc	status,0,c
  8805  002FEC  EFFA  F017         	goto	u9921
  8806  002FF0  EFFC  F017         	goto	u9920
  8807  002FF4                     u9921:
  8808  002FF4  EFFE  F017         	goto	l9798
  8809  002FF8                     u9920:
  8810  002FF8  EF2C  F018         	goto	l2283
  8811  002FFC                     l9798:
  8812  002FFC  C018  F014         	movff	memset@s,??_memset
  8813  003000  C019  F015         	movff	memset@s+1,??_memset+1
  8814  003004  1E14               	comf	??_memset^0,f,c
  8815  003006  1E15               	comf	(??_memset+1)^0,f,c
  8816  003008  4A14               	infsnz	??_memset^0,f,c
  8817  00300A  2A15               	incf	(??_memset+1)^0,f,c
  8818  00300C  0E03               	movlw	3
  8819  00300E  1414               	andwf	??_memset^0,w,c
  8820  003010  6E16               	movwf	memset@k^0,c
  8821  003012  6A17               	clrf	(memset@k+1)^0,c
  8822  003014  5016               	movf	memset@k^0,w,c
  8823  003016  2618               	addwf	memset@s^0,f,c
  8824  003018  5017               	movf	(memset@k+1)^0,w,c
  8825  00301A  2219               	addwfc	(memset@s+1)^0,f,c
  8826  00301C  5016               	movf	memset@k^0,w,c
  8827  00301E  5E12               	subwf	memset@n^0,f,c
  8828  003020  5017               	movf	(memset@k+1)^0,w,c
  8829  003022  5A13               	subwfb	(memset@n+1)^0,f,c
  8830  003024  0EFC               	movlw	252
  8831  003026  1612               	andwf	memset@n^0,f,c
  8832  003028  0EFF               	movlw	255
  8833  00302A  1613               	andwf	(memset@n+1)^0,f,c
  8834  00302C  EF23  F018         	goto	l9806
  8835  003030                     l9800:
  8836  003030  C018  FFD9         	movff	memset@s,fsr2l
  8837  003034  C019  FFDA         	movff	memset@s+1,fsr2h
  8838  003038  C010  FFDF         	movff	memset@c,indf2
  8839  00303C  0612               	decf	memset@n^0,f,c
  8840  00303E  A0D8               	btfss	status,0,c
  8841  003040  0613               	decf	(memset@n+1)^0,f,c
  8842  003042  4A18               	infsnz	memset@s^0,f,c
  8843  003044  2A19               	incf	(memset@s+1)^0,f,c
  8844  003046                     l9806:
  8845  003046  5012               	movf	memset@n^0,w,c
  8846  003048  1013               	iorwf	(memset@n+1)^0,w,c
  8847  00304A  A4D8               	btfss	status,2,c
  8848  00304C  EF2A  F018         	goto	u9931
  8849  003050  EF2C  F018         	goto	u9930
  8850  003054                     u9931:
  8851  003054  EF18  F018         	goto	l9800
  8852  003058                     u9930:
  8853  003058                     l2283:
  8854  003058  0012               	return		;funcret
  8855  00305A                     __end_of_memset:
  8856                           	callstack 0
  8857                           
  8858 ;; *************** function _InterruptManager *****************
  8859 ;; Defined at:
  8860 ;;		line 42 in file "MCAL_Layer/Interrupt/mcal_interrupt_manager.c"
  8861 ;; Parameters:    Size  Location     Type
  8862 ;;		None
  8863 ;; Auto vars:     Size  Location     Type
  8864 ;;		None
  8865 ;; Return value:  Size  Location     Type
  8866 ;;                  1    wreg      void 
  8867 ;; Registers used:
  8868 ;;		wreg, fsr2l, fsr2h, status,2, status,0, pcl, pclath, pclatu, tosl, cstack
  8869 ;; Tracked objects:
  8870 ;;		On entry : 0/0
  8871 ;;		On exit  : 0/0
  8872 ;;		Unchanged: 0/0
  8873 ;; Data sizes:     COMRAM   BANK0   BANK1   BANK2   BANK3   BANK4   BANK5   BANK6   BANK7   BANK8   BANK9  BANK10  BANK1
      +1  BANK12  BANK13  BANK14  BANK15
  8874 ;;      Params:         0       0       0       0       0       0       0       0       0       0       0       0       
      +0       0       0       0       0
  8875 ;;      Locals:         0       0       0       0       0       0       0       0       0       0       0       0       
      +0       0       0       0       0
  8876 ;;      Temps:          4       0       0       0       0       0       0       0       0       0       0       0       
      +0       0       0       0       0
  8877 ;;      Totals:         4       0       0       0       0       0       0       0       0       0       0       0       
      +0       0       0       0       0
  8878 ;;Total ram usage:        4 bytes
  8879 ;; Hardware stack levels used: 1
  8880 ;; Hardware stack levels required when called: 3
  8881 ;; This function calls:
  8882 ;;		_ADC_ISR
  8883 ;;		_CCP1_ISR
  8884 ;;		_CCP2_ISR
  8885 ;;		_INT0_ISR
  8886 ;;		_INT1_ISR
  8887 ;;		_INT2_ISR
  8888 ;;		_RB4_ISR
  8889 ;;		_RB5_ISR
  8890 ;;		_RB6_ISR
  8891 ;;		_RB7_ISR
  8892 ;;		_Timer0_ISR
  8893 ;;		_Timer1_ISR
  8894 ;;		_Timer2_ISR
  8895 ;;		_Timer3_ISR
  8896 ;; This function is called by:
  8897 ;;		Interrupt level 2
  8898 ;; This function uses a non-reentrant model
  8899 ;;
  8900                           
  8901                           	psect	intcode
  8902  000008                     __pintcode:
  8903                           	callstack 0
  8904  000008                     _InterruptManager:
  8905                           	callstack 18
  8906                           
  8907                           ;incstack = 0
  8908  000008  8272               	bsf	int$flags,1,c	;set compiler interrupt flag (level 2)
  8909  00000A  EDFD  F010         	call	int_func,f	;refresh shadow registers
  8910                           
  8911                           	psect	intcode_body
  8912  0021FA                     __pintcode_body:
  8913                           	callstack 18
  8914  0021FA                     int_func:
  8915                           	callstack 18
  8916  0021FA  0006               	pop		; remove dummy address from shadow register refresh
  8917  0021FC  CFFA F00A          	movff	pclath,??_InterruptManager
  8918  002200  CFFB F00B          	movff	pclatu,??_InterruptManager+1
  8919  002204  CFD9 F00C          	movff	fsr2l,??_InterruptManager+2
  8920  002208  CFDA F00D          	movff	fsr2h,??_InterruptManager+3
  8921  00220C                     
  8922                           ;MCAL_Layer/Interrupt/mcal_interrupt_manager.c: 44:     if((INTCONbits.INT0IE == 1)&&(IN
      +                          TCONbits.INT0IF == 1)){
  8923  00220C  A8F2               	btfss	242,4,c	;volatile
  8924  00220E  EF0B  F011         	goto	i2u850_41
  8925  002212  EF0D  F011         	goto	i2u850_40
  8926  002216                     i2u850_41:
  8927  002216  EF16  F011         	goto	i2l8834
  8928  00221A                     i2u850_40:
  8929  00221A  A2F2               	btfss	242,1,c	;volatile
  8930  00221C  EF12  F011         	goto	i2u851_41
  8931  002220  EF14  F011         	goto	i2u851_40
  8932  002224                     i2u851_41:
  8933  002224  EF16  F011         	goto	i2l8834
  8934  002228                     i2u851_40:
  8935  002228                     
  8936                           ;MCAL_Layer/Interrupt/mcal_interrupt_manager.c: 45:         INT0_ISR();
  8937  002228  EC18  F022         	call	_INT0_ISR	;wreg free
  8938  00222C                     i2l8834:
  8939                           
  8940                           ;MCAL_Layer/Interrupt/mcal_interrupt_manager.c: 47:     if((INTCON3bits.INT1IE == 1)&&(I
      +                          NTCON3bits.INT1IF == 1)){
  8941  00222C  A6F0               	btfss	240,3,c	;volatile
  8942  00222E  EF1B  F011         	goto	i2u852_41
  8943  002232  EF1D  F011         	goto	i2u852_40
  8944  002236                     i2u852_41:
  8945  002236  EF26  F011         	goto	i2l8840
  8946  00223A                     i2u852_40:
  8947  00223A  A0F0               	btfss	240,0,c	;volatile
  8948  00223C  EF22  F011         	goto	i2u853_41
  8949  002240  EF24  F011         	goto	i2u853_40
  8950  002244                     i2u853_41:
  8951  002244  EF26  F011         	goto	i2l8840
  8952  002248                     i2u853_40:
  8953  002248                     
  8954                           ;MCAL_Layer/Interrupt/mcal_interrupt_manager.c: 48:         INT1_ISR();
  8955  002248  EC16  F022         	call	_INT1_ISR	;wreg free
  8956  00224C                     i2l8840:
  8957                           
  8958                           ;MCAL_Layer/Interrupt/mcal_interrupt_manager.c: 50:     if((INTCON3bits.INT2IE == 1)&&(I
      +                          NTCON3bits.INT2IF == 1)){
  8959  00224C  A8F0               	btfss	240,4,c	;volatile
  8960  00224E  EF2B  F011         	goto	i2u854_41
  8961  002252  EF2D  F011         	goto	i2u854_40
  8962  002256                     i2u854_41:
  8963  002256  EF36  F011         	goto	i2l8846
  8964  00225A                     i2u854_40:
  8965  00225A  A2F0               	btfss	240,1,c	;volatile
  8966  00225C  EF32  F011         	goto	i2u855_41
  8967  002260  EF34  F011         	goto	i2u855_40
  8968  002264                     i2u855_41:
  8969  002264  EF36  F011         	goto	i2l8846
  8970  002268                     i2u855_40:
  8971  002268                     
  8972                           ;MCAL_Layer/Interrupt/mcal_interrupt_manager.c: 51:         INT2_ISR();
  8973  002268  EC14  F022         	call	_INT2_ISR	;wreg free
  8974  00226C                     i2l8846:
  8975                           
  8976                           ;MCAL_Layer/Interrupt/mcal_interrupt_manager.c: 53:     if((INTCONbits.RBIE == 1) && (IN
      +                          TCONbits.RBIF == 1)&&(PORTBbits.RB4 == HIGH) && (RB4_Flag == 1)){
  8977  00226C  A6F2               	btfss	242,3,c	;volatile
  8978  00226E  EF3B  F011         	goto	i2u856_41
  8979  002272  EF3D  F011         	goto	i2u856_40
  8980  002276                     i2u856_41:
  8981  002276  EF58  F011         	goto	i2l8858
  8982  00227A                     i2u856_40:
  8983  00227A  A0F2               	btfss	242,0,c	;volatile
  8984  00227C  EF42  F011         	goto	i2u857_41
  8985  002280  EF44  F011         	goto	i2u857_40
  8986  002284                     i2u857_41:
  8987  002284  EF58  F011         	goto	i2l8858
  8988  002288                     i2u857_40:
  8989  002288  A881               	btfss	129,4,c	;volatile
  8990  00228A  EF49  F011         	goto	i2u858_41
  8991  00228E  EF4B  F011         	goto	i2u858_40
  8992  002292                     i2u858_41:
  8993  002292  EF58  F011         	goto	i2l8858
  8994  002296                     i2u858_40:
  8995  002296  0471               	decf	_RB4_Flag^0,w,c
  8996  002298  A4D8               	btfss	status,2,c
  8997  00229A  EF51  F011         	goto	i2u859_41
  8998  00229E  EF53  F011         	goto	i2u859_40
  8999  0022A2                     i2u859_41:
  9000  0022A2  EF58  F011         	goto	i2l8858
  9001  0022A6                     i2u859_40:
  9002  0022A6                     
  9003                           ;MCAL_Layer/Interrupt/mcal_interrupt_manager.c: 54:         RB4_Flag = 0;
  9004  0022A6  0E00               	movlw	0
  9005  0022A8  6E71               	movwf	_RB4_Flag^0,c
  9006  0022AA                     
  9007                           ;MCAL_Layer/Interrupt/mcal_interrupt_manager.c: 55:         RB4_ISR(0);
  9008  0022AA  0E00               	movlw	0
  9009  0022AC  ECDB  F021         	call	_RB4_ISR
  9010  0022B0                     i2l8858:
  9011                           
  9012                           ;MCAL_Layer/Interrupt/mcal_interrupt_manager.c: 57:     if((INTCONbits.RBIE == 1) && (IN
      +                          TCONbits.RBIF == 1)&& (PORTBbits.RB4 == LOW) && (RB4_Flag == 0)){
  9013  0022B0  A6F2               	btfss	242,3,c	;volatile
  9014  0022B2  EF5D  F011         	goto	i2u860_41
  9015  0022B6  EF5F  F011         	goto	i2u860_40
  9016  0022BA                     i2u860_41:
  9017  0022BA  EF7A  F011         	goto	i2l8870
  9018  0022BE                     i2u860_40:
  9019  0022BE  A0F2               	btfss	242,0,c	;volatile
  9020  0022C0  EF64  F011         	goto	i2u861_41
  9021  0022C4  EF66  F011         	goto	i2u861_40
  9022  0022C8                     i2u861_41:
  9023  0022C8  EF7A  F011         	goto	i2l8870
  9024  0022CC                     i2u861_40:
  9025  0022CC  B881               	btfsc	129,4,c	;volatile
  9026  0022CE  EF6B  F011         	goto	i2u862_41
  9027  0022D2  EF6D  F011         	goto	i2u862_40
  9028  0022D6                     i2u862_41:
  9029  0022D6  EF7A  F011         	goto	i2l8870
  9030  0022DA                     i2u862_40:
  9031  0022DA  5071               	movf	_RB4_Flag^0,w,c
  9032  0022DC  A4D8               	btfss	status,2,c
  9033  0022DE  EF73  F011         	goto	i2u863_41
  9034  0022E2  EF75  F011         	goto	i2u863_40
  9035  0022E6                     i2u863_41:
  9036  0022E6  EF7A  F011         	goto	i2l8870
  9037  0022EA                     i2u863_40:
  9038  0022EA                     
  9039                           ;MCAL_Layer/Interrupt/mcal_interrupt_manager.c: 58:         RB4_Flag = 1;
  9040  0022EA  0E01               	movlw	1
  9041  0022EC  6E71               	movwf	_RB4_Flag^0,c
  9042  0022EE                     
  9043                           ;MCAL_Layer/Interrupt/mcal_interrupt_manager.c: 59:         RB4_ISR(1);
  9044  0022EE  0E01               	movlw	1
  9045  0022F0  ECDB  F021         	call	_RB4_ISR
  9046  0022F4                     i2l8870:
  9047                           
  9048                           ;MCAL_Layer/Interrupt/mcal_interrupt_manager.c: 61:     if((INTCONbits.RBIE == 1) && (IN
      +                          TCONbits.RBIF == 1)&&(PORTBbits.RB5 == HIGH) && (RB5_Flag == 1)){
  9049  0022F4  A6F2               	btfss	242,3,c	;volatile
  9050  0022F6  EF7F  F011         	goto	i2u864_41
  9051  0022FA  EF81  F011         	goto	i2u864_40
  9052  0022FE                     i2u864_41:
  9053  0022FE  EF9C  F011         	goto	i2l8882
  9054  002302                     i2u864_40:
  9055  002302  A0F2               	btfss	242,0,c	;volatile
  9056  002304  EF86  F011         	goto	i2u865_41
  9057  002308  EF88  F011         	goto	i2u865_40
  9058  00230C                     i2u865_41:
  9059  00230C  EF9C  F011         	goto	i2l8882
  9060  002310                     i2u865_40:
  9061  002310  AA81               	btfss	129,5,c	;volatile
  9062  002312  EF8D  F011         	goto	i2u866_41
  9063  002316  EF8F  F011         	goto	i2u866_40
  9064  00231A                     i2u866_41:
  9065  00231A  EF9C  F011         	goto	i2l8882
  9066  00231E                     i2u866_40:
  9067  00231E  0470               	decf	_RB5_Flag^0,w,c
  9068  002320  A4D8               	btfss	status,2,c
  9069  002322  EF95  F011         	goto	i2u867_41
  9070  002326  EF97  F011         	goto	i2u867_40
  9071  00232A                     i2u867_41:
  9072  00232A  EF9C  F011         	goto	i2l8882
  9073  00232E                     i2u867_40:
  9074  00232E                     
  9075                           ;MCAL_Layer/Interrupt/mcal_interrupt_manager.c: 62:         RB5_Flag = 0;
  9076  00232E  0E00               	movlw	0
  9077  002330  6E70               	movwf	_RB5_Flag^0,c
  9078  002332                     
  9079                           ;MCAL_Layer/Interrupt/mcal_interrupt_manager.c: 63:         RB5_ISR(0);
  9080  002332  0E00               	movlw	0
  9081  002334  ECCE  F021         	call	_RB5_ISR
  9082  002338                     i2l8882:
  9083                           
  9084                           ;MCAL_Layer/Interrupt/mcal_interrupt_manager.c: 65:     if((INTCONbits.RBIE == 1) && (IN
      +                          TCONbits.RBIF == 1)&& (PORTBbits.RB5 == LOW) && (RB5_Flag == 0)){
  9085  002338  A6F2               	btfss	242,3,c	;volatile
  9086  00233A  EFA1  F011         	goto	i2u868_41
  9087  00233E  EFA3  F011         	goto	i2u868_40
  9088  002342                     i2u868_41:
  9089  002342  EFBE  F011         	goto	i2l8894
  9090  002346                     i2u868_40:
  9091  002346  A0F2               	btfss	242,0,c	;volatile
  9092  002348  EFA8  F011         	goto	i2u869_41
  9093  00234C  EFAA  F011         	goto	i2u869_40
  9094  002350                     i2u869_41:
  9095  002350  EFBE  F011         	goto	i2l8894
  9096  002354                     i2u869_40:
  9097  002354  BA81               	btfsc	129,5,c	;volatile
  9098  002356  EFAF  F011         	goto	i2u870_41
  9099  00235A  EFB1  F011         	goto	i2u870_40
  9100  00235E                     i2u870_41:
  9101  00235E  EFBE  F011         	goto	i2l8894
  9102  002362                     i2u870_40:
  9103  002362  5070               	movf	_RB5_Flag^0,w,c
  9104  002364  A4D8               	btfss	status,2,c
  9105  002366  EFB7  F011         	goto	i2u871_41
  9106  00236A  EFB9  F011         	goto	i2u871_40
  9107  00236E                     i2u871_41:
  9108  00236E  EFBE  F011         	goto	i2l8894
  9109  002372                     i2u871_40:
  9110  002372                     
  9111                           ;MCAL_Layer/Interrupt/mcal_interrupt_manager.c: 66:         RB5_Flag = 1;
  9112  002372  0E01               	movlw	1
  9113  002374  6E70               	movwf	_RB5_Flag^0,c
  9114  002376                     
  9115                           ;MCAL_Layer/Interrupt/mcal_interrupt_manager.c: 67:        RB5_ISR(1);
  9116  002376  0E01               	movlw	1
  9117  002378  ECCE  F021         	call	_RB5_ISR
  9118  00237C                     i2l8894:
  9119                           
  9120                           ;MCAL_Layer/Interrupt/mcal_interrupt_manager.c: 69:     if((INTCONbits.RBIE == 1) && (IN
      +                          TCONbits.RBIF == 1)&&(PORTBbits.RB6 == HIGH) && (RB6_Flag == 1)){
  9121  00237C  A6F2               	btfss	242,3,c	;volatile
  9122  00237E  EFC3  F011         	goto	i2u872_41
  9123  002382  EFC5  F011         	goto	i2u872_40
  9124  002386                     i2u872_41:
  9125  002386  EFE0  F011         	goto	i2l8906
  9126  00238A                     i2u872_40:
  9127  00238A  A0F2               	btfss	242,0,c	;volatile
  9128  00238C  EFCA  F011         	goto	i2u873_41
  9129  002390  EFCC  F011         	goto	i2u873_40
  9130  002394                     i2u873_41:
  9131  002394  EFE0  F011         	goto	i2l8906
  9132  002398                     i2u873_40:
  9133  002398  AC81               	btfss	129,6,c	;volatile
  9134  00239A  EFD1  F011         	goto	i2u874_41
  9135  00239E  EFD3  F011         	goto	i2u874_40
  9136  0023A2                     i2u874_41:
  9137  0023A2  EFE0  F011         	goto	i2l8906
  9138  0023A6                     i2u874_40:
  9139  0023A6  046F               	decf	_RB6_Flag^0,w,c
  9140  0023A8  A4D8               	btfss	status,2,c
  9141  0023AA  EFD9  F011         	goto	i2u875_41
  9142  0023AE  EFDB  F011         	goto	i2u875_40
  9143  0023B2                     i2u875_41:
  9144  0023B2  EFE0  F011         	goto	i2l8906
  9145  0023B6                     i2u875_40:
  9146  0023B6                     
  9147                           ;MCAL_Layer/Interrupt/mcal_interrupt_manager.c: 70:         RB6_Flag = 0;
  9148  0023B6  0E00               	movlw	0
  9149  0023B8  6E6F               	movwf	_RB6_Flag^0,c
  9150  0023BA                     
  9151                           ;MCAL_Layer/Interrupt/mcal_interrupt_manager.c: 71:         RB6_ISR(0);
  9152  0023BA  0E00               	movlw	0
  9153  0023BC  ECC1  F021         	call	_RB6_ISR
  9154  0023C0                     i2l8906:
  9155                           
  9156                           ;MCAL_Layer/Interrupt/mcal_interrupt_manager.c: 73:     if((INTCONbits.RBIE == 1) && (IN
      +                          TCONbits.RBIF == 1)&& (PORTBbits.RB6 == LOW) && (RB6_Flag == 0)){
  9157  0023C0  A6F2               	btfss	242,3,c	;volatile
  9158  0023C2  EFE5  F011         	goto	i2u876_41
  9159  0023C6  EFE7  F011         	goto	i2u876_40
  9160  0023CA                     i2u876_41:
  9161  0023CA  EF02  F012         	goto	i2l8918
  9162  0023CE                     i2u876_40:
  9163  0023CE  A0F2               	btfss	242,0,c	;volatile
  9164  0023D0  EFEC  F011         	goto	i2u877_41
  9165  0023D4  EFEE  F011         	goto	i2u877_40
  9166  0023D8                     i2u877_41:
  9167  0023D8  EF02  F012         	goto	i2l8918
  9168  0023DC                     i2u877_40:
  9169  0023DC  BC81               	btfsc	129,6,c	;volatile
  9170  0023DE  EFF3  F011         	goto	i2u878_41
  9171  0023E2  EFF5  F011         	goto	i2u878_40
  9172  0023E6                     i2u878_41:
  9173  0023E6  EF02  F012         	goto	i2l8918
  9174  0023EA                     i2u878_40:
  9175  0023EA  506F               	movf	_RB6_Flag^0,w,c
  9176  0023EC  A4D8               	btfss	status,2,c
  9177  0023EE  EFFB  F011         	goto	i2u879_41
  9178  0023F2  EFFD  F011         	goto	i2u879_40
  9179  0023F6                     i2u879_41:
  9180  0023F6  EF02  F012         	goto	i2l8918
  9181  0023FA                     i2u879_40:
  9182  0023FA                     
  9183                           ;MCAL_Layer/Interrupt/mcal_interrupt_manager.c: 74:         RB6_Flag = 1;
  9184  0023FA  0E01               	movlw	1
  9185  0023FC  6E6F               	movwf	_RB6_Flag^0,c
  9186  0023FE                     
  9187                           ;MCAL_Layer/Interrupt/mcal_interrupt_manager.c: 75:         RB6_ISR(1);
  9188  0023FE  0E01               	movlw	1
  9189  002400  ECC1  F021         	call	_RB6_ISR
  9190  002404                     i2l8918:
  9191                           
  9192                           ;MCAL_Layer/Interrupt/mcal_interrupt_manager.c: 77:     if((INTCONbits.RBIE == 1) && (IN
      +                          TCONbits.RBIF == 1)&&(PORTBbits.RB7 == HIGH) && (RB7_Flag == 1)){
  9193  002404  A6F2               	btfss	242,3,c	;volatile
  9194  002406  EF07  F012         	goto	i2u880_41
  9195  00240A  EF09  F012         	goto	i2u880_40
  9196  00240E                     i2u880_41:
  9197  00240E  EF24  F012         	goto	i2l8930
  9198  002412                     i2u880_40:
  9199  002412  A0F2               	btfss	242,0,c	;volatile
  9200  002414  EF0E  F012         	goto	i2u881_41
  9201  002418  EF10  F012         	goto	i2u881_40
  9202  00241C                     i2u881_41:
  9203  00241C  EF24  F012         	goto	i2l8930
  9204  002420                     i2u881_40:
  9205  002420  AE81               	btfss	129,7,c	;volatile
  9206  002422  EF15  F012         	goto	i2u882_41
  9207  002426  EF17  F012         	goto	i2u882_40
  9208  00242A                     i2u882_41:
  9209  00242A  EF24  F012         	goto	i2l8930
  9210  00242E                     i2u882_40:
  9211  00242E  046E               	decf	_RB7_Flag^0,w,c
  9212  002430  A4D8               	btfss	status,2,c
  9213  002432  EF1D  F012         	goto	i2u883_41
  9214  002436  EF1F  F012         	goto	i2u883_40
  9215  00243A                     i2u883_41:
  9216  00243A  EF24  F012         	goto	i2l8930
  9217  00243E                     i2u883_40:
  9218  00243E                     
  9219                           ;MCAL_Layer/Interrupt/mcal_interrupt_manager.c: 78:         RB7_Flag = 0;
  9220  00243E  0E00               	movlw	0
  9221  002440  6E6E               	movwf	_RB7_Flag^0,c
  9222  002442                     
  9223                           ;MCAL_Layer/Interrupt/mcal_interrupt_manager.c: 79:         RB7_ISR(0);
  9224  002442  0E00               	movlw	0
  9225  002444  ECB4  F021         	call	_RB7_ISR
  9226  002448                     i2l8930:
  9227                           
  9228                           ;MCAL_Layer/Interrupt/mcal_interrupt_manager.c: 81:     if((INTCONbits.RBIE == 1) && (IN
      +                          TCONbits.RBIF == 1)&& (PORTBbits.RB7 == LOW) && (RB7_Flag == 0)){
  9229  002448  A6F2               	btfss	242,3,c	;volatile
  9230  00244A  EF29  F012         	goto	i2u884_41
  9231  00244E  EF2B  F012         	goto	i2u884_40
  9232  002452                     i2u884_41:
  9233  002452  EF46  F012         	goto	i2l8942
  9234  002456                     i2u884_40:
  9235  002456  A0F2               	btfss	242,0,c	;volatile
  9236  002458  EF30  F012         	goto	i2u885_41
  9237  00245C  EF32  F012         	goto	i2u885_40
  9238  002460                     i2u885_41:
  9239  002460  EF46  F012         	goto	i2l8942
  9240  002464                     i2u885_40:
  9241  002464  BE81               	btfsc	129,7,c	;volatile
  9242  002466  EF37  F012         	goto	i2u886_41
  9243  00246A  EF39  F012         	goto	i2u886_40
  9244  00246E                     i2u886_41:
  9245  00246E  EF46  F012         	goto	i2l8942
  9246  002472                     i2u886_40:
  9247  002472  506E               	movf	_RB7_Flag^0,w,c
  9248  002474  A4D8               	btfss	status,2,c
  9249  002476  EF3F  F012         	goto	i2u887_41
  9250  00247A  EF41  F012         	goto	i2u887_40
  9251  00247E                     i2u887_41:
  9252  00247E  EF46  F012         	goto	i2l8942
  9253  002482                     i2u887_40:
  9254  002482                     
  9255                           ;MCAL_Layer/Interrupt/mcal_interrupt_manager.c: 82:         RB7_Flag = 1;
  9256  002482  0E01               	movlw	1
  9257  002484  6E6E               	movwf	_RB7_Flag^0,c
  9258  002486                     
  9259                           ;MCAL_Layer/Interrupt/mcal_interrupt_manager.c: 83:         RB7_ISR(1);
  9260  002486  0E01               	movlw	1
  9261  002488  ECB4  F021         	call	_RB7_ISR
  9262  00248C                     i2l8942:
  9263                           
  9264                           ;MCAL_Layer/Interrupt/mcal_interrupt_manager.c: 85:     if((PIE1bits.ADIE == 1) && (PIR1
      +                          bits.ADIF == 1)){
  9265  00248C  AC9D               	btfss	157,6,c	;volatile
  9266  00248E  EF4B  F012         	goto	i2u888_41
  9267  002492  EF4D  F012         	goto	i2u888_40
  9268  002496                     i2u888_41:
  9269  002496  EF56  F012         	goto	i2l8948
  9270  00249A                     i2u888_40:
  9271  00249A  AC9E               	btfss	158,6,c	;volatile
  9272  00249C  EF52  F012         	goto	i2u889_41
  9273  0024A0  EF54  F012         	goto	i2u889_40
  9274  0024A4                     i2u889_41:
  9275  0024A4  EF56  F012         	goto	i2l8948
  9276  0024A8                     i2u889_40:
  9277  0024A8                     
  9278                           ;MCAL_Layer/Interrupt/mcal_interrupt_manager.c: 86:         ADC_ISR();
  9279  0024A8  EC1C  F022         	call	_ADC_ISR	;wreg free
  9280  0024AC                     i2l8948:
  9281                           
  9282                           ;MCAL_Layer/Interrupt/mcal_interrupt_manager.c: 88:     if((1 == INTCONbits.TMR0IE) && (
      +                          1 == INTCONbits.TMR0IF)){
  9283  0024AC  AAF2               	btfss	242,5,c	;volatile
  9284  0024AE  EF5B  F012         	goto	i2u890_41
  9285  0024B2  EF5D  F012         	goto	i2u890_40
  9286  0024B6                     i2u890_41:
  9287  0024B6  EF66  F012         	goto	i2l8954
  9288  0024BA                     i2u890_40:
  9289  0024BA  A4F2               	btfss	242,2,c	;volatile
  9290  0024BC  EF62  F012         	goto	i2u891_41
  9291  0024C0  EF64  F012         	goto	i2u891_40
  9292  0024C4                     i2u891_41:
  9293  0024C4  EF66  F012         	goto	i2l8954
  9294  0024C8                     i2u891_40:
  9295  0024C8                     
  9296                           ;MCAL_Layer/Interrupt/mcal_interrupt_manager.c: 89:         Timer0_ISR();
  9297  0024C8  EC12  F022         	call	_Timer0_ISR	;wreg free
  9298  0024CC                     i2l8954:
  9299                           
  9300                           ;MCAL_Layer/Interrupt/mcal_interrupt_manager.c: 91:     if((1 == PIE1bits.TMR1IE) && (1 
      +                          == PIR1bits.TMR1IF)){
  9301  0024CC  A09D               	btfss	157,0,c	;volatile
  9302  0024CE  EF6B  F012         	goto	i2u892_41
  9303  0024D2  EF6D  F012         	goto	i2u892_40
  9304  0024D6                     i2u892_41:
  9305  0024D6  EF76  F012         	goto	i2l8960
  9306  0024DA                     i2u892_40:
  9307  0024DA  A09E               	btfss	158,0,c	;volatile
  9308  0024DC  EF72  F012         	goto	i2u893_41
  9309  0024E0  EF74  F012         	goto	i2u893_40
  9310  0024E4                     i2u893_41:
  9311  0024E4  EF76  F012         	goto	i2l8960
  9312  0024E8                     i2u893_40:
  9313  0024E8                     
  9314                           ;MCAL_Layer/Interrupt/mcal_interrupt_manager.c: 92:         Timer1_ISR();
  9315  0024E8  EC12  F021         	call	_Timer1_ISR	;wreg free
  9316  0024EC                     i2l8960:
  9317                           
  9318                           ;MCAL_Layer/Interrupt/mcal_interrupt_manager.c: 94:     if((1 == PIE1bits.TMR2IE) && (1 
      +                          == PIR1bits.TMR2IF)){
  9319  0024EC  A29D               	btfss	157,1,c	;volatile
  9320  0024EE  EF7B  F012         	goto	i2u894_41
  9321  0024F2  EF7D  F012         	goto	i2u894_40
  9322  0024F6                     i2u894_41:
  9323  0024F6  EF86  F012         	goto	i2l8966
  9324  0024FA                     i2u894_40:
  9325  0024FA  A29E               	btfss	158,1,c	;volatile
  9326  0024FC  EF82  F012         	goto	i2u895_41
  9327  002500  EF84  F012         	goto	i2u895_40
  9328  002504                     i2u895_41:
  9329  002504  EF86  F012         	goto	i2l8966
  9330  002508                     i2u895_40:
  9331  002508                     
  9332                           ;MCAL_Layer/Interrupt/mcal_interrupt_manager.c: 95:         Timer2_ISR();
  9333  002508  EC08  F022         	call	_Timer2_ISR	;wreg free
  9334  00250C                     i2l8966:
  9335                           
  9336                           ;MCAL_Layer/Interrupt/mcal_interrupt_manager.c: 97:     if((1 == PIE2bits.TMR3IE) && (1 
      +                          == PIR2bits.TMR3IF)){
  9337  00250C  A2A0               	btfss	160,1,c	;volatile
  9338  00250E  EF8B  F012         	goto	i2u896_41
  9339  002512  EF8D  F012         	goto	i2u896_40
  9340  002516                     i2u896_41:
  9341  002516  EF96  F012         	goto	i2l8972
  9342  00251A                     i2u896_40:
  9343  00251A  A2A1               	btfss	161,1,c	;volatile
  9344  00251C  EF92  F012         	goto	i2u897_41
  9345  002520  EF94  F012         	goto	i2u897_40
  9346  002524                     i2u897_41:
  9347  002524  EF96  F012         	goto	i2l8972
  9348  002528                     i2u897_40:
  9349  002528                     
  9350                           ;MCAL_Layer/Interrupt/mcal_interrupt_manager.c: 98:         Timer3_ISR();
  9351  002528  EC02  F022         	call	_Timer3_ISR	;wreg free
  9352  00252C                     i2l8972:
  9353                           
  9354                           ;MCAL_Layer/Interrupt/mcal_interrupt_manager.c: 100:     if((1 == PIE1bits.CCP1IE) && (1
      +                           == PIR1bits.CCP1IF)){
  9355  00252C  A49D               	btfss	157,2,c	;volatile
  9356  00252E  EF9B  F012         	goto	i2u898_41
  9357  002532  EF9D  F012         	goto	i2u898_40
  9358  002536                     i2u898_41:
  9359  002536  EFA6  F012         	goto	i2l8978
  9360  00253A                     i2u898_40:
  9361  00253A  A49E               	btfss	158,2,c	;volatile
  9362  00253C  EFA2  F012         	goto	i2u899_41
  9363  002540  EFA4  F012         	goto	i2u899_40
  9364  002544                     i2u899_41:
  9365  002544  EFA6  F012         	goto	i2l8978
  9366  002548                     i2u899_40:
  9367  002548                     
  9368                           ;MCAL_Layer/Interrupt/mcal_interrupt_manager.c: 101:         CCP1_ISR();
  9369  002548  EC63  F021         	call	_CCP1_ISR	;wreg free
  9370  00254C                     i2l8978:
  9371                           
  9372                           ;MCAL_Layer/Interrupt/mcal_interrupt_manager.c: 103:     if((1 == PIE2bits.CCP2IE) && (1
      +                           == PIR2bits.CCP2IF)){
  9373  00254C  A0A0               	btfss	160,0,c	;volatile
  9374  00254E  EFAB  F012         	goto	i2u900_41
  9375  002552  EFAD  F012         	goto	i2u900_40
  9376  002556                     i2u900_41:
  9377  002556  EFB6  F012         	goto	i2l898
  9378  00255A                     i2u900_40:
  9379  00255A  A0A1               	btfss	161,0,c	;volatile
  9380  00255C  EFB2  F012         	goto	i2u901_41
  9381  002560  EFB4  F012         	goto	i2u901_40
  9382  002564                     i2u901_41:
  9383  002564  EFB6  F012         	goto	i2l898
  9384  002568                     i2u901_40:
  9385  002568                     
  9386                           ;MCAL_Layer/Interrupt/mcal_interrupt_manager.c: 104:         CCP2_ISR();
  9387  002568  EC1A  F022         	call	_CCP2_ISR	;wreg free
  9388  00256C                     i2l898:
  9389  00256C  C00D  FFDA         	movff	??_InterruptManager+3,fsr2h
  9390  002570  C00C  FFD9         	movff	??_InterruptManager+2,fsr2l
  9391  002574  C00B  FFFB         	movff	??_InterruptManager+1,pclatu
  9392  002578  C00A  FFFA         	movff	??_InterruptManager,pclath
  9393  00257C  9272               	bcf	int$flags,1,c	;clear compiler interrupt flag (level 2)
  9394  00257E  0011               	retfie		f
  9395  002580                     __end_of_InterruptManager:
  9396                           	callstack 0
  9397                           
  9398 ;; *************** function _Timer3_ISR *****************
  9399 ;; Defined at:
  9400 ;;		line 318 in file "MCAL_Layer/Timer3/hal_timer3.c"
  9401 ;; Parameters:    Size  Location     Type
  9402 ;;		None
  9403 ;; Auto vars:     Size  Location     Type
  9404 ;;		None
  9405 ;; Return value:  Size  Location     Type
  9406 ;;                  1    wreg      void 
  9407 ;; Registers used:
  9408 ;;		wreg, status,2
  9409 ;; Tracked objects:
  9410 ;;		On entry : 0/0
  9411 ;;		On exit  : 0/0
  9412 ;;		Unchanged: 0/0
  9413 ;; Data sizes:     COMRAM   BANK0   BANK1   BANK2   BANK3   BANK4   BANK5   BANK6   BANK7   BANK8   BANK9  BANK10  BANK1
      +1  BANK12  BANK13  BANK14  BANK15
  9414 ;;      Params:         0       0       0       0       0       0       0       0       0       0       0       0       
      +0       0       0       0       0
  9415 ;;      Locals:         0       0       0       0       0       0       0       0       0       0       0       0       
      +0       0       0       0       0
  9416 ;;      Temps:          0       0       0       0       0       0       0       0       0       0       0       0       
      +0       0       0       0       0
  9417 ;;      Totals:         0       0       0       0       0       0       0       0       0       0       0       0       
      +0       0       0       0       0
  9418 ;;Total ram usage:        0 bytes
  9419 ;; Hardware stack levels used: 1
  9420 ;; This function calls:
  9421 ;;		Nothing
  9422 ;; This function is called by:
  9423 ;;		_InterruptManager
  9424 ;; This function uses a non-reentrant model
  9425 ;;
  9426                           
  9427                           	psect	text42
  9428  004404                     __ptext42:
  9429                           	callstack 0
  9430  004404                     _Timer3_ISR:
  9431                           	callstack 20
  9432  004404                     
  9433                           ;MCAL_Layer/Timer3/hal_timer3.c: 319:     (PIR2bits.TMR3IF = 0);
  9434  004404  92A1               	bcf	161,1,c	;volatile
  9435  004406                     
  9436                           ;MCAL_Layer/Timer3/hal_timer3.c: 320:     TMR3H = (timer3_isr_preload_value) >> 8;
  9437  004406  5068               	movf	(_timer3_isr_preload_value+1)^0,w,c	;volatile
  9438  004408  6EB3               	movwf	179,c	;volatile
  9439  00440A                     
  9440                           ;MCAL_Layer/Timer3/hal_timer3.c: 321:     TMR3L = (uint8)(timer3_isr_preload_value);
  9441  00440A  C067  FFB2         	movff	_timer3_isr_preload_value,4018	;volatile
  9442  00440E  0012               	return		;funcret
  9443  004410                     __end_of_Timer3_ISR:
  9444                           	callstack 0
  9445                           
  9446 ;; *************** function _Timer2_ISR *****************
  9447 ;; Defined at:
  9448 ;;		line 168 in file "MCAL_Layer/Timer2/hal_timer2.c"
  9449 ;; Parameters:    Size  Location     Type
  9450 ;;		None
  9451 ;; Auto vars:     Size  Location     Type
  9452 ;;		None
  9453 ;; Return value:  Size  Location     Type
  9454 ;;                  1    wreg      void 
  9455 ;; Registers used:
  9456 ;;		None
  9457 ;; Tracked objects:
  9458 ;;		On entry : 0/0
  9459 ;;		On exit  : 0/0
  9460 ;;		Unchanged: 0/0
  9461 ;; Data sizes:     COMRAM   BANK0   BANK1   BANK2   BANK3   BANK4   BANK5   BANK6   BANK7   BANK8   BANK9  BANK10  BANK1
      +1  BANK12  BANK13  BANK14  BANK15
  9462 ;;      Params:         0       0       0       0       0       0       0       0       0       0       0       0       
      +0       0       0       0       0
  9463 ;;      Locals:         0       0       0       0       0       0       0       0       0       0       0       0       
      +0       0       0       0       0
  9464 ;;      Temps:          0       0       0       0       0       0       0       0       0       0       0       0       
      +0       0       0       0       0
  9465 ;;      Totals:         0       0       0       0       0       0       0       0       0       0       0       0       
      +0       0       0       0       0
  9466 ;;Total ram usage:        0 bytes
  9467 ;; Hardware stack levels used: 1
  9468 ;; This function calls:
  9469 ;;		Nothing
  9470 ;; This function is called by:
  9471 ;;		_InterruptManager
  9472 ;; This function uses a non-reentrant model
  9473 ;;
  9474                           
  9475                           	psect	text43
  9476  004410                     __ptext43:
  9477                           	callstack 0
  9478  004410                     _Timer2_ISR:
  9479                           	callstack 20
  9480  004410                     
  9481                           ;MCAL_Layer/Timer2/hal_timer2.c: 169:     (PIR1bits.TMR2IF = 0);
  9482  004410  929E               	bcf	158,1,c	;volatile
  9483                           
  9484                           ;MCAL_Layer/Timer2/hal_timer2.c: 171:     TMR2 = timer2_preload;
  9485  004412  C0B9  FFCC         	movff	_timer2_preload,4044	;volatile
  9486  004416  0012               	return		;funcret
  9487  004418                     __end_of_Timer2_ISR:
  9488                           	callstack 0
  9489                           
  9490 ;; *************** function _Timer1_ISR *****************
  9491 ;; Defined at:
  9492 ;;		line 339 in file "MCAL_Layer/Timer1/hal_timer1.c"
  9493 ;; Parameters:    Size  Location     Type
  9494 ;;		None
  9495 ;; Auto vars:     Size  Location     Type
  9496 ;;		None
  9497 ;; Return value:  Size  Location     Type
  9498 ;;                  1    wreg      void 
  9499 ;; Registers used:
  9500 ;;		wreg, status,2, status,0, pcl, pclath, pclatu, tosl, cstack
  9501 ;; Tracked objects:
  9502 ;;		On entry : 0/0
  9503 ;;		On exit  : 0/0
  9504 ;;		Unchanged: 0/0
  9505 ;; Data sizes:     COMRAM   BANK0   BANK1   BANK2   BANK3   BANK4   BANK5   BANK6   BANK7   BANK8   BANK9  BANK10  BANK1
      +1  BANK12  BANK13  BANK14  BANK15
  9506 ;;      Params:         0       0       0       0       0       0       0       0       0       0       0       0       
      +0       0       0       0       0
  9507 ;;      Locals:         0       0       0       0       0       0       0       0       0       0       0       0       
      +0       0       0       0       0
  9508 ;;      Temps:          0       0       0       0       0       0       0       0       0       0       0       0       
      +0       0       0       0       0
  9509 ;;      Totals:         0       0       0       0       0       0       0       0       0       0       0       0       
      +0       0       0       0       0
  9510 ;;Total ram usage:        0 bytes
  9511 ;; Hardware stack levels used: 1
  9512 ;; Hardware stack levels required when called: 1
  9513 ;; This function calls:
  9514 ;;		Absolute function
  9515 ;;		_timer1_app_isr
  9516 ;; This function is called by:
  9517 ;;		_InterruptManager
  9518 ;; This function uses a non-reentrant model
  9519 ;;
  9520                           
  9521                           	psect	text44
  9522  004224                     __ptext44:
  9523                           	callstack 0
  9524  004224                     _Timer1_ISR:
  9525                           	callstack 19
  9526  004224                     
  9527                           ;MCAL_Layer/Timer1/hal_timer1.c: 340:     (PIR1bits.TMR1IF = 0);
  9528  004224  909E               	bcf	158,0,c	;volatile
  9529  004226                     
  9530                           ;MCAL_Layer/Timer1/hal_timer1.c: 341:     TMR1H = (timer1_isr_preload_value) >> 8;
  9531  004226  506A               	movf	(_timer1_isr_preload_value+1)^0,w,c	;volatile
  9532  004228  6ECF               	movwf	207,c	;volatile
  9533  00422A                     
  9534                           ;MCAL_Layer/Timer1/hal_timer1.c: 342:     TMR1L = (uint8)(timer1_isr_preload_value);
  9535  00422A  C069  FFCE         	movff	_timer1_isr_preload_value,4046	;volatile
  9536  00422E                     
  9537                           ;MCAL_Layer/Timer1/hal_timer1.c: 343:     if(TMR1_InterruptHandler != ((void*)0)){
  9538  00422E  0100               	movlb	0	; () banked
  9539  004230  519C               	movf	_TMR1_InterruptHandler& (0+255),w,b
  9540  004232  119D               	iorwf	(_TMR1_InterruptHandler+1)& (0+255),w,b
  9541  004234  B4D8               	btfsc	status,2,c
  9542  004236  EF1F  F021         	goto	i2u739_41
  9543  00423A  EF21  F021         	goto	i2u739_40
  9544  00423E                     i2u739_41:
  9545  00423E  EF2D  F021         	goto	i2l1183
  9546  004242                     i2u739_40:
  9547  004242                     
  9548                           ; BSR set to: 0
  9549                           ;MCAL_Layer/Timer1/hal_timer1.c: 344:         TMR1_InterruptHandler();
  9550  004242  D802               	call	i2u740_48
  9551  004244  EF2D  F021         	goto	i2u740_49
  9552  004248                     i2u740_48:
  9553  004248  0005               	push	
  9554  00424A  6EFA               	movwf	pclath,c
  9555  00424C  519C               	movf	_TMR1_InterruptHandler& (0+255),w,b
  9556  00424E  6EFD               	movwf	tosl,c
  9557  004250  519D               	movf	(_TMR1_InterruptHandler+1)& (0+255),w,b
  9558  004252  6EFE               	movwf	tosh,c
  9559  004254  6AFF               	clrf	tosu,c
  9560  004256  50FA               	movf	pclath,w,c
  9561  004258  0012               	return		;indir
  9562  00425A                     i2u740_49:
  9563  00425A                     i2l1183:
  9564  00425A  0012               	return		;funcret
  9565  00425C                     __end_of_Timer1_ISR:
  9566                           	callstack 0
  9567                           
  9568 ;; *************** function _timer1_app_isr *****************
  9569 ;; Defined at:
  9570 ;;		line 146 in file "application.c"
  9571 ;; Parameters:    Size  Location     Type
  9572 ;;		None
  9573 ;; Auto vars:     Size  Location     Type
  9574 ;;		None
  9575 ;; Return value:  Size  Location     Type
  9576 ;;                  1    wreg      void 
  9577 ;; Registers used:
  9578 ;;		status,2, status,0
  9579 ;; Tracked objects:
  9580 ;;		On entry : 0/0
  9581 ;;		On exit  : 0/0
  9582 ;;		Unchanged: 0/0
  9583 ;; Data sizes:     COMRAM   BANK0   BANK1   BANK2   BANK3   BANK4   BANK5   BANK6   BANK7   BANK8   BANK9  BANK10  BANK1
      +1  BANK12  BANK13  BANK14  BANK15
  9584 ;;      Params:         0       0       0       0       0       0       0       0       0       0       0       0       
      +0       0       0       0       0
  9585 ;;      Locals:         0       0       0       0       0       0       0       0       0       0       0       0       
      +0       0       0       0       0
  9586 ;;      Temps:          0       0       0       0       0       0       0       0       0       0       0       0       
      +0       0       0       0       0
  9587 ;;      Totals:         0       0       0       0       0       0       0       0       0       0       0       0       
      +0       0       0       0       0
  9588 ;;Total ram usage:        0 bytes
  9589 ;; Hardware stack levels used: 1
  9590 ;; This function calls:
  9591 ;;		Nothing
  9592 ;; This function is called by:
  9593 ;;		_Timer1_ISR
  9594 ;; This function uses a non-reentrant model
  9595 ;;
  9596                           
  9597                           	psect	text45
  9598  004418                     __ptext45:
  9599                           	callstack 0
  9600  004418                     _timer1_app_isr:
  9601                           	callstack 19
  9602  004418                     
  9603                           ;application.c: 147:     ovf++;
  9604  004418  0100               	movlb	0	; () banked
  9605  00441A  4B96               	infsnz	_ovf& (0+255),f,b	;volatile
  9606  00441C  2B97               	incf	(_ovf+1)& (0+255),f,b	;volatile
  9607  00441E                     
  9608                           ; BSR set to: 0
  9609  00441E  0012               	return		;funcret
  9610  004420                     __end_of_timer1_app_isr:
  9611                           	callstack 0
  9612                           
  9613 ;; *************** function _Timer0_ISR *****************
  9614 ;; Defined at:
  9615 ;;		line 407 in file "MCAL_Layer/Timer0/hal_timer0.c"
  9616 ;; Parameters:    Size  Location     Type
  9617 ;;		None
  9618 ;; Auto vars:     Size  Location     Type
  9619 ;;		None
  9620 ;; Return value:  Size  Location     Type
  9621 ;;                  1    wreg      void 
  9622 ;; Registers used:
  9623 ;;		None
  9624 ;; Tracked objects:
  9625 ;;		On entry : 0/0
  9626 ;;		On exit  : 0/0
  9627 ;;		Unchanged: 0/0
  9628 ;; Data sizes:     COMRAM   BANK0   BANK1   BANK2   BANK3   BANK4   BANK5   BANK6   BANK7   BANK8   BANK9  BANK10  BANK1
      +1  BANK12  BANK13  BANK14  BANK15
  9629 ;;      Params:         0       0       0       0       0       0       0       0       0       0       0       0       
      +0       0       0       0       0
  9630 ;;      Locals:         0       0       0       0       0       0       0       0       0       0       0       0       
      +0       0       0       0       0
  9631 ;;      Temps:          0       0       0       0       0       0       0       0       0       0       0       0       
      +0       0       0       0       0
  9632 ;;      Totals:         0       0       0       0       0       0       0       0       0       0       0       0       
      +0       0       0       0       0
  9633 ;;Total ram usage:        0 bytes
  9634 ;; Hardware stack levels used: 1
  9635 ;; This function calls:
  9636 ;;		Nothing
  9637 ;; This function is called by:
  9638 ;;		_InterruptManager
  9639 ;; This function uses a non-reentrant model
  9640 ;;
  9641                           
  9642                           	psect	text46
  9643  004424                     __ptext46:
  9644                           	callstack 0
  9645  004424                     _Timer0_ISR:
  9646                           	callstack 20
  9647  004424                     
  9648                           ;MCAL_Layer/Timer0/hal_timer0.c: 408:     (INTCONbits.TMR0IF = 0);
  9649  004424  94F2               	bcf	242,2,c	;volatile
  9650  004426  0012               	return		;funcret
  9651  004428                     __end_of_Timer0_ISR:
  9652                           	callstack 0
  9653                           
  9654 ;; *************** function _RB7_ISR *****************
  9655 ;; Defined at:
  9656 ;;		line 765 in file "MCAL_Layer/Interrupt/mcal_external_interrupt.c"
  9657 ;; Parameters:    Size  Location     Type
  9658 ;;  source          1    wreg     unsigned char 
  9659 ;; Auto vars:     Size  Location     Type
  9660 ;;  source          1    0[COMRAM] unsigned char 
  9661 ;; Return value:  Size  Location     Type
  9662 ;;                  1    wreg      void 
  9663 ;; Registers used:
  9664 ;;		wreg, status,2, status,0
  9665 ;; Tracked objects:
  9666 ;;		On entry : 0/0
  9667 ;;		On exit  : 0/0
  9668 ;;		Unchanged: 0/0
  9669 ;; Data sizes:     COMRAM   BANK0   BANK1   BANK2   BANK3   BANK4   BANK5   BANK6   BANK7   BANK8   BANK9  BANK10  BANK1
      +1  BANK12  BANK13  BANK14  BANK15
  9670 ;;      Params:         0       0       0       0       0       0       0       0       0       0       0       0       
      +0       0       0       0       0
  9671 ;;      Locals:         1       0       0       0       0       0       0       0       0       0       0       0       
      +0       0       0       0       0
  9672 ;;      Temps:          0       0       0       0       0       0       0       0       0       0       0       0       
      +0       0       0       0       0
  9673 ;;      Totals:         1       0       0       0       0       0       0       0       0       0       0       0       
      +0       0       0       0       0
  9674 ;;Total ram usage:        1 bytes
  9675 ;; Hardware stack levels used: 1
  9676 ;; This function calls:
  9677 ;;		Nothing
  9678 ;; This function is called by:
  9679 ;;		_InterruptManager
  9680 ;; This function uses a non-reentrant model
  9681 ;;
  9682                           
  9683                           	psect	text47
  9684  004368                     __ptext47:
  9685                           	callstack 0
  9686  004368                     _RB7_ISR:
  9687                           	callstack 20
  9688                           
  9689                           ;incstack = 0
  9690                           ;RB7_ISR@source stored from wreg
  9691  004368  6E01               	movwf	RB7_ISR@source^0,c
  9692  00436A                     
  9693                           ;MCAL_Layer/Interrupt/mcal_external_interrupt.c: 766:     (INTCONbits.RBIF = 0);
  9694  00436A  90F2               	bcf	242,0,c	;volatile
  9695  00436C                     
  9696                           ;MCAL_Layer/Interrupt/mcal_external_interrupt.c: 767:     if(source == 0){
  9697  00436C  5001               	movf	RB7_ISR@source^0,w,c
  9698  00436E  A4D8               	btfss	status,2,c
  9699  004370  EFBC  F021         	goto	i2u738_41
  9700  004374  EFBE  F021         	goto	i2u738_40
  9701  004378                     i2u738_41:
  9702  004378  EFC0  F021         	goto	i2l7814
  9703  00437C                     i2u738_40:
  9704  00437C  EFC0  F021         	goto	i2l825
  9705  004380                     i2l7814:
  9706  004380                     i2l825:
  9707  004380  0012               	return		;funcret
  9708  004382                     __end_of_RB7_ISR:
  9709                           	callstack 0
  9710                           
  9711 ;; *************** function _RB6_ISR *****************
  9712 ;; Defined at:
  9713 ;;		line 756 in file "MCAL_Layer/Interrupt/mcal_external_interrupt.c"
  9714 ;; Parameters:    Size  Location     Type
  9715 ;;  source          1    wreg     unsigned char 
  9716 ;; Auto vars:     Size  Location     Type
  9717 ;;  source          1    0[COMRAM] unsigned char 
  9718 ;; Return value:  Size  Location     Type
  9719 ;;                  1    wreg      void 
  9720 ;; Registers used:
  9721 ;;		wreg, status,2, status,0
  9722 ;; Tracked objects:
  9723 ;;		On entry : 0/0
  9724 ;;		On exit  : 0/0
  9725 ;;		Unchanged: 0/0
  9726 ;; Data sizes:     COMRAM   BANK0   BANK1   BANK2   BANK3   BANK4   BANK5   BANK6   BANK7   BANK8   BANK9  BANK10  BANK1
      +1  BANK12  BANK13  BANK14  BANK15
  9727 ;;      Params:         0       0       0       0       0       0       0       0       0       0       0       0       
      +0       0       0       0       0
  9728 ;;      Locals:         1       0       0       0       0       0       0       0       0       0       0       0       
      +0       0       0       0       0
  9729 ;;      Temps:          0       0       0       0       0       0       0       0       0       0       0       0       
      +0       0       0       0       0
  9730 ;;      Totals:         1       0       0       0       0       0       0       0       0       0       0       0       
      +0       0       0       0       0
  9731 ;;Total ram usage:        1 bytes
  9732 ;; Hardware stack levels used: 1
  9733 ;; This function calls:
  9734 ;;		Nothing
  9735 ;; This function is called by:
  9736 ;;		_InterruptManager
  9737 ;; This function uses a non-reentrant model
  9738 ;;
  9739                           
  9740                           	psect	text48
  9741  004382                     __ptext48:
  9742                           	callstack 0
  9743  004382                     _RB6_ISR:
  9744                           	callstack 20
  9745                           
  9746                           ;incstack = 0
  9747                           ;RB6_ISR@source stored from wreg
  9748  004382  6E01               	movwf	RB6_ISR@source^0,c
  9749  004384                     
  9750                           ;MCAL_Layer/Interrupt/mcal_external_interrupt.c: 757:     (INTCONbits.RBIF = 0);
  9751  004384  90F2               	bcf	242,0,c	;volatile
  9752  004386                     
  9753                           ;MCAL_Layer/Interrupt/mcal_external_interrupt.c: 758:     if(source == 0){
  9754  004386  5001               	movf	RB6_ISR@source^0,w,c
  9755  004388  A4D8               	btfss	status,2,c
  9756  00438A  EFC9  F021         	goto	i2u737_41
  9757  00438E  EFCB  F021         	goto	i2u737_40
  9758  004392                     i2u737_41:
  9759  004392  EFCD  F021         	goto	i2l7804
  9760  004396                     i2u737_40:
  9761  004396  EFCD  F021         	goto	i2l817
  9762  00439A                     i2l7804:
  9763  00439A                     i2l817:
  9764  00439A  0012               	return		;funcret
  9765  00439C                     __end_of_RB6_ISR:
  9766                           	callstack 0
  9767                           
  9768 ;; *************** function _RB5_ISR *****************
  9769 ;; Defined at:
  9770 ;;		line 747 in file "MCAL_Layer/Interrupt/mcal_external_interrupt.c"
  9771 ;; Parameters:    Size  Location     Type
  9772 ;;  source          1    wreg     unsigned char 
  9773 ;; Auto vars:     Size  Location     Type
  9774 ;;  source          1    0[COMRAM] unsigned char 
  9775 ;; Return value:  Size  Location     Type
  9776 ;;                  1    wreg      void 
  9777 ;; Registers used:
  9778 ;;		wreg, status,2, status,0
  9779 ;; Tracked objects:
  9780 ;;		On entry : 0/0
  9781 ;;		On exit  : 0/0
  9782 ;;		Unchanged: 0/0
  9783 ;; Data sizes:     COMRAM   BANK0   BANK1   BANK2   BANK3   BANK4   BANK5   BANK6   BANK7   BANK8   BANK9  BANK10  BANK1
      +1  BANK12  BANK13  BANK14  BANK15
  9784 ;;      Params:         0       0       0       0       0       0       0       0       0       0       0       0       
      +0       0       0       0       0
  9785 ;;      Locals:         1       0       0       0       0       0       0       0       0       0       0       0       
      +0       0       0       0       0
  9786 ;;      Temps:          0       0       0       0       0       0       0       0       0       0       0       0       
      +0       0       0       0       0
  9787 ;;      Totals:         1       0       0       0       0       0       0       0       0       0       0       0       
      +0       0       0       0       0
  9788 ;;Total ram usage:        1 bytes
  9789 ;; Hardware stack levels used: 1
  9790 ;; This function calls:
  9791 ;;		Nothing
  9792 ;; This function is called by:
  9793 ;;		_InterruptManager
  9794 ;; This function uses a non-reentrant model
  9795 ;;
  9796                           
  9797                           	psect	text49
  9798  00439C                     __ptext49:
  9799                           	callstack 0
  9800  00439C                     _RB5_ISR:
  9801                           	callstack 20
  9802                           
  9803                           ;incstack = 0
  9804                           ;RB5_ISR@source stored from wreg
  9805  00439C  6E01               	movwf	RB5_ISR@source^0,c
  9806  00439E                     
  9807                           ;MCAL_Layer/Interrupt/mcal_external_interrupt.c: 748:     (INTCONbits.RBIF = 0);
  9808  00439E  90F2               	bcf	242,0,c	;volatile
  9809  0043A0                     
  9810                           ;MCAL_Layer/Interrupt/mcal_external_interrupt.c: 749:     if(source == 0){
  9811  0043A0  5001               	movf	RB5_ISR@source^0,w,c
  9812  0043A2  A4D8               	btfss	status,2,c
  9813  0043A4  EFD6  F021         	goto	i2u736_41
  9814  0043A8  EFD8  F021         	goto	i2u736_40
  9815  0043AC                     i2u736_41:
  9816  0043AC  EFDA  F021         	goto	i2l7794
  9817  0043B0                     i2u736_40:
  9818  0043B0  EFDA  F021         	goto	i2l809
  9819  0043B4                     i2l7794:
  9820  0043B4                     i2l809:
  9821  0043B4  0012               	return		;funcret
  9822  0043B6                     __end_of_RB5_ISR:
  9823                           	callstack 0
  9824                           
  9825 ;; *************** function _RB4_ISR *****************
  9826 ;; Defined at:
  9827 ;;		line 738 in file "MCAL_Layer/Interrupt/mcal_external_interrupt.c"
  9828 ;; Parameters:    Size  Location     Type
  9829 ;;  source          1    wreg     unsigned char 
  9830 ;; Auto vars:     Size  Location     Type
  9831 ;;  source          1    0[COMRAM] unsigned char 
  9832 ;; Return value:  Size  Location     Type
  9833 ;;                  1    wreg      void 
  9834 ;; Registers used:
  9835 ;;		wreg, status,2, status,0
  9836 ;; Tracked objects:
  9837 ;;		On entry : 0/0
  9838 ;;		On exit  : 0/0
  9839 ;;		Unchanged: 0/0
  9840 ;; Data sizes:     COMRAM   BANK0   BANK1   BANK2   BANK3   BANK4   BANK5   BANK6   BANK7   BANK8   BANK9  BANK10  BANK1
      +1  BANK12  BANK13  BANK14  BANK15
  9841 ;;      Params:         0       0       0       0       0       0       0       0       0       0       0       0       
      +0       0       0       0       0
  9842 ;;      Locals:         1       0       0       0       0       0       0       0       0       0       0       0       
      +0       0       0       0       0
  9843 ;;      Temps:          0       0       0       0       0       0       0       0       0       0       0       0       
      +0       0       0       0       0
  9844 ;;      Totals:         1       0       0       0       0       0       0       0       0       0       0       0       
      +0       0       0       0       0
  9845 ;;Total ram usage:        1 bytes
  9846 ;; Hardware stack levels used: 1
  9847 ;; This function calls:
  9848 ;;		Nothing
  9849 ;; This function is called by:
  9850 ;;		_InterruptManager
  9851 ;; This function uses a non-reentrant model
  9852 ;;
  9853                           
  9854                           	psect	text50
  9855  0043B6                     __ptext50:
  9856                           	callstack 0
  9857  0043B6                     _RB4_ISR:
  9858                           	callstack 20
  9859                           
  9860                           ;incstack = 0
  9861                           ;RB4_ISR@source stored from wreg
  9862  0043B6  6E01               	movwf	RB4_ISR@source^0,c
  9863  0043B8                     
  9864                           ;MCAL_Layer/Interrupt/mcal_external_interrupt.c: 739:     (INTCONbits.RBIF = 0);
  9865  0043B8  90F2               	bcf	242,0,c	;volatile
  9866  0043BA                     
  9867                           ;MCAL_Layer/Interrupt/mcal_external_interrupt.c: 740:     if(source == 0){
  9868  0043BA  5001               	movf	RB4_ISR@source^0,w,c
  9869  0043BC  A4D8               	btfss	status,2,c
  9870  0043BE  EFE3  F021         	goto	i2u735_41
  9871  0043C2  EFE5  F021         	goto	i2u735_40
  9872  0043C6                     i2u735_41:
  9873  0043C6  EFE7  F021         	goto	i2l7784
  9874  0043CA                     i2u735_40:
  9875  0043CA  EFE7  F021         	goto	i2l801
  9876  0043CE                     i2l7784:
  9877  0043CE                     i2l801:
  9878  0043CE  0012               	return		;funcret
  9879  0043D0                     __end_of_RB4_ISR:
  9880                           	callstack 0
  9881                           
  9882 ;; *************** function _INT2_ISR *****************
  9883 ;; Defined at:
  9884 ;;		line 614 in file "MCAL_Layer/Interrupt/mcal_external_interrupt.c"
  9885 ;; Parameters:    Size  Location     Type
  9886 ;;		None
  9887 ;; Auto vars:     Size  Location     Type
  9888 ;;		None
  9889 ;; Return value:  Size  Location     Type
  9890 ;;                  1    wreg      void 
  9891 ;; Registers used:
  9892 ;;		None
  9893 ;; Tracked objects:
  9894 ;;		On entry : 0/0
  9895 ;;		On exit  : 0/0
  9896 ;;		Unchanged: 0/0
  9897 ;; Data sizes:     COMRAM   BANK0   BANK1   BANK2   BANK3   BANK4   BANK5   BANK6   BANK7   BANK8   BANK9  BANK10  BANK1
      +1  BANK12  BANK13  BANK14  BANK15
  9898 ;;      Params:         0       0       0       0       0       0       0       0       0       0       0       0       
      +0       0       0       0       0
  9899 ;;      Locals:         0       0       0       0       0       0       0       0       0       0       0       0       
      +0       0       0       0       0
  9900 ;;      Temps:          0       0       0       0       0       0       0       0       0       0       0       0       
      +0       0       0       0       0
  9901 ;;      Totals:         0       0       0       0       0       0       0       0       0       0       0       0       
      +0       0       0       0       0
  9902 ;;Total ram usage:        0 bytes
  9903 ;; Hardware stack levels used: 1
  9904 ;; This function calls:
  9905 ;;		Nothing
  9906 ;; This function is called by:
  9907 ;;		_InterruptManager
  9908 ;; This function uses a non-reentrant model
  9909 ;;
  9910                           
  9911                           	psect	text51
  9912  004428                     __ptext51:
  9913                           	callstack 0
  9914  004428                     _INT2_ISR:
  9915                           	callstack 20
  9916  004428                     
  9917                           ;MCAL_Layer/Interrupt/mcal_external_interrupt.c: 615:     (INTCON3bits.INT2IF = 0);
  9918  004428  92F0               	bcf	240,1,c	;volatile
  9919  00442A  0012               	return		;funcret
  9920  00442C                     __end_of_INT2_ISR:
  9921                           	callstack 0
  9922                           
  9923 ;; *************** function _INT1_ISR *****************
  9924 ;; Defined at:
  9925 ;;		line 608 in file "MCAL_Layer/Interrupt/mcal_external_interrupt.c"
  9926 ;; Parameters:    Size  Location     Type
  9927 ;;		None
  9928 ;; Auto vars:     Size  Location     Type
  9929 ;;		None
  9930 ;; Return value:  Size  Location     Type
  9931 ;;                  1    wreg      void 
  9932 ;; Registers used:
  9933 ;;		None
  9934 ;; Tracked objects:
  9935 ;;		On entry : 0/0
  9936 ;;		On exit  : 0/0
  9937 ;;		Unchanged: 0/0
  9938 ;; Data sizes:     COMRAM   BANK0   BANK1   BANK2   BANK3   BANK4   BANK5   BANK6   BANK7   BANK8   BANK9  BANK10  BANK1
      +1  BANK12  BANK13  BANK14  BANK15
  9939 ;;      Params:         0       0       0       0       0       0       0       0       0       0       0       0       
      +0       0       0       0       0
  9940 ;;      Locals:         0       0       0       0       0       0       0       0       0       0       0       0       
      +0       0       0       0       0
  9941 ;;      Temps:          0       0       0       0       0       0       0       0       0       0       0       0       
      +0       0       0       0       0
  9942 ;;      Totals:         0       0       0       0       0       0       0       0       0       0       0       0       
      +0       0       0       0       0
  9943 ;;Total ram usage:        0 bytes
  9944 ;; Hardware stack levels used: 1
  9945 ;; This function calls:
  9946 ;;		Nothing
  9947 ;; This function is called by:
  9948 ;;		_InterruptManager
  9949 ;; This function uses a non-reentrant model
  9950 ;;
  9951                           
  9952                           	psect	text52
  9953  00442C                     __ptext52:
  9954                           	callstack 0
  9955  00442C                     _INT1_ISR:
  9956                           	callstack 20
  9957  00442C                     
  9958                           ;MCAL_Layer/Interrupt/mcal_external_interrupt.c: 609:     (INTCON3bits.INT1IF = 0);
  9959  00442C  90F0               	bcf	240,0,c	;volatile
  9960  00442E  0012               	return		;funcret
  9961  004430                     __end_of_INT1_ISR:
  9962                           	callstack 0
  9963                           
  9964 ;; *************** function _INT0_ISR *****************
  9965 ;; Defined at:
  9966 ;;		line 602 in file "MCAL_Layer/Interrupt/mcal_external_interrupt.c"
  9967 ;; Parameters:    Size  Location     Type
  9968 ;;		None
  9969 ;; Auto vars:     Size  Location     Type
  9970 ;;		None
  9971 ;; Return value:  Size  Location     Type
  9972 ;;                  1    wreg      void 
  9973 ;; Registers used:
  9974 ;;		None
  9975 ;; Tracked objects:
  9976 ;;		On entry : 0/0
  9977 ;;		On exit  : 0/0
  9978 ;;		Unchanged: 0/0
  9979 ;; Data sizes:     COMRAM   BANK0   BANK1   BANK2   BANK3   BANK4   BANK5   BANK6   BANK7   BANK8   BANK9  BANK10  BANK1
      +1  BANK12  BANK13  BANK14  BANK15
  9980 ;;      Params:         0       0       0       0       0       0       0       0       0       0       0       0       
      +0       0       0       0       0
  9981 ;;      Locals:         0       0       0       0       0       0       0       0       0       0       0       0       
      +0       0       0       0       0
  9982 ;;      Temps:          0       0       0       0       0       0       0       0       0       0       0       0       
      +0       0       0       0       0
  9983 ;;      Totals:         0       0       0       0       0       0       0       0       0       0       0       0       
      +0       0       0       0       0
  9984 ;;Total ram usage:        0 bytes
  9985 ;; Hardware stack levels used: 1
  9986 ;; This function calls:
  9987 ;;		Nothing
  9988 ;; This function is called by:
  9989 ;;		_InterruptManager
  9990 ;; This function uses a non-reentrant model
  9991 ;;
  9992                           
  9993                           	psect	text53
  9994  004430                     __ptext53:
  9995                           	callstack 0
  9996  004430                     _INT0_ISR:
  9997                           	callstack 20
  9998  004430                     
  9999                           ;MCAL_Layer/Interrupt/mcal_external_interrupt.c: 603:     (INTCONbits.INT0IF = 0);
 10000  004430  92F2               	bcf	242,1,c	;volatile
 10001  004432  0012               	return		;funcret
 10002  004434                     __end_of_INT0_ISR:
 10003                           	callstack 0
 10004                           
 10005 ;; *************** function _CCP2_ISR *****************
 10006 ;; Defined at:
 10007 ;;		line 405 in file "MCAL_Layer/CCP1/hal_ccp1.c"
 10008 ;; Parameters:    Size  Location     Type
 10009 ;;		None
 10010 ;; Auto vars:     Size  Location     Type
 10011 ;;		None
 10012 ;; Return value:  Size  Location     Type
 10013 ;;                  1    wreg      void 
 10014 ;; Registers used:
 10015 ;;		None
 10016 ;; Tracked objects:
 10017 ;;		On entry : 0/0
 10018 ;;		On exit  : 0/0
 10019 ;;		Unchanged: 0/0
 10020 ;; Data sizes:     COMRAM   BANK0   BANK1   BANK2   BANK3   BANK4   BANK5   BANK6   BANK7   BANK8   BANK9  BANK10  BANK1
      +1  BANK12  BANK13  BANK14  BANK15
 10021 ;;      Params:         0       0       0       0       0       0       0       0       0       0       0       0       
      +0       0       0       0       0
 10022 ;;      Locals:         0       0       0       0       0       0       0       0       0       0       0       0       
      +0       0       0       0       0
 10023 ;;      Temps:          0       0       0       0       0       0       0       0       0       0       0       0       
      +0       0       0       0       0
 10024 ;;      Totals:         0       0       0       0       0       0       0       0       0       0       0       0       
      +0       0       0       0       0
 10025 ;;Total ram usage:        0 bytes
 10026 ;; Hardware stack levels used: 1
 10027 ;; This function calls:
 10028 ;;		Nothing
 10029 ;; This function is called by:
 10030 ;;		_InterruptManager
 10031 ;; This function uses a non-reentrant model
 10032 ;;
 10033                           
 10034                           	psect	text54
 10035  004434                     __ptext54:
 10036                           	callstack 0
 10037  004434                     _CCP2_ISR:
 10038                           	callstack 20
 10039  004434                     
 10040                           ;MCAL_Layer/CCP1/hal_ccp1.c: 406:     (PIR2bits.CCP2IF = 0);
 10041  004434  90A1               	bcf	161,0,c	;volatile
 10042  004436  0012               	return		;funcret
 10043  004438                     __end_of_CCP2_ISR:
 10044                           	callstack 0
 10045                           
 10046 ;; *************** function _CCP1_ISR *****************
 10047 ;; Defined at:
 10048 ;;		line 397 in file "MCAL_Layer/CCP1/hal_ccp1.c"
 10049 ;; Parameters:    Size  Location     Type
 10050 ;;		None
 10051 ;; Auto vars:     Size  Location     Type
 10052 ;;		None
 10053 ;; Return value:  Size  Location     Type
 10054 ;;                  1    wreg      void 
 10055 ;; Registers used:
 10056 ;;		wreg, fsr2l, fsr2h, status,2, status,0, pcl, pclath, pclatu, tosl, cstack
 10057 ;; Tracked objects:
 10058 ;;		On entry : 0/0
 10059 ;;		On exit  : 0/0
 10060 ;;		Unchanged: 0/0
 10061 ;; Data sizes:     COMRAM   BANK0   BANK1   BANK2   BANK3   BANK4   BANK5   BANK6   BANK7   BANK8   BANK9  BANK10  BANK1
      +1  BANK12  BANK13  BANK14  BANK15
 10062 ;;      Params:         0       0       0       0       0       0       0       0       0       0       0       0       
      +0       0       0       0       0
 10063 ;;      Locals:         0       0       0       0       0       0       0       0       0       0       0       0       
      +0       0       0       0       0
 10064 ;;      Temps:          0       0       0       0       0       0       0       0       0       0       0       0       
      +0       0       0       0       0
 10065 ;;      Totals:         0       0       0       0       0       0       0       0       0       0       0       0       
      +0       0       0       0       0
 10066 ;;Total ram usage:        0 bytes
 10067 ;; Hardware stack levels used: 1
 10068 ;; Hardware stack levels required when called: 2
 10069 ;; This function calls:
 10070 ;;		Absolute function
 10071 ;;		_ccp1_app_isr
 10072 ;; This function is called by:
 10073 ;;		_InterruptManager
 10074 ;; This function uses a non-reentrant model
 10075 ;;
 10076                           
 10077                           	psect	text55
 10078  0042C6                     __ptext55:
 10079                           	callstack 0
 10080  0042C6                     _CCP1_ISR:
 10081                           	callstack 18
 10082  0042C6                     
 10083                           ;MCAL_Layer/CCP1/hal_ccp1.c: 398:     (PIR1bits.CCP1IF = 0);
 10084  0042C6  949E               	bcf	158,2,c	;volatile
 10085  0042C8                     
 10086                           ;MCAL_Layer/CCP1/hal_ccp1.c: 399:     if(CCP1_InterruptHandler){
 10087  0042C8  0100               	movlb	0	; () banked
 10088  0042CA  5190               	movf	_CCP1_InterruptHandler& (0+255),w,b
 10089  0042CC  1191               	iorwf	(_CCP1_InterruptHandler+1)& (0+255),w,b
 10090  0042CE  B4D8               	btfsc	status,2,c
 10091  0042D0  EF6C  F021         	goto	i2u741_41
 10092  0042D4  EF6E  F021         	goto	i2u741_40
 10093  0042D8                     i2u741_41:
 10094  0042D8  EF7A  F021         	goto	i2l1600
 10095  0042DC                     i2u741_40:
 10096  0042DC                     
 10097                           ; BSR set to: 0
 10098                           ;MCAL_Layer/CCP1/hal_ccp1.c: 400:         CCP1_InterruptHandler();
 10099  0042DC  D802               	call	i2u742_48
 10100  0042DE  EF7A  F021         	goto	i2u742_49
 10101  0042E2                     i2u742_48:
 10102  0042E2  0005               	push	
 10103  0042E4  6EFA               	movwf	pclath,c
 10104  0042E6  5190               	movf	_CCP1_InterruptHandler& (0+255),w,b
 10105  0042E8  6EFD               	movwf	tosl,c
 10106  0042EA  5191               	movf	(_CCP1_InterruptHandler+1)& (0+255),w,b
 10107  0042EC  6EFE               	movwf	tosh,c
 10108  0042EE  6AFF               	clrf	tosu,c
 10109  0042F0  50FA               	movf	pclath,w,c
 10110  0042F2  0012               	return		;indir
 10111  0042F4                     i2u742_49:
 10112  0042F4                     i2l1600:
 10113  0042F4  0012               	return		;funcret
 10114  0042F6                     __end_of_CCP1_ISR:
 10115                           	callstack 0
 10116                           
 10117 ;; *************** function _ccp1_app_isr *****************
 10118 ;; Defined at:
 10119 ;;		line 131 in file "application.c"
 10120 ;; Parameters:    Size  Location     Type
 10121 ;;		None
 10122 ;; Auto vars:     Size  Location     Type
 10123 ;;		None
 10124 ;; Return value:  Size  Location     Type
 10125 ;;                  1    wreg      void 
 10126 ;; Registers used:
 10127 ;;		wreg, fsr2l, fsr2h, status,2, status,0, cstack
 10128 ;; Tracked objects:
 10129 ;;		On entry : 0/0
 10130 ;;		On exit  : 0/0
 10131 ;;		Unchanged: 0/0
 10132 ;; Data sizes:     COMRAM   BANK0   BANK1   BANK2   BANK3   BANK4   BANK5   BANK6   BANK7   BANK8   BANK9  BANK10  BANK1
      +1  BANK12  BANK13  BANK14  BANK15
 10133 ;;      Params:         0       0       0       0       0       0       0       0       0       0       0       0       
      +0       0       0       0       0
 10134 ;;      Locals:         0       0       0       0       0       0       0       0       0       0       0       0       
      +0       0       0       0       0
 10135 ;;      Temps:          0       0       0       0       0       0       0       0       0       0       0       0       
      +0       0       0       0       0
 10136 ;;      Totals:         0       0       0       0       0       0       0       0       0       0       0       0       
      +0       0       0       0       0
 10137 ;;Total ram usage:        0 bytes
 10138 ;; Hardware stack levels used: 1
 10139 ;; Hardware stack levels required when called: 1
 10140 ;; This function calls:
 10141 ;;		_hal_ccp_readCaptureValue
 10142 ;;		i2_hal_timer1_disable
 10143 ;;		i2_hal_timer1_enable
 10144 ;; This function is called by:
 10145 ;;		_CCP1_ISR
 10146 ;; This function uses a non-reentrant model
 10147 ;;
 10148                           
 10149                           	psect	text56
 10150  003DA4                     __ptext56:
 10151                           	callstack 0
 10152  003DA4                     _ccp1_app_isr:
 10153                           	callstack 18
 10154  003DA4                     
 10155                           ;application.c: 132:     second_edge_flag++;
 10156  003DA4  0100               	movlb	0	; () banked
 10157  003DA6  2BB8               	incf	_second_edge_flag& (0+255),f,b	;volatile
 10158  003DA8                     
 10159                           ; BSR set to: 0
 10160                           ;application.c: 133:     if(st_en_flag == 0){
 10161  003DA8  506B               	movf	_st_en_flag^0,w,c	;volatile
 10162  003DAA  A4D8               	btfss	status,2,c
 10163  003DAC  EFDA  F01E         	goto	i2u623_41
 10164  003DB0  EFDC  F01E         	goto	i2u623_40
 10165  003DB4                     i2u623_41:
 10166  003DB4  EFEC  F01E         	goto	i2l7026
 10167  003DB8                     i2u623_40:
 10168  003DB8                     
 10169                           ; BSR set to: 0
 10170                           ;application.c: 134:         TMR1 = 0;
 10171  003DB8  0E00               	movlw	0
 10172  003DBA  6ECF               	movwf	207,c	;volatile
 10173  003DBC  0E00               	movlw	0
 10174  003DBE  6ECE               	movwf	206,c	;volatile
 10175                           
 10176                           ;application.c: 135:         start = 0;
 10177  003DC0  0E00               	movlw	0
 10178  003DC2  6F93               	movwf	(_start+1)& (0+255),b	;volatile
 10179  003DC4  0E00               	movlw	0
 10180  003DC6  6F92               	movwf	_start& (0+255),b	;volatile
 10181  003DC8                     
 10182                           ; BSR set to: 0
 10183                           ;application.c: 136:         hal_timer1_enable(&tmr1);
 10184  003DC8  0EDD               	movlw	low _tmr1
 10185  003DCA  6E01               	movwf	i2hal_timer1_enable@timer1^0,c
 10186  003DCC  0E00               	movlw	high _tmr1
 10187  003DCE  6E02               	movwf	(i2hal_timer1_enable@timer1+1)^0,c
 10188  003DD0  ECE8  F021         	call	i2_hal_timer1_enable	;wreg free
 10189                           
 10190                           ;application.c: 137:     }
 10191  003DD4  EF0C  F01F         	goto	i2l7036
 10192  003DD8                     i2l7026:
 10193                           
 10194                           ; BSR set to: 0
 10195  003DD8  046B               	decf	_st_en_flag^0,w,c	;volatile
 10196  003DDA  A4D8               	btfss	status,2,c
 10197  003DDC  EFF2  F01E         	goto	i2u624_41
 10198  003DE0  EFF4  F01E         	goto	i2u624_40
 10199  003DE4                     i2u624_41:
 10200  003DE4  EF0C  F01F         	goto	i2l7036
 10201  003DE8                     i2u624_40:
 10202  003DE8                     
 10203                           ; BSR set to: 0
 10204                           ;application.c: 139:         last_ovf = ovf;
 10205  003DE8  C096  F094         	movff	_ovf,_last_ovf	;volatile
 10206  003DEC  C097  F095         	movff	_ovf+1,_last_ovf+1	;volatile
 10207  003DF0                     
 10208                           ; BSR set to: 0
 10209                           ;application.c: 140:         ovf = 0;
 10210  003DF0  0E00               	movlw	0
 10211  003DF2  6F97               	movwf	(_ovf+1)& (0+255),b	;volatile
 10212  003DF4  0E00               	movlw	0
 10213  003DF6  6F96               	movwf	_ovf& (0+255),b	;volatile
 10214  003DF8                     
 10215                           ; BSR set to: 0
 10216                           ;application.c: 141:         hal_ccp_readCaptureValue(&ccp1obj,&end);
 10217  003DF8  0E0A               	movlw	low _ccp1obj
 10218  003DFA  6E01               	movwf	hal_ccp_readCaptureValue@ccpobj^0,c
 10219  003DFC  0E01               	movlw	high _ccp1obj
 10220  003DFE  6E02               	movwf	(hal_ccp_readCaptureValue@ccpobj+1)^0,c
 10221  003E00  0E6C               	movlw	low _end
 10222  003E02  6E03               	movwf	hal_ccp_readCaptureValue@value^0,c
 10223  003E04  0E00               	movlw	high _end
 10224  003E06  6E04               	movwf	(hal_ccp_readCaptureValue@value+1)^0,c
 10225  003E08  ECB2  F01D         	call	_hal_ccp_readCaptureValue	;wreg free
 10226  003E0C                     
 10227                           ;application.c: 142:         hal_timer1_disable(&tmr1);
 10228  003E0C  0EDD               	movlw	low _tmr1
 10229  003E0E  6E01               	movwf	i2hal_timer1_disable@timer1^0,c
 10230  003E10  0E00               	movlw	high _tmr1
 10231  003E12  6E02               	movwf	(i2hal_timer1_disable@timer1+1)^0,c
 10232  003E14  ECF5  F021         	call	i2_hal_timer1_disable	;wreg free
 10233  003E18                     i2l7036:
 10234                           
 10235                           ;application.c: 144:     st_en_flag ^= 1;
 10236  003E18  0E01               	movlw	1
 10237  003E1A  1A6B               	xorwf	_st_en_flag^0,f,c	;volatile
 10238  003E1C  0012               	return		;funcret
 10239  003E1E                     __end_of_ccp1_app_isr:
 10240                           	callstack 0
 10241                           
 10242 ;; *************** function i2_hal_timer1_enable *****************
 10243 ;; Defined at:
 10244 ;;		line 292 in file "MCAL_Layer/Timer1/hal_timer1.c"
 10245 ;; Parameters:    Size  Location     Type
 10246 ;;  timer1          2    0[COMRAM] PTR const struct .
 10247 ;;		 -> tmr1(7), 
 10248 ;; Auto vars:     Size  Location     Type
 10249 ;;  status          1    0        unsigned char 
 10250 ;; Return value:  Size  Location     Type
 10251 ;;                  1    wreg      unsigned char 
 10252 ;; Registers used:
 10253 ;;		wreg, status,2, status,0
 10254 ;; Tracked objects:
 10255 ;;		On entry : 0/0
 10256 ;;		On exit  : 0/0
 10257 ;;		Unchanged: 0/0
 10258 ;; Data sizes:     COMRAM   BANK0   BANK1   BANK2   BANK3   BANK4   BANK5   BANK6   BANK7   BANK8   BANK9  BANK10  BANK1
      +1  BANK12  BANK13  BANK14  BANK15
 10259 ;;      Params:         2       0       0       0       0       0       0       0       0       0       0       0       
      +0       0       0       0       0
 10260 ;;      Locals:         0       0       0       0       0       0       0       0       0       0       0       0       
      +0       0       0       0       0
 10261 ;;      Temps:          0       0       0       0       0       0       0       0       0       0       0       0       
      +0       0       0       0       0
 10262 ;;      Totals:         2       0       0       0       0       0       0       0       0       0       0       0       
      +0       0       0       0       0
 10263 ;;Total ram usage:        2 bytes
 10264 ;; Hardware stack levels used: 1
 10265 ;; This function calls:
 10266 ;;		Nothing
 10267 ;; This function is called by:
 10268 ;;		_ccp1_app_isr
 10269 ;; This function uses a non-reentrant model
 10270 ;;
 10271                           
 10272                           	psect	text57
 10273  0043D0                     __ptext57:
 10274                           	callstack 0
 10275  0043D0                     i2_hal_timer1_enable:
 10276                           	callstack 18
 10277  0043D0                     
 10278                           ;MCAL_Layer/Timer1/hal_timer1.c: 294:     if(timer1 != ((void*)0)){
 10279  0043D0  5001               	movf	i2hal_timer1_enable@timer1^0,w,c
 10280  0043D2  1002               	iorwf	(i2hal_timer1_enable@timer1+1)^0,w,c
 10281  0043D4  B4D8               	btfsc	status,2,c
 10282  0043D6  EFEF  F021         	goto	i2u579_41
 10283  0043DA  EFF1  F021         	goto	i2u579_40
 10284  0043DE                     i2u579_41:
 10285  0043DE  EFF4  F021         	goto	i2l6686
 10286  0043E2                     i2u579_40:
 10287  0043E2                     
 10288                           ;MCAL_Layer/Timer1/hal_timer1.c: 295:         (T1CONbits.TMR1ON = 1);
 10289  0043E2  80CD               	bsf	205,0,c	;volatile
 10290                           
 10291                           ;MCAL_Layer/Timer1/hal_timer1.c: 296:     }
 10292  0043E4  EFF4  F021         	goto	i2l1167
 10293  0043E8                     i2l6686:
 10294  0043E8                     i2l1167:
 10295  0043E8  0012               	return		;funcret
 10296  0043EA                     __end_ofi2_hal_timer1_enable:
 10297                           	callstack 0
 10298                           
 10299 ;; *************** function i2_hal_timer1_disable *****************
 10300 ;; Defined at:
 10301 ;;		line 307 in file "MCAL_Layer/Timer1/hal_timer1.c"
 10302 ;; Parameters:    Size  Location     Type
 10303 ;;  timer1          2    0[COMRAM] PTR const struct .
 10304 ;;		 -> tmr1(7), 
 10305 ;; Auto vars:     Size  Location     Type
 10306 ;;  status          1    0        unsigned char 
 10307 ;; Return value:  Size  Location     Type
 10308 ;;                  1    wreg      unsigned char 
 10309 ;; Registers used:
 10310 ;;		wreg, status,2, status,0
 10311 ;; Tracked objects:
 10312 ;;		On entry : 0/0
 10313 ;;		On exit  : 0/0
 10314 ;;		Unchanged: 0/0
 10315 ;; Data sizes:     COMRAM   BANK0   BANK1   BANK2   BANK3   BANK4   BANK5   BANK6   BANK7   BANK8   BANK9  BANK10  BANK1
      +1  BANK12  BANK13  BANK14  BANK15
 10316 ;;      Params:         2       0       0       0       0       0       0       0       0       0       0       0       
      +0       0       0       0       0
 10317 ;;      Locals:         0       0       0       0       0       0       0       0       0       0       0       0       
      +0       0       0       0       0
 10318 ;;      Temps:          0       0       0       0       0       0       0       0       0       0       0       0       
      +0       0       0       0       0
 10319 ;;      Totals:         2       0       0       0       0       0       0       0       0       0       0       0       
      +0       0       0       0       0
 10320 ;;Total ram usage:        2 bytes
 10321 ;; Hardware stack levels used: 1
 10322 ;; This function calls:
 10323 ;;		Nothing
 10324 ;; This function is called by:
 10325 ;;		_ccp1_app_isr
 10326 ;; This function uses a non-reentrant model
 10327 ;;
 10328                           
 10329                           	psect	text58
 10330  0043EA                     __ptext58:
 10331                           	callstack 0
 10332  0043EA                     i2_hal_timer1_disable:
 10333                           	callstack 18
 10334  0043EA                     
 10335                           ;MCAL_Layer/Timer1/hal_timer1.c: 309:     if(timer1 != ((void*)0)){
 10336  0043EA  5001               	movf	i2hal_timer1_disable@timer1^0,w,c
 10337  0043EC  1002               	iorwf	(i2hal_timer1_disable@timer1+1)^0,w,c
 10338  0043EE  B4D8               	btfsc	status,2,c
 10339  0043F0  EFFC  F021         	goto	i2u580_41
 10340  0043F4  EFFE  F021         	goto	i2u580_40
 10341  0043F8                     i2u580_41:
 10342  0043F8  EF01  F022         	goto	i2l6696
 10343  0043FC                     i2u580_40:
 10344  0043FC                     
 10345                           ;MCAL_Layer/Timer1/hal_timer1.c: 310:         (T1CONbits.TMR1ON = 0);
 10346  0043FC  90CD               	bcf	205,0,c	;volatile
 10347                           
 10348                           ;MCAL_Layer/Timer1/hal_timer1.c: 311:     }
 10349  0043FE  EF01  F022         	goto	i2l1172
 10350  004402                     i2l6696:
 10351  004402                     i2l1172:
 10352  004402  0012               	return		;funcret
 10353  004404                     __end_ofi2_hal_timer1_disable:
 10354                           	callstack 0
 10355                           
 10356 ;; *************** function _hal_ccp_readCaptureValue *****************
 10357 ;; Defined at:
 10358 ;;		line 264 in file "MCAL_Layer/CCP1/hal_ccp1.c"
 10359 ;; Parameters:    Size  Location     Type
 10360 ;;  ccpobj          2    0[COMRAM] PTR const struct .
 10361 ;;		 -> ccp1obj(16), 
 10362 ;;  value           2    2[COMRAM] PTR unsigned short 
 10363 ;;		 -> end(2), 
 10364 ;; Auto vars:     Size  Location     Type
 10365 ;;  ccpr_val        2    7[COMRAM] struct .
 10366 ;;  ccpr_val        2    5[COMRAM] struct .
 10367 ;;  status          1    0        unsigned char 
 10368 ;; Return value:  Size  Location     Type
 10369 ;;                  1    wreg      unsigned char 
 10370 ;; Registers used:
 10371 ;;		wreg, fsr2l, fsr2h, status,2, status,0
 10372 ;; Tracked objects:
 10373 ;;		On entry : 0/0
 10374 ;;		On exit  : 0/0
 10375 ;;		Unchanged: 0/0
 10376 ;; Data sizes:     COMRAM   BANK0   BANK1   BANK2   BANK3   BANK4   BANK5   BANK6   BANK7   BANK8   BANK9  BANK10  BANK1
      +1  BANK12  BANK13  BANK14  BANK15
 10377 ;;      Params:         4       0       0       0       0       0       0       0       0       0       0       0       
      +0       0       0       0       0
 10378 ;;      Locals:         4       0       0       0       0       0       0       0       0       0       0       0       
      +0       0       0       0       0
 10379 ;;      Temps:          1       0       0       0       0       0       0       0       0       0       0       0       
      +0       0       0       0       0
 10380 ;;      Totals:         9       0       0       0       0       0       0       0       0       0       0       0       
      +0       0       0       0       0
 10381 ;;Total ram usage:        9 bytes
 10382 ;; Hardware stack levels used: 1
 10383 ;; This function calls:
 10384 ;;		Nothing
 10385 ;; This function is called by:
 10386 ;;		_ccp1_app_isr
 10387 ;; This function uses a non-reentrant model
 10388 ;;
 10389                           
 10390                           	psect	text59
 10391  003B64                     __ptext59:
 10392                           	callstack 0
 10393  003B64                     _hal_ccp_readCaptureValue:
 10394                           	callstack 18
 10395  003B64                     
 10396                           ;MCAL_Layer/CCP1/hal_ccp1.c: 266:     if(ccpobj != ((void*)0) && value != ((void*)0)){
 10397  003B64  5001               	movf	hal_ccp_readCaptureValue@ccpobj^0,w,c
 10398  003B66  1002               	iorwf	(hal_ccp_readCaptureValue@ccpobj+1)^0,w,c
 10399  003B68  B4D8               	btfsc	status,2,c
 10400  003B6A  EFB9  F01D         	goto	i2u574_41
 10401  003B6E  EFBB  F01D         	goto	i2u574_40
 10402  003B72                     i2u574_41:
 10403  003B72  EFFC  F01D         	goto	i2l6666
 10404  003B76                     i2u574_40:
 10405  003B76  5003               	movf	hal_ccp_readCaptureValue@value^0,w,c
 10406  003B78  1004               	iorwf	(hal_ccp_readCaptureValue@value+1)^0,w,c
 10407  003B7A  B4D8               	btfsc	status,2,c
 10408  003B7C  EFC2  F01D         	goto	i2u575_41
 10409  003B80  EFC4  F01D         	goto	i2u575_40
 10410  003B84                     i2u575_41:
 10411  003B84  EFFC  F01D         	goto	i2l6666
 10412  003B88                     i2u575_40:
 10413  003B88                     
 10414                           ;MCAL_Layer/CCP1/hal_ccp1.c: 267:         if(ccpobj->cpp_instance == ((uint8_t)0)){
 10415  003B88  EE20 F006          	lfsr	2,6
 10416  003B8C  5001               	movf	hal_ccp_readCaptureValue@ccpobj^0,w,c
 10417  003B8E  26D9               	addwf	fsr2l,f,c
 10418  003B90  5002               	movf	(hal_ccp_readCaptureValue@ccpobj+1)^0,w,c
 10419  003B92  22DA               	addwfc	fsr2h,f,c
 10420  003B94  50DF               	movf	indf2,w,c
 10421  003B96  A4D8               	btfss	status,2,c
 10422  003B98  EFD0  F01D         	goto	i2u576_41
 10423  003B9C  EFD2  F01D         	goto	i2u576_40
 10424  003BA0                     i2u576_41:
 10425  003BA0  EFE0  F01D         	goto	i2l6660
 10426  003BA4                     i2u576_40:
 10427  003BA4                     
 10428                           ;MCAL_Layer/CCP1/hal_ccp1.c: 268:             CCPR_Reg_t ccpr_val;;MCAL_Layer/CCP1/hal_c
      +                          cp1.c: 269:             ccpr_val.ccprL = CCPR1L;
 10429  003BA4  CFBE F006          	movff	4030,hal_ccp_readCaptureValue@ccpr_val	;volatile
 10430                           
 10431                           ;MCAL_Layer/CCP1/hal_ccp1.c: 270:             ccpr_val.ccprH = CCPR1H;
 10432  003BA8  CFBF F007          	movff	4031,hal_ccp_readCaptureValue@ccpr_val+1	;volatile
 10433  003BAC                     
 10434                           ;MCAL_Layer/CCP1/hal_ccp1.c: 271:             *value = ccpr_val.ccpr_Reg;
 10435  003BAC  C003  FFD9         	movff	hal_ccp_readCaptureValue@value,fsr2l
 10436  003BB0  C004  FFDA         	movff	hal_ccp_readCaptureValue@value+1,fsr2h
 10437  003BB4  C006  FFDE         	movff	hal_ccp_readCaptureValue@ccpr_val,postinc2
 10438  003BB8  C007  FFDD         	movff	hal_ccp_readCaptureValue@ccpr_val+1,postdec2
 10439                           
 10440                           ;MCAL_Layer/CCP1/hal_ccp1.c: 272:         }
 10441  003BBC  EFFC  F01D         	goto	i2l1558
 10442  003BC0                     i2l6660:
 10443  003BC0  EE20 F006          	lfsr	2,6
 10444  003BC4  5001               	movf	hal_ccp_readCaptureValue@ccpobj^0,w,c
 10445  003BC6  26D9               	addwf	fsr2l,f,c
 10446  003BC8  5002               	movf	(hal_ccp_readCaptureValue@ccpobj+1)^0,w,c
 10447  003BCA  22DA               	addwfc	fsr2h,f,c
 10448  003BCC  04DE               	decf	postinc2,w,c
 10449  003BCE  A4D8               	btfss	status,2,c
 10450  003BD0  EFEC  F01D         	goto	i2u577_41
 10451  003BD4  EFEE  F01D         	goto	i2u577_40
 10452  003BD8                     i2u577_41:
 10453  003BD8  EFFC  F01D         	goto	i2l6666
 10454  003BDC                     i2u577_40:
 10455  003BDC                     
 10456                           ;MCAL_Layer/CCP1/hal_ccp1.c: 274:             CCPR_Reg_t ccpr_val;;MCAL_Layer/CCP1/hal_c
      +                          cp1.c: 275:             ccpr_val.ccprL = CCPR2L;
 10457  003BDC  CFBB F008          	movff	4027,hal_ccp_readCaptureValue@ccpr_val_3553	;volatile
 10458                           
 10459                           ;MCAL_Layer/CCP1/hal_ccp1.c: 276:             ccpr_val.ccprH = CCPR2H;
 10460  003BE0  CFBC F009          	movff	4028,hal_ccp_readCaptureValue@ccpr_val_3553+1	;volatile
 10461  003BE4                     
 10462                           ;MCAL_Layer/CCP1/hal_ccp1.c: 277:             *value = ccpr_val.ccpr_Reg;
 10463  003BE4  C003  FFD9         	movff	hal_ccp_readCaptureValue@value,fsr2l
 10464  003BE8  C004  FFDA         	movff	hal_ccp_readCaptureValue@value+1,fsr2h
 10465  003BEC  C008  FFDE         	movff	hal_ccp_readCaptureValue@ccpr_val_3553,postinc2
 10466  003BF0  C009  FFDD         	movff	hal_ccp_readCaptureValue@ccpr_val_3553+1,postdec2
 10467                           
 10468                           ;MCAL_Layer/CCP1/hal_ccp1.c: 278:         }
 10469  003BF4  EFFC  F01D         	goto	i2l1558
 10470  003BF8                     i2l6666:
 10471  003BF8                     i2l1558:
 10472  003BF8  0012               	return		;funcret
 10473  003BFA                     __end_of_hal_ccp_readCaptureValue:
 10474                           	callstack 0
 10475                           
 10476 ;; *************** function _ADC_ISR *****************
 10477 ;; Defined at:
 10478 ;;		line 196 in file "MCAL_Layer/ADC/hal_adc.c"
 10479 ;; Parameters:    Size  Location     Type
 10480 ;;		None
 10481 ;; Auto vars:     Size  Location     Type
 10482 ;;		None
 10483 ;; Return value:  Size  Location     Type
 10484 ;;                  1    wreg      void 
 10485 ;; Registers used:
 10486 ;;		None
 10487 ;; Tracked objects:
 10488 ;;		On entry : 0/0
 10489 ;;		On exit  : 0/0
 10490 ;;		Unchanged: 0/0
 10491 ;; Data sizes:     COMRAM   BANK0   BANK1   BANK2   BANK3   BANK4   BANK5   BANK6   BANK7   BANK8   BANK9  BANK10  BANK1
      +1  BANK12  BANK13  BANK14  BANK15
 10492 ;;      Params:         0       0       0       0       0       0       0       0       0       0       0       0       
      +0       0       0       0       0
 10493 ;;      Locals:         0       0       0       0       0       0       0       0       0       0       0       0       
      +0       0       0       0       0
 10494 ;;      Temps:          0       0       0       0       0       0       0       0       0       0       0       0       
      +0       0       0       0       0
 10495 ;;      Totals:         0       0       0       0       0       0       0       0       0       0       0       0       
      +0       0       0       0       0
 10496 ;;Total ram usage:        0 bytes
 10497 ;; Hardware stack levels used: 1
 10498 ;; This function calls:
 10499 ;;		Nothing
 10500 ;; This function is called by:
 10501 ;;		_InterruptManager
 10502 ;; This function uses a non-reentrant model
 10503 ;;
 10504                           
 10505                           	psect	text60
 10506  004438                     __ptext60:
 10507                           	callstack 0
 10508  004438                     _ADC_ISR:
 10509                           	callstack 20
 10510  004438                     
 10511                           ;MCAL_Layer/ADC/hal_adc.c: 197:     (PIR1bits.ADIF = 0);
 10512  004438  9C9E               	bcf	158,6,c	;volatile
 10513  00443A  0012               	return		;funcret
 10514  00443C                     __end_of_ADC_ISR:
 10515                           	callstack 0
 10516                           
 10517                           	psect	text61
 10518  000000                     __ptext61:
 10519                           	callstack 0
 10520  000000                     
 10521                           	psect	rparam
 10522  0000                     
 10523                           	psect	temp
 10524  000072                     btemp:
 10525                           	callstack 0
 10526  000072                     	ds	1
 10527  0000                     int$flags	set	btemp
 10528  0000                     wtemp8	set	btemp+1
 10529  0000                     ttemp5	set	btemp+1
 10530  0000                     ttemp6	set	btemp+4
 10531  0000                     ttemp7	set	btemp+8
 10532                           
 10533                           	psect	idloc
 10534                           
 10535                           ;Config register IDLOC0 @ 0x200000
 10536                           ;	unspecified, using default values
 10537  200000                     	org	2097152
 10538  200000  FF                 	db	255
 10539                           
 10540                           ;Config register IDLOC1 @ 0x200001
 10541                           ;	unspecified, using default values
 10542  200001                     	org	2097153
 10543  200001  FF                 	db	255
 10544                           
 10545                           ;Config register IDLOC2 @ 0x200002
 10546                           ;	unspecified, using default values
 10547  200002                     	org	2097154
 10548  200002  FF                 	db	255
 10549                           
 10550                           ;Config register IDLOC3 @ 0x200003
 10551                           ;	unspecified, using default values
 10552  200003                     	org	2097155
 10553  200003  FF                 	db	255
 10554                           
 10555                           ;Config register IDLOC4 @ 0x200004
 10556                           ;	unspecified, using default values
 10557  200004                     	org	2097156
 10558  200004  FF                 	db	255
 10559                           
 10560                           ;Config register IDLOC5 @ 0x200005
 10561                           ;	unspecified, using default values
 10562  200005                     	org	2097157
 10563  200005  FF                 	db	255
 10564                           
 10565                           ;Config register IDLOC6 @ 0x200006
 10566                           ;	unspecified, using default values
 10567  200006                     	org	2097158
 10568  200006  FF                 	db	255
 10569                           
 10570                           ;Config register IDLOC7 @ 0x200007
 10571                           ;	unspecified, using default values
 10572  200007                     	org	2097159
 10573  200007  FF                 	db	255
 10574                           
 10575                           	psect	config
 10576                           
 10577                           ; Padding undefined space
 10578  300000                     	org	3145728
 10579  300000  FF                 	db	255
 10580                           
 10581                           ;Config register CONFIG1H @ 0x300001
 10582                           ;	Oscillator Selection bits
 10583                           ;	OSC = HS, HS oscillator
 10584                           ;	Fail-Safe Clock Monitor Enable bit
 10585                           ;	FCMEN = OFF, Fail-Safe Clock Monitor disabled
 10586                           ;	Internal/External Oscillator Switchover bit
 10587                           ;	IESO = OFF, Oscillator Switchover mode disabled
 10588  300001                     	org	3145729
 10589  300001  02                 	db	2
 10590                           
 10591                           ;Config register CONFIG2L @ 0x300002
 10592                           ;	Power-up Timer Enable bit
 10593                           ;	PWRT = OFF, PWRT disabled
 10594                           ;	Brown-out Reset Enable bits
 10595                           ;	BOREN = OFF, Brown-out Reset disabled in hardware and software
 10596                           ;	Brown Out Reset Voltage bits
 10597                           ;	BORV = 1, 
 10598  300002                     	org	3145730
 10599  300002  09                 	db	9
 10600                           
 10601                           ;Config register CONFIG2H @ 0x300003
 10602                           ;	Watchdog Timer Enable bit
 10603                           ;	WDT = OFF, WDT disabled (control is placed on the SWDTEN bit)
 10604                           ;	Watchdog Timer Postscale Select bits
 10605                           ;	WDTPS = 32768, 1:32768
 10606  300003                     	org	3145731
 10607  300003  1E                 	db	30
 10608                           
 10609                           ; Padding undefined space
 10610  300004                     	org	3145732
 10611  300004  FF                 	db	255
 10612                           
 10613                           ;Config register CONFIG3H @ 0x300005
 10614                           ;	CCP2 MUX bit
 10615                           ;	CCP2MX = PORTC, CCP2 input/output is multiplexed with RC1
 10616                           ;	PORTB A/D Enable bit
 10617                           ;	PBADEN = OFF, PORTB<4:0> pins are configured as digital I/O on Reset
 10618                           ;	Low-Power Timer1 Oscillator Enable bit
 10619                           ;	LPT1OSC = OFF, Timer1 configured for higher power operation
 10620                           ;	MCLR Pin Enable bit
 10621                           ;	MCLRE = ON, MCLR pin enabled; RE3 input pin disabled
 10622  300005                     	org	3145733
 10623  300005  81                 	db	129
 10624                           
 10625                           ;Config register CONFIG4L @ 0x300006
 10626                           ;	Stack Full/Underflow Reset Enable bit
 10627                           ;	STVREN = ON, Stack full/underflow will cause Reset
 10628                           ;	Single-Supply ICSP Enable bit
 10629                           ;	LVP = OFF, Single-Supply ICSP disabled
 10630                           ;	Extended Instruction Set Enable bit
 10631                           ;	XINST = OFF, Instruction set extension and Indexed Addressing mode disabled (Legacy mo
      +                          de)
 10632                           ;	Background Debugger Enable bit
 10633                           ;	DEBUG = 0x1, unprogrammed default
 10634  300006                     	org	3145734
 10635  300006  81                 	db	129
 10636                           
 10637                           ; Padding undefined space
 10638  300007                     	org	3145735
 10639  300007  FF                 	db	255
 10640                           
 10641                           ;Config register CONFIG5L @ 0x300008
 10642                           ;	Code Protection bit
 10643                           ;	CP0 = OFF, Block 0 (000800-003FFFh) not code-protected
 10644                           ;	Code Protection bit
 10645                           ;	CP1 = OFF, Block 1 (004000-007FFFh) not code-protected
 10646                           ;	Code Protection bit
 10647                           ;	CP2 = OFF, Block 2 (008000-00BFFFh) not code-protected
 10648                           ;	Code Protection bit
 10649                           ;	CP3 = OFF, Block 3 (00C000-00FFFFh) not code-protected
 10650  300008                     	org	3145736
 10651  300008  0F                 	db	15
 10652                           
 10653                           ;Config register CONFIG5H @ 0x300009
 10654                           ;	Boot Block Code Protection bit
 10655                           ;	CPB = OFF, Boot block (000000-0007FFh) not code-protected
 10656                           ;	Data EEPROM Code Protection bit
 10657                           ;	CPD = OFF, Data EEPROM not code-protected
 10658  300009                     	org	3145737
 10659  300009  C0                 	db	192
 10660                           
 10661                           ;Config register CONFIG6L @ 0x30000A
 10662                           ;	Write Protection bit
 10663                           ;	WRT0 = OFF, Block 0 (000800-003FFFh) not write-protected
 10664                           ;	Write Protection bit
 10665                           ;	WRT1 = OFF, Block 1 (004000-007FFFh) not write-protected
 10666                           ;	Write Protection bit
 10667                           ;	WRT2 = OFF, Block 2 (008000-00BFFFh) not write-protected
 10668                           ;	Write Protection bit
 10669                           ;	WRT3 = OFF, Block 3 (00C000-00FFFFh) not write-protected
 10670  30000A                     	org	3145738
 10671  30000A  0F                 	db	15
 10672                           
 10673                           ;Config register CONFIG6H @ 0x30000B
 10674                           ;	Configuration Register Write Protection bit
 10675                           ;	WRTC = OFF, Configuration registers (300000-3000FFh) not write-protected
 10676                           ;	Boot Block Write Protection bit
 10677                           ;	WRTB = OFF, Boot Block (000000-0007FFh) not write-protected
 10678                           ;	Data EEPROM Write Protection bit
 10679                           ;	WRTD = OFF, Data EEPROM not write-protected
 10680  30000B                     	org	3145739
 10681  30000B  E0                 	db	224
 10682                           
 10683                           ;Config register CONFIG7L @ 0x30000C
 10684                           ;	Table Read Protection bit
 10685                           ;	EBTR0 = OFF, Block 0 (000800-003FFFh) not protected from table reads executed in other
      +                           blocks
 10686                           ;	Table Read Protection bit
 10687                           ;	EBTR1 = OFF, Block 1 (004000-007FFFh) not protected from table reads executed in other
      +                           blocks
 10688                           ;	Table Read Protection bit
 10689                           ;	EBTR2 = OFF, Block 2 (008000-00BFFFh) not protected from table reads executed in other
      +                           blocks
 10690                           ;	Table Read Protection bit
 10691                           ;	EBTR3 = OFF, Block 3 (00C000-00FFFFh) not protected from table reads executed in other
      +                           blocks
 10692  30000C                     	org	3145740
 10693  30000C  0F                 	db	15
 10694                           
 10695                           ;Config register CONFIG7H @ 0x30000D
 10696                           ;	Boot Block Table Read Protection bit
 10697                           ;	EBTRB = OFF, Boot Block (000000-0007FFh) not protected from table reads executed in ot
      +                          her blocks
 10698  30000D                     	org	3145741
 10699  30000D  40                 	db	64
 10700                           tosu	equ	0xFFF
 10701                           tosh	equ	0xFFE
 10702                           tosl	equ	0xFFD
 10703                           stkptr	equ	0xFFC
 10704                           pclatu	equ	0xFFB
 10705                           pclath	equ	0xFFA
 10706                           pcl	equ	0xFF9
 10707                           tblptru	equ	0xFF8
 10708                           tblptrh	equ	0xFF7
 10709                           tblptrl	equ	0xFF6
 10710                           tablat	equ	0xFF5
 10711                           prodh	equ	0xFF4
 10712                           prodl	equ	0xFF3
 10713                           indf0	equ	0xFEF
 10714                           postinc0	equ	0xFEE
 10715                           postdec0	equ	0xFED
 10716                           preinc0	equ	0xFEC
 10717                           plusw0	equ	0xFEB
 10718                           fsr0h	equ	0xFEA
 10719                           fsr0l	equ	0xFE9
 10720                           wreg	equ	0xFE8
 10721                           indf1	equ	0xFE7
 10722                           postinc1	equ	0xFE6
 10723                           postdec1	equ	0xFE5
 10724                           preinc1	equ	0xFE4
 10725                           plusw1	equ	0xFE3
 10726                           fsr1h	equ	0xFE2
 10727                           fsr1l	equ	0xFE1
 10728                           bsr	equ	0xFE0
 10729                           indf2	equ	0xFDF
 10730                           postinc2	equ	0xFDE
 10731                           postdec2	equ	0xFDD
 10732                           preinc2	equ	0xFDC
 10733                           plusw2	equ	0xFDB
 10734                           fsr2h	equ	0xFDA
 10735                           fsr2l	equ	0xFD9
 10736                           status	equ	0xFD8

Data Sizes:
    Strings     13
    Constant    16
    Data        88
    BSS         110
    Persistent  0
    Stack       0

Auto Spaces:
    Space          Size  Autos    Used
    COMRAM          126    100     113
    BANK0           128     26     127
    BANK1           256     12      96
    BANK2           256      0       0
    BANK3           256      0       0
    BANK4           256      0       0
    BANK5           256      0       0
    BANK6           256      0       0
    BANK7           256      0       0
    BANK8           256      0       0
    BANK9           256      0       0
    BANK10          256      0       0
    BANK11          256      0       0
    BANK12          256      0       0
    BANK13          256      0       0
    BANK14          256      0       0
    BANK15          128      0       0

Pointer List with Targets:

    strlen@s	PTR const unsigned char  size(2) Largest target is 32
		 -> dbuf(BANK1[32]), 

    strlen@a	PTR const unsigned char  size(2) Largest target is 32
		 -> dbuf(BANK1[32]), 

    fputs@s	PTR const unsigned char  size(2) Largest target is 32
		 -> dbuf(BANK1[32]), 

    fputs@fp	PTR struct _IO_FILE size(2) Largest target is 11
		 -> sprintf@f(BANK0[11]), 

    fputc@fp...source	PTR const unsigned char  size(2) Largest target is 0

    fputc@fp...buffer	PTR unsigned char  size(2) Largest target is 0

    fputc@fp	PTR struct _IO_FILE size(2) Largest target is 11
		 -> sprintf@f(BANK0[11]), 

    vfprintf@ap	PTR PTR void  size(2) Largest target is 2
		 -> sprintf@ap(BANK0[2]), 

    vfprintf@fp	PTR struct _IO_FILE size(2) Largest target is 11
		 -> sprintf@f(BANK0[11]), 

    vfprintf@fmt	PTR const unsigned char  size(2) Largest target is 3
		 -> STR_3(CODE[3]), STR_2(CODE[3]), STR_1(CODE[3]), 

    vfprintf@cfmt	PTR unsigned char  size(2) Largest target is 3
		 -> STR_3(CODE[3]), STR_2(CODE[3]), STR_1(CODE[3]), 

    vfpfcnvrt@fp	PTR struct _IO_FILE size(2) Largest target is 11
		 -> sprintf@f(BANK0[11]), 

    vfpfcnvrt@ap	PTR PTR void  size(2) Largest target is 2
		 -> sprintf@ap(BANK0[2]), 

    vfpfcnvrt@fmt	PTR PTR unsigned char  size(2) Largest target is 2
		 -> vfprintf@cfmt(COMRAM[2]), 

    dtoa@fp	PTR struct _IO_FILE size(2) Largest target is 11
		 -> sprintf@f(BANK0[11]), 

    pad@fp	PTR struct _IO_FILE size(2) Largest target is 11
		 -> sprintf@f(BANK0[11]), 

    pad@buf	PTR unsigned char  size(2) Largest target is 32
		 -> dbuf(BANK1[32]), 

    sprintf@fmt	PTR const unsigned char  size(2) Largest target is 3
		 -> STR_3(CODE[3]), STR_2(CODE[3]), STR_1(CODE[3]), 

    sprintf@s	PTR unsigned char  size(2) Largest target is 4
		 -> main@arr(BANK1[4]), 

    sprintf@ap	PTR void [1] size(2) Largest target is 2
		 -> ?_sprintf(BANK0[2]), 

    S4093$source	PTR const unsigned char  size(2) Largest target is 0

    f...source	PTR const unsigned char  size(2) Largest target is 0

    S4093$buffer	PTR unsigned char  size(2) Largest target is 0

    f...buffer	PTR unsigned char  size(2) Largest target is 0

    memset@dest	PTR void  size(2) Largest target is 4
		 -> main@arr(BANK1[4]), 

    memset@s	PTR unsigned char  size(2) Largest target is 4
		 -> main@arr(BANK1[4]), 

    hal_ccp_PWMStop@ccpobj.CCP2_Handler	PTR FTN()void  size(2) Largest target is 1
		 -> Absolute function(), 

    hal_ccp_PWMStop@ccpobj.CCP1_Handler	PTR FTN()void  size(2) Largest target is 1
		 -> ccp1_app_isr(), 

    hal_ccp_PWMStart@ccpobj.CCP2_Handler	PTR FTN()void  size(2) Largest target is 1
		 -> Absolute function(), 

    hal_ccp_PWMStart@ccpobj.CCP1_Handler	PTR FTN()void  size(2) Largest target is 1
		 -> ccp1_app_isr(), 

    hal_ccp_setPWMDuty@ccpobj.CCP2_Handler	PTR FTN()void  size(2) Largest target is 1
		 -> Absolute function(), 

    hal_ccp_setPWMDuty@ccpobj.CCP1_Handler	PTR FTN()void  size(2) Largest target is 1
		 -> ccp1_app_isr(), 

    hal_ccp_compareModeSetValue@ccpobj.CCP2_Handler	PTR FTN()void  size(2) Largest target is 1
		 -> Absolute function(), 

    hal_ccp_compareModeSetValue@ccpobj.CCP1_Handler	PTR FTN()void  size(2) Largest target is 1
		 -> ccp1_app_isr(), 

    hal_ccp_isCompareComplete@ccpobj.CCP2_Handler	PTR FTN()void  size(2) Largest target is 1
		 -> Absolute function(), 

    hal_ccp_isCompareComplete@ccpobj.CCP1_Handler	PTR FTN()void  size(2) Largest target is 1
		 -> ccp1_app_isr(), 

    hal_ccp_readCaptureValue@ccpobj.CCP2_Handler	PTR FTN()void  size(2) Largest target is 1
		 -> Absolute function(), 

    hal_ccp_readCaptureValue@ccpobj.CCP1_Handler	PTR FTN()void  size(2) Largest target is 1
		 -> ccp1_app_isr(), 

    hal_ccp_readCaptureValue@value	PTR unsigned short  size(2) Largest target is 2
		 -> end(COMRAM[2]), 

    hal_ccp_readCaptureValue@ccpobj	PTR const struct . size(2) Largest target is 16
		 -> ccp1obj(BANK1[16]), 

    hal_ccp_isCaptureReady@ccpobj.CCP2_Handler	PTR FTN()void  size(2) Largest target is 1
		 -> Absolute function(), 

    hal_ccp_isCaptureReady@ccpobj.CCP1_Handler	PTR FTN()void  size(2) Largest target is 1
		 -> ccp1_app_isr(), 

    hal_ccp_deinit@ccpobj.CCP2_Handler	PTR FTN()void  size(2) Largest target is 1
		 -> Absolute function(), 

    hal_ccp_deinit@ccpobj.CCP1_Handler	PTR FTN()void  size(2) Largest target is 1
		 -> ccp1_app_isr(), 

    CCP2_InterruptHandler	PTR FTN()void  size(2) Largest target is 1
		 -> Absolute function(), 

    CCP1_InterruptHandler	PTR FTN()void  size(2) Largest target is 1
		 -> ccp1_app_isr(), Absolute function(), 

    hal_ccp_init@ccpobj.CCP2_Handler	PTR FTN()void  size(2) Largest target is 1
		 -> Absolute function(), 

    hal_ccp_init@ccpobj.CCP1_Handler	PTR FTN()void  size(2) Largest target is 1
		 -> ccp1_app_isr(), 

    hal_ccp_init@ccpobj	PTR const struct . size(2) Largest target is 16
		 -> ccp1obj(BANK1[16]), 

    tmr1.TMR1_Handler	PTR FTN()void  size(2) Largest target is 1
		 -> timer1_app_isr(), 

    S3123$CCP2_Handler	PTR FTN()void  size(2) Largest target is 1
		 -> Absolute function(), 

    ccp1obj.CCP2_Handler	PTR FTN()void  size(2) Largest target is 1
		 -> Absolute function(), 

    S3123$CCP1_Handler	PTR FTN()void  size(2) Largest target is 1
		 -> ccp1_app_isr(), 

    ccp1obj.CCP1_Handler	PTR FTN()void  size(2) Largest target is 1
		 -> ccp1_app_isr(), 

    hal_timer3_interrupt_handler_init@timer3.TMR3_Handler	PTR FTN()void  size(2) Largest target is 0

    TMR3_InterruptHandler	PTR FTN()void  size(2) Largest target is 1
		 -> Absolute function(), 

    hal_timer3_set_prescaler@timer3.TMR3_Handler	PTR FTN()void  size(2) Largest target is 0

    hal_timer3_rw_8bit_16bit_mode@timer3.TMR3_Handler	PTR FTN()void  size(2) Largest target is 0

    hal_timer3_synchronize_external_clock@timer3.TMR3_Handler	PTR FTN()void  size(2) Largest target is 0

    hal_timer3_select_clock_source@timer3.TMR3_Handler	PTR FTN()void  size(2) Largest target is 0

    hal_timer3_write_value@timer3.TMR3_Handler	PTR FTN()void  size(2) Largest target is 0

    hal_timer3_read_value@timer3.TMR3_Handler	PTR FTN()void  size(2) Largest target is 0

    S2786$TMR3_Handler	PTR FTN()void  size(2) Largest target is 0

    hal_timer3_initialize@timer3.TMR3_Handler	PTR FTN()void  size(2) Largest target is 0

    hal_timer2_interrupt_handler_init@timer2.TMR2_Handler	PTR FTN()void  size(2) Largest target is 0

    TMR2_InterruptHandler	PTR FTN()void  size(2) Largest target is 1
		 -> Absolute function(), 

    S2635$TMR2_Handler	PTR FTN()void  size(2) Largest target is 0

    hal_timer2_initialize@timer2.TMR2_Handler	PTR FTN()void  size(2) Largest target is 0

    hal_timer1_interrupt_handler_init@timer1.TMR1_Handler	PTR FTN()void  size(2) Largest target is 1
		 -> timer1_app_isr(), 

    TMR1_InterruptHandler	PTR FTN()void  size(2) Largest target is 1
		 -> timer1_app_isr(), Absolute function(), 

    hal_timer1_interrupt_handler_init@timer1	PTR const struct . size(2) Largest target is 7
		 -> tmr1(BANK0[7]), 

    hal_timer1_disable@timer1	PTR const struct . size(2) Largest target is 7
		 -> tmr1(BANK0[7]), 

    hal_timer1_enable@timer1	PTR const struct . size(2) Largest target is 7
		 -> tmr1(BANK0[7]), 

    hal_timer1_interrupt_enable@timer1	PTR const struct . size(2) Largest target is 7
		 -> tmr1(BANK0[7]), 

    hal_timer1_config_timer1_oscillator@timer1.TMR1_Handler	PTR FTN()void  size(2) Largest target is 1
		 -> timer1_app_isr(), 

    hal_timer1_config_timer1_oscillator@timer1	PTR const struct . size(2) Largest target is 7
		 -> tmr1(BANK0[7]), 

    hal_timer1_set_prescaler@timer1.TMR1_Handler	PTR FTN()void  size(2) Largest target is 1
		 -> timer1_app_isr(), 

    hal_timer1_set_prescaler@timer1	PTR const struct . size(2) Largest target is 7
		 -> tmr1(BANK0[7]), 

    hal_timer1_rw_8bit_16bit_mode@timer1.TMR1_Handler	PTR FTN()void  size(2) Largest target is 1
		 -> timer1_app_isr(), 

    hal_timer1_rw_8bit_16bit_mode@timer1	PTR const struct . size(2) Largest target is 7
		 -> tmr1(BANK0[7]), 

    hal_timer1_synchronize_external_clock@timer1.TMR1_Handler	PTR FTN()void  size(2) Largest target is 1
		 -> timer1_app_isr(), 

    hal_timer1_synchronize_external_clock@timer1	PTR const struct . size(2) Largest target is 7
		 -> tmr1(BANK0[7]), 

    hal_timer1_select_clock_source@timer1.TMR1_Handler	PTR FTN()void  size(2) Largest target is 1
		 -> timer1_app_isr(), 

    hal_timer1_select_clock_source@timer1	PTR const struct . size(2) Largest target is 7
		 -> tmr1(BANK0[7]), 

    hal_timer1_write_value@timer1.TMR1_Handler	PTR FTN()void  size(2) Largest target is 1
		 -> timer1_app_isr(), 

    hal_timer1_write_value@timer1	PTR const struct . size(2) Largest target is 7
		 -> tmr1(BANK0[7]), 

    hal_timer1_read_value@timer1.TMR1_Handler	PTR FTN()void  size(2) Largest target is 1
		 -> timer1_app_isr(), 

    S2306$TMR1_Handler	PTR FTN()void  size(2) Largest target is 1
		 -> timer1_app_isr(), 

    hal_timer1_initialize@timer1.TMR1_Handler	PTR FTN()void  size(2) Largest target is 1
		 -> timer1_app_isr(), 

    hal_timer1_initialize@timer1	PTR const struct . size(2) Largest target is 7
		 -> tmr1(BANK0[7]), 

    hal_timer0_interrupt_handler_init@timer0.TMR0_Handler	PTR FTN()void  size(2) Largest target is 0

    TMR0_InterruptHandler	PTR FTN()void  size(2) Largest target is 1
		 -> Absolute function(), 

    hal_timer0_set_prescaler_value@timer0.TMR0_Handler	PTR FTN()void  size(2) Largest target is 0

    hal_timer0_disable_prescaler@timer0.TMR0_Handler	PTR FTN()void  size(2) Largest target is 0

    hal_timer0_enable_prescaler@timer0.TMR0_Handler	PTR FTN()void  size(2) Largest target is 0

    hal_timer0_select_8bit_or_16bit_mode@timer0.TMR0_Handler	PTR FTN()void  size(2) Largest target is 0

    hal_timer0_select_edge_increment@timer0.TMR0_Handler	PTR FTN()void  size(2) Largest target is 0

    hal_timer0_select_clock_source@timer0.TMR0_Handler	PTR FTN()void  size(2) Largest target is 0

    S2062$TMR0_Handler	PTR FTN()void  size(2) Largest target is 0

    hal_timer0_initialize@timer0.TMR0_Handler	PTR FTN()void  size(2) Largest target is 0

    RB7_InterruptHandler_Low	PTR FTN()void  size(2) Largest target is 1
		 -> Absolute function(), 

    RB7_InterruptHandler_High	PTR FTN()void  size(2) Largest target is 1
		 -> Absolute function(), 

    RB6_InterruptHandler_Low	PTR FTN()void  size(2) Largest target is 1
		 -> Absolute function(), 

    RB6_InterruptHandler_High	PTR FTN()void  size(2) Largest target is 1
		 -> Absolute function(), 

    RB5_InterruptHandler_Low	PTR FTN()void  size(2) Largest target is 1
		 -> Absolute function(), 

    RB5_InterruptHandler_High	PTR FTN()void  size(2) Largest target is 1
		 -> Absolute function(), 

    RB4_InterruptHandler_Low	PTR FTN()void  size(2) Largest target is 1
		 -> Absolute function(), 

    RB4_InterruptHandler_High	PTR FTN()void  size(2) Largest target is 1
		 -> Absolute function(), 

    Interrupt_RBx_SetInterruptHandler@int_obj.EXT_InterruptHandler_Low	PTR FTN()void  size(2) Largest target is 0

    Interrupt_RBx_SetInterruptHandler@int_obj.EXT_InterruptHandler_High	PTR FTN()void  size(2) Largest target is 0

    INT2_InterruptHandler	PTR FTN()void  size(2) Largest target is 1
		 -> Absolute function(), 

    INT1_InterruptHandler	PTR FTN()void  size(2) Largest target is 1
		 -> Absolute function(), 

    INT0_InterruptHandler	PTR FTN()void  size(2) Largest target is 1
		 -> Absolute function(), 

    Interrupt_INTx_SetInterruptHandler@int_obj.EXT_InterruptHandler	PTR FTN()void  size(2) Largest target is 0

    S1295$EXT_InterruptHandler_Low	PTR FTN()void  size(2) Largest target is 0

    Interrupt_RBx_Pin_Init@int_obj.EXT_InterruptHandler_Low	PTR FTN()void  size(2) Largest target is 0

    S1295$EXT_InterruptHandler_High	PTR FTN()void  size(2) Largest target is 0

    Interrupt_RBx_Pin_Init@int_obj.EXT_InterruptHandler_High	PTR FTN()void  size(2) Largest target is 0

    Interrupt_INTx_Clear_Flag@int_obj.EXT_InterruptHandler	PTR FTN()void  size(2) Largest target is 0

    Interrupt_INTx_Pin_Init@int_obj.EXT_InterruptHandler	PTR FTN()void  size(2) Largest target is 0

    Interrupt_INTx_Edge_Init@int_obj.EXT_InterruptHandler	PTR FTN()void  size(2) Largest target is 0

    Interrupt_INTx_Disable@int_obj.EXT_InterruptHandler	PTR FTN()void  size(2) Largest target is 0

    Interrupt_INTx_Enable@int_obj.EXT_InterruptHandler	PTR FTN()void  size(2) Largest target is 0

    S1252$EXT_InterruptHandler	PTR FTN()void  size(2) Largest target is 0

    External_Interrupt_Global_Enable@int_obj.EXT_InterruptHandler	PTR FTN()void  size(2) Largest target is 0

    gpio_pin_initialize@pin_config	PTR const struct . size(2) Largest target is 10
		 -> lcd8bit.lcd_data(BANK1[8]), lcd8bit(BANK1[10]), lcd_2.lcd_data(BANK1[8]), lcd_2(BANK1[10]), 
		 -> lcd_1.lcd_data(BANK1[4]), lcd_1(BANK1[6]), relay_initialize@relay_pin(COMRAM[1]), led_initialize@pin_obj(COMRAM[1]), 

    gpio_pin_write_logic@pin_config	PTR const struct . size(2) Largest target is 10
		 -> lcd8bit.lcd_data(BANK1[8]), lcd8bit(BANK1[10]), lcd_2.lcd_data(BANK1[8]), lcd_2(BANK1[10]), 
		 -> lcd_1.lcd_data(BANK1[4]), lcd_1(BANK1[6]), relay_Off@relay_pin(COMRAM[1]), relay_On@relay_pin(COMRAM[1]), 
		 -> relay_initialize@relay_pin(COMRAM[1]), led_turn_off@pin_obj(COMRAM[1]), led_turn_on@pin_obj(COMRAM[1]), led_initialize@pin_obj(COMRAM[1]), 

    gpio_pin_direction_initialize@pin_config	PTR const struct . size(2) Largest target is 10
		 -> ccp1_pin(BANK0[1]), lcd8bit.lcd_data(BANK1[8]), lcd8bit(BANK1[10]), lcd_2.lcd_data(BANK1[8]), 
		 -> lcd_2(BANK1[10]), lcd_1.lcd_data(BANK1[4]), lcd_1(BANK1[6]), relay_initialize@relay_pin(COMRAM[1]), 
		 -> led_initialize@pin_obj(COMRAM[1]), 

    port_registers	PTR volatile unsigned char [5] size(2) Largest target is 1
		 -> PORTE(BITBIGSFRlll[1]), PORTD(BITBIGSFRlll[1]), PORTC(BITBIGSFRlll[1]), PORTB(BITBIGSFRlll[1]), 
		 -> PORTA(BITBIGSFRlll[1]), 

    lat_registers	PTR volatile unsigned char [5] size(2) Largest target is 1
		 -> LATE(BITBIGSFRllh[1]), LATD(BITBIGSFRllh[1]), LATC(BITBIGSFRllh[1]), LATB(BITBIGSFRllh[1]), 
		 -> LATA(BITBIGSFRlll[1]), 

    tris_registers	PTR volatile unsigned char [5] size(2) Largest target is 1
		 -> TRISE(BITBIGSFRlh[1]), TRISD(BITBIGSFRlh[1]), TRISC(BITBIGSFRlh[1]), TRISB(BITBIGSFRlh[1]), 
		 -> TRISA(BITBIGSFRlll[1]), 

    ADC_GetConversionResult@_adc.ADC_IntHandler	PTR FTN()void  size(2) Largest target is 0

    ADC_InterruptHandler	PTR FTN()void  size(2) Largest target is 1
		 -> Absolute function(), 

    S688$ADC_IntHandler	PTR FTN()void  size(2) Largest target is 0

    ADC_ModuleInitialize@_adc.ADC_IntHandler	PTR FTN()void  size(2) Largest target is 0

    sp__memset	PTR void  size(2) Largest target is 4
		 -> main@arr(BANK1[4]), 

    convert_byte_to_string@str	PTR unsigned char  size(2) Largest target is 4
		 -> main@arr(BANK1[4]), 

    lcd_8bit_set_cursor@lcd	PTR const struct . size(2) Largest target is 10
		 -> lcd8bit(BANK1[10]), 

    lcd_8bit_send_string_pos@str	PTR unsigned char  size(2) Largest target is 4
		 -> main@arr(BANK1[4]), 

    lcd_8bit_send_string_pos@lcd	PTR const struct . size(2) Largest target is 10
		 -> lcd8bit(BANK1[10]), 

    lcd_8bit_send_string@str	PTR unsigned char  size(2) Largest target is 10
		 -> STR_4(CODE[10]), main@arr(BANK1[4]), 

    lcd_8bit_send_string@lcd	PTR const struct . size(2) Largest target is 10
		 -> lcd8bit(BANK1[10]), 

    lcd_8bit_send_char_data@lcd	PTR const struct . size(2) Largest target is 10
		 -> lcd8bit(BANK1[10]), 

    lcd_8bit_send_command@lcd	PTR const struct . size(2) Largest target is 10
		 -> lcd8bit(BANK1[10]), lcd_2(BANK1[10]), 

    lcd_8bit_initialize@lcd	PTR const struct . size(2) Largest target is 10
		 -> lcd8bit(BANK1[10]), lcd_2(BANK1[10]), 


Critical Paths under _main in COMRAM

    _lcd_8bit_send_string_pos->_lcd_8bit_set_cursor
    _lcd_8bit_set_cursor->_lcd_8bit_send_command
    _lcd_8bit_send_string->_lcd_8bit_send_char_data
    _lcd_8bit_send_char_data->_gpio_pin_write_logic
    _lcd_8bit_initialize->_lcd_8bit_send_command
    _lcd_8bit_send_command->_gpio_pin_write_logic
    _gpio_pin_initialize->_gpio_pin_write_logic
    _hal_timer1_initialize->_hal_timer1_interrupt_handler_init
    _hal_timer1_initialize->_hal_timer1_set_prescaler
    _hal_timer1_initialize->_hal_timer1_write_value
    _hal_ccp_init->___fltol
    ___fltol->___fladd
    ___flmul->___xxtofl
    ___fldiv->___flmul
    ___fladd->___fldiv
    _sprintf->_vfprintf
    _vfprintf->_vfpfcnvrt
    _vfpfcnvrt->_dtoa
    _dtoa->_pad
    _pad->_fputs
    _fputs->_fputc
    _abs->___aomod

Critical Paths under _InterruptManager in COMRAM

    _ccp1_app_isr->_hal_ccp_readCaptureValue

Critical Paths under _main in BANK0

    _main->_convert_byte_to_string
    _hal_ccp_init->___fltol
    _convert_byte_to_string->_sprintf

Critical Paths under _InterruptManager in BANK0

    None.

Critical Paths under _main in BANK1

    None.

Critical Paths under _InterruptManager in BANK1

    None.

Critical Paths under _main in BANK2

    None.

Critical Paths under _InterruptManager in BANK2

    None.

Critical Paths under _main in BANK3

    None.

Critical Paths under _InterruptManager in BANK3

    None.

Critical Paths under _main in BANK4

    None.

Critical Paths under _InterruptManager in BANK4

    None.

Critical Paths under _main in BANK5

    None.

Critical Paths under _InterruptManager in BANK5

    None.

Critical Paths under _main in BANK6

    None.

Critical Paths under _InterruptManager in BANK6

    None.

Critical Paths under _main in BANK7

    None.

Critical Paths under _InterruptManager in BANK7

    None.

Critical Paths under _main in BANK8

    None.

Critical Paths under _InterruptManager in BANK8

    None.

Critical Paths under _main in BANK9

    None.

Critical Paths under _InterruptManager in BANK9

    None.

Critical Paths under _main in BANK10

    None.

Critical Paths under _InterruptManager in BANK10

    None.

Critical Paths under _main in BANK11

    None.

Critical Paths under _InterruptManager in BANK11

    None.

Critical Paths under _main in BANK12

    None.

Critical Paths under _InterruptManager in BANK12

    None.

Critical Paths under _main in BANK13

    None.

Critical Paths under _InterruptManager in BANK13

    None.

Critical Paths under _main in BANK14

    None.

Critical Paths under _InterruptManager in BANK14

    None.

Critical Paths under _main in BANK15

    None.

Critical Paths under _InterruptManager in BANK15

    None.

Call Graph Tables:

 ---------------------------------------------------------------------------------
 (Depth) Function   	        Calls       Base Space   Used Autos Params    Refs
 ---------------------------------------------------------------------------------
 (0) _main                                                16    16      0   86749
                                             22 BANK0      4     4      0
                                              0 BANK1     12    12      0
                            ___fldiv
                            ___fltol
                           ___xxtofl
             _convert_byte_to_string
      _gpio_pin_direction_initialize
                       _hal_ccp_init
              _hal_timer1_initialize
                _lcd_8bit_initialize
            _lcd_8bit_send_char_data
               _lcd_8bit_send_string
           _lcd_8bit_send_string_pos
 ---------------------------------------------------------------------------------
 (1) _lcd_8bit_send_string_pos                             7     1      6   20205
                                             39 COMRAM     6     0      6
               _lcd_8bit_send_string
                _lcd_8bit_set_cursor
 ---------------------------------------------------------------------------------
 (2) _lcd_8bit_set_cursor                                  7     3      4   10878
                                             32 COMRAM     7     3      4
              _lcd_8bit_send_command
 ---------------------------------------------------------------------------------
 (2) _lcd_8bit_send_string                                 5     1      4    8731
                                             32 COMRAM     5     1      4
            _lcd_8bit_send_char_data
 ---------------------------------------------------------------------------------
 (3) _lcd_8bit_send_char_data                              9     6      3    8173
                                             23 COMRAM     9     6      3
               _gpio_pin_write_logic
 ---------------------------------------------------------------------------------
 (1) _lcd_8bit_initialize                                  6     4      2   20329
                                             32 COMRAM     6     4      2
                _gpio_pin_initialize
              _lcd_8bit_send_command
 ---------------------------------------------------------------------------------
 (3) _lcd_8bit_send_command                                9     6      3    9973
                                             23 COMRAM     9     6      3
               _gpio_pin_write_logic
 ---------------------------------------------------------------------------------
 (2) _gpio_pin_initialize                                  4     2      2    9622
                                             23 COMRAM     4     2      2
      _gpio_pin_direction_initialize
               _gpio_pin_write_logic
 ---------------------------------------------------------------------------------
 (4) _gpio_pin_write_logic                                10     7      3    7277
                                             13 COMRAM    10     7      3
 ---------------------------------------------------------------------------------
 (3) _gpio_pin_direction_initialize                        9     7      2     977
                                             13 COMRAM     9     7      2
 ---------------------------------------------------------------------------------
 (1) _hal_timer1_initialize                                3     1      2    2625
                                             17 COMRAM     2     0      2
_hal_timer1_config_timer1_oscillator
                 _hal_timer1_disable
                  _hal_timer1_enable
        _hal_timer1_interrupt_enable
  _hal_timer1_interrupt_handler_init
      _hal_timer1_rw_8bit_16bit_mode
     _hal_timer1_select_clock_source
           _hal_timer1_set_prescaler
_hal_timer1_synchronize_external_clo
             _hal_timer1_write_value
 ---------------------------------------------------------------------------------
 (2) _hal_timer1_write_value                               5     1      4     382
                                             13 COMRAM     4     0      4
 ---------------------------------------------------------------------------------
 (2) _hal_timer1_synchronize_external_clock                3     1      2     199
                                             13 COMRAM     2     0      2
 ---------------------------------------------------------------------------------
 (2) _hal_timer1_set_prescaler                             5     3      2     168
                                             13 COMRAM     4     2      2
 ---------------------------------------------------------------------------------
 (2) _hal_timer1_select_clock_source                       4     2      2     261
                                             13 COMRAM     3     1      2
 ---------------------------------------------------------------------------------
 (2) _hal_timer1_rw_8bit_16bit_mode                        3     1      2     199
                                             13 COMRAM     2     0      2
 ---------------------------------------------------------------------------------
 (2) _hal_timer1_interrupt_handler_init                    5     3      2     199
                                             13 COMRAM     4     2      2
 ---------------------------------------------------------------------------------
 (2) _hal_timer1_interrupt_enable                          3     1      2     134
                                             13 COMRAM     2     0      2
 ---------------------------------------------------------------------------------
 (2) _hal_timer1_enable                                    3     1      2     189
                                             13 COMRAM     2     0      2
 ---------------------------------------------------------------------------------
 (2) _hal_timer1_disable                                   3     1      2     189
                                             13 COMRAM     2     0      2
 ---------------------------------------------------------------------------------
 (2) _hal_timer1_config_timer1_oscillator                  3     1      2     199
                                             13 COMRAM     2     0      2
 ---------------------------------------------------------------------------------
 (1) _hal_ccp_init                                        13    11      2   10840
                                              4 BANK0     12    10      2
                            ___fladd
                            ___fldiv
                            ___flmul
                            ___fltol
                           ___xxtofl
 ---------------------------------------------------------------------------------
 (2) ___xxtofl                                            14    10      4     876
                                             13 COMRAM    14    10      4
 ---------------------------------------------------------------------------------
 (2) ___fltol                                             10     6      4     552
                                             93 COMRAM     6     2      4
                                              0 BANK0      4     4      0
                            ___fladd (ARG)
                            ___fldiv (ARG)
                            ___flmul (ARG)
                           ___xxtofl (ARG)
 ---------------------------------------------------------------------------------
 (2) ___flmul                                             25    17      8    2773
                                             27 COMRAM    25    17      8
                           ___xxtofl (ARG)
 ---------------------------------------------------------------------------------
 (2) ___fldiv                                             25    17      8    2433
                                             52 COMRAM    25    17      8
                            ___flmul (ARG)
                           ___xxtofl (ARG)
 ---------------------------------------------------------------------------------
 (2) ___fladd                                             16     8      8    3292
                                             77 COMRAM    16     8      8
                            ___fldiv (ARG)
                            ___flmul (ARG)
                           ___xxtofl (ARG)
 ---------------------------------------------------------------------------------
 (1) _convert_byte_to_string                               4     2      2   10831
                                             19 BANK0      3     1      2
                             _memset
                            _sprintf
 ---------------------------------------------------------------------------------
 (2) _sprintf                                             21    15      6    8777
                                              0 BANK0     19    13      6
                           _vfprintf
 ---------------------------------------------------------------------------------
 (3) _vfprintf                                             8     2      6    7931
                                             92 COMRAM     8     2      6
                          _vfpfcnvrt
 ---------------------------------------------------------------------------------
 (4) _vfpfcnvrt                                           42    36      6    7458
                                             76 COMRAM    16    10      6
                               _dtoa
                              _fputc
 ---------------------------------------------------------------------------------
 (5) _dtoa                                                36    26     10    5683
                                             40 COMRAM    36    26     10
                            ___aodiv
                            ___aomod
                                _abs
                                _pad
 ---------------------------------------------------------------------------------
 (6) _pad                                                 11     5      6    3417
                                             29 COMRAM    11     5      6
                              _fputc
                              _fputs
                             _strlen
 ---------------------------------------------------------------------------------
 (7) _strlen                                               4     2      2     220
                                             13 COMRAM     4     2      2
 ---------------------------------------------------------------------------------
 (7) _fputs                                                7     3      4    1537
                                             22 COMRAM     7     3      4
                              _fputc
 ---------------------------------------------------------------------------------
 (5) _fputc                                                9     5      4    1037
                                             13 COMRAM     9     5      4
                              _putch
 ---------------------------------------------------------------------------------
 (6) _putch                                                1     1      0       0
 ---------------------------------------------------------------------------------
 (6) _abs                                                  4     2      2     183
                                             31 COMRAM     4     2      2
                            ___aomod (ARG)
 ---------------------------------------------------------------------------------
 (6) ___aomod                                             18     2     16     613
                                             13 COMRAM    18     2     16
 ---------------------------------------------------------------------------------
 (6) ___aodiv                                             26    10     16     625
                                             13 COMRAM    26    10     16
 ---------------------------------------------------------------------------------
 (2) _memset                                              12     6      6    1827
                                             13 COMRAM    12     6      6
 ---------------------------------------------------------------------------------
 Estimated maximum stack depth 7
 ---------------------------------------------------------------------------------
 (Depth) Function   	        Calls       Base Space   Used Autos Params    Refs
 ---------------------------------------------------------------------------------
 (10) _InterruptManager                                    4     4      0     675
                                              9 COMRAM     4     4      0
                            _ADC_ISR
                           _CCP1_ISR
                           _CCP2_ISR
                           _INT0_ISR
                           _INT1_ISR
                           _INT2_ISR
                            _RB4_ISR
                            _RB5_ISR
                            _RB6_ISR
                            _RB7_ISR
                         _Timer0_ISR
                         _Timer1_ISR
                         _Timer2_ISR
                         _Timer3_ISR
 ---------------------------------------------------------------------------------
 (11) _Timer3_ISR                                          0     0      0       0
 ---------------------------------------------------------------------------------
 (11) _Timer2_ISR                                          0     0      0       0
 ---------------------------------------------------------------------------------
 (11) _Timer1_ISR                                          0     0      0       0
                   Absolute function *
                     _timer1_app_isr *
 ---------------------------------------------------------------------------------
 (12) _timer1_app_isr                                      0     0      0       0
 ---------------------------------------------------------------------------------
 (11) _Timer0_ISR                                          0     0      0       0
 ---------------------------------------------------------------------------------
 (11) _RB7_ISR                                             1     1      0      44
                                              0 COMRAM     1     1      0
 ---------------------------------------------------------------------------------
 (11) _RB6_ISR                                             1     1      0      44
                                              0 COMRAM     1     1      0
 ---------------------------------------------------------------------------------
 (11) _RB5_ISR                                             1     1      0      44
                                              0 COMRAM     1     1      0
 ---------------------------------------------------------------------------------
 (11) _RB4_ISR                                             1     1      0      44
                                              0 COMRAM     1     1      0
 ---------------------------------------------------------------------------------
 (11) _INT2_ISR                                            0     0      0       0
 ---------------------------------------------------------------------------------
 (11) _INT1_ISR                                            0     0      0       0
 ---------------------------------------------------------------------------------
 (11) _INT0_ISR                                            0     0      0       0
 ---------------------------------------------------------------------------------
 (11) _CCP2_ISR                                            0     0      0       0
 ---------------------------------------------------------------------------------
 (11) _CCP1_ISR                                            0     0      0     499
                   Absolute function *
                       _ccp1_app_isr *
 ---------------------------------------------------------------------------------
 (12) _ccp1_app_isr                                        0     0      0     499
           _hal_ccp_readCaptureValue
               i2_hal_timer1_disable
                i2_hal_timer1_enable
 ---------------------------------------------------------------------------------
 (13) i2_hal_timer1_enable                                 3     1      2      56
                                              0 COMRAM     2     0      2
 ---------------------------------------------------------------------------------
 (13) i2_hal_timer1_disable                                3     1      2      56
                                              0 COMRAM     2     0      2
 ---------------------------------------------------------------------------------
 (13) _hal_ccp_readCaptureValue                           10     6      4     387
                                              0 COMRAM     9     5      4
 ---------------------------------------------------------------------------------
 (12) Absolute function(Fake)                              0     0      0       0
 ---------------------------------------------------------------------------------
 (11) _ADC_ISR                                             0     0      0       0
 ---------------------------------------------------------------------------------
 Estimated maximum stack depth 13
 ---------------------------------------------------------------------------------

 Call Graph Graphs:

 _main (ROOT)
   ___fldiv
     ___flmul (ARG)
       ___xxtofl (ARG)
     ___xxtofl (ARG)
   ___fltol
     ___fladd (ARG)
       ___fldiv (ARG)
       ___flmul (ARG)
       ___xxtofl (ARG)
     ___fldiv (ARG)
     ___flmul (ARG)
     ___xxtofl (ARG)
   ___xxtofl
   _convert_byte_to_string
     _memset
     _sprintf
       _vfprintf
         _vfpfcnvrt
           _dtoa
             ___aodiv
             ___aomod
             _abs
               ___aomod (ARG)
             _pad
               _fputc
                 _putch
               _fputs
                 _fputc
               _strlen
           _fputc
   _gpio_pin_direction_initialize
   _hal_ccp_init
     ___fladd
     ___fldiv
     ___flmul
     ___fltol
     ___xxtofl
   _hal_timer1_initialize
     _hal_timer1_config_timer1_oscillator
     _hal_timer1_disable
     _hal_timer1_enable
     _hal_timer1_interrupt_enable
     _hal_timer1_interrupt_handler_init
     _hal_timer1_rw_8bit_16bit_mode
     _hal_timer1_select_clock_source
     _hal_timer1_set_prescaler
     _hal_timer1_synchronize_external_clock
     _hal_timer1_write_value
   _lcd_8bit_initialize
     _gpio_pin_initialize
       _gpio_pin_direction_initialize
       _gpio_pin_write_logic
     _lcd_8bit_send_command
       _gpio_pin_write_logic
   _lcd_8bit_send_char_data
     _gpio_pin_write_logic
   _lcd_8bit_send_string
     _lcd_8bit_send_char_data
   _lcd_8bit_send_string_pos
     _lcd_8bit_send_string
     _lcd_8bit_set_cursor
       _lcd_8bit_send_command

 _InterruptManager (ROOT)
   _ADC_ISR
   _CCP1_ISR
     Absolute function(Fake) *
     _ccp1_app_isr *
       _hal_ccp_readCaptureValue
       i2_hal_timer1_disable
       i2_hal_timer1_enable
   _CCP2_ISR
   _INT0_ISR
   _INT1_ISR
   _INT2_ISR
   _RB4_ISR
   _RB5_ISR
   _RB6_ISR
   _RB7_ISR
   _Timer0_ISR
   _Timer1_ISR
     Absolute function(Fake) *
     _timer1_app_isr *
   _Timer2_ISR
   _Timer3_ISR

 Address spaces:
Name               Size   Autos  Total    Cost      Usage
BIGRAM             F7F      0       0      48        0.0%
EEDATA             400      0       0       0        0.0%
BITBANK14          100      0       0      32        0.0%
BANK14             100      0       0      33        0.0%
BITBANK13          100      0       0      30        0.0%
BANK13             100      0       0      31        0.0%
BITBANK12          100      0       0      28        0.0%
BANK12             100      0       0      29        0.0%
BITBANK11          100      0       0      26        0.0%
BANK11             100      0       0      27        0.0%
BITBANK10          100      0       0      24        0.0%
BANK10             100      0       0      25        0.0%
BITBANK9           100      0       0      22        0.0%
BANK9              100      0       0      23        0.0%
BITBANK8           100      0       0      20        0.0%
BANK8              100      0       0      21        0.0%
BITBANK7           100      0       0      18        0.0%
BANK7              100      0       0      19        0.0%
BITBANK6           100      0       0      16        0.0%
BANK6              100      0       0      17        0.0%
BITBANK5           100      0       0      14        0.0%
BANK5              100      0       0      15        0.0%
BITBANK4           100      0       0      12        0.0%
BANK4              100      0       0      13        0.0%
BITBANK3           100      0       0      10        0.0%
BANK3              100      0       0      11        0.0%
BITBANK2           100      0       0       8        0.0%
BANK2              100      0       0       9        0.0%
BITBANK1           100      0       0       6        0.0%
BANK1              100      C      60       7       37.5%
BITBANK15           80      0       0      34        0.0%
BANK15              80      0       0      35        0.0%
BITBANK0            80      0       0       4        0.0%
BANK0               80     1A      7F       5       99.2%
BITCOMRAM           7E      0       0       0        0.0%
COMRAM              7E     64      71       1       89.7%
BITBIGSFRhhllhh     18      0       0      37        0.0%
BITBIGSFRhhh         D      0       0      36        0.0%
BITBIGSFRhlhhll      6      0       0      40        0.0%
BITBIGSFRlh          6      0       0      44        0.0%
BITBIGSFRhlhl        6      0       0      41        0.0%
BITBIGSFRhhlllh      5      0       0      38        0.0%
BITBIGSFRhhllll      5      0       0      39        0.0%
BITBIGSFRhlllh       4      0       0      42        0.0%
BITBIGSFRllh         4      0       0      45        0.0%
BITBIGSFRlll         4      0       0      46        0.0%
BITBIGSFRhllll       1      0       0      43        0.0%
BIGSFR               0      0       0     200        0.0%
BITSFR               0      0       0     200        0.0%
SFR                  0      0       0     200        0.0%
STACK                0      0       0       2        0.0%
NULL                 0      0       0       0        0.0%
ABS                  0      0     150      47        0.0%
DATA                 0      0     150       3        0.0%
CODE                 0      0       0       0        0.0%


Microchip Technology PIC18 Macro Assembler V2.36 build 20220127204148 
Symbol Table                                                                                   Sat Jul 09 17:54:24 2022

                           ??_InterruptManager 000A                                   ___fldiv@aexp 004D  
                                 ___fldiv@bexp 004C                                   ___fldiv@sign 0045  
                     _hal_ccp_readCaptureValue 3B64                                            l130 3AC0  
                                          l131 3AC2                                            l124 3554  
                                          l150 3B60                                            l151 3B62  
                                          l137 3A0E                                            l138 3A10  
                                          l172 38A4                                            l156 3FA4  
                                          l173 38A6                                            l178 4050  
                                          l461 3302                                            l462 3304  
                                          l491 3E86                                            l476 3432  
                                          l492 3E88                                            l477 3434  
                                          _PR2 000FCB                  gpio_pin_initialize@pin_config 0018  
                                          _abs 41E4                                            _end 006C  
                                          _pad 3728                                __end_of_ADC_ISR 443C  
                                          _ovf 0096                                            prod 000FF3  
                          led_initialize@F2881 00C0                      ?_lcd_8bit_send_string_pos 0028  
                                          tosl 000FFD                                            wreg 000FE8  
                    _RB5_InterruptHandler_High 00AA                          relay_initialize@F2879 00BC  
                  __end_of_lcd_8bit_set_cursor 38A8                                   ___flmul@aexp 0029  
                                 ___flmul@bexp 002E                                   _ccp1_app_isr 3DA4  
                                 ___flmul@sign 0028                                   ___flmul@temp 0033  
                                 ___flmul@prod 002F                                __end_of_RB4_ISR 43D0  
                              __end_of_RB5_ISR 43B6                                __end_of_RB6_ISR 439C  
                              __end_of_RB7_ISR 4382                                   ___fltol@exp1 0063  
                                         l1104 3F4C                                           l1113 3DA2  
                                         l1122 40A4                                           l1131 40F8  
                 __end_of_lcd_8bit_send_string 3B64                                           ?_abs 0020  
                                         l1143 3C88                                           l1152 414C  
                                         l2201 209E                                           l1081 395E  
                                         l2203 2116                                           l2204 2104  
                                         l1172 4366                                           l1157 4332  
                                         l2222 1AFA                                           l2231 1D68  
                                         l1167 434C                                           l2136 1764  
                                         l2232 1D56                                           l2153 187E  
                                         l2145 1A34                                           l2137 1752  
                                         l2162 194E                                           l2138 1718  
                                         l2226 1E5E                                           l2323 376C  
                                         l2163 193C                                           l1531 1574  
                                         l1179 3FFA                                           l2404 4290  
                                         l2229 1CF0                                           l2326 37AE  
                                         l2334 2620                                           l2190 21F8  
                                         l2270 2B0C                                           l2239 1E20  
                                         l2263 2A74                                           l2328 37E8  
                                         l2336 2628                                           l2192 2058  
                                         l2361 2A1C                                           l1722 2EE2  
                                         l2354 285E                                           l2266 2BD0  
                                         l2283 3058                                           l2195 201C  
                                         l2372 421A                                           l2277 2B68  
                                         l1735 31BC                                           l2375 4222  
                                         l2367 3EE4                                           l2368 3EEC  
                                         l2296 419E                                           l1905 365C  
                                         l2387 3726                                           l2395 41E2  
                                         l2398 443C                                           ?_pad 001E  
                                         l9400 309E                                           l9320 368C  
                                         l9410 3106                                           l9402 30BE  
                                         l9322 36AA                                           l9314 365E  
                                         l9330 41AC                                           l9420 317C  
                                         l9412 3134                                           l9404 30DC  
                                         l9324 36E0                                           l9316 3670  
                                         l9332 41BE                                           l9340 426C  
                                         l9500 27FA                                           l9350 2D6E  
                                         l9422 319C                                           l9414 3154  
                                         l9406 30E4                                           l9318 3682  
                                         l9334 41C2                                           l9342 4284  
                                         l9430 374A                                           l9502 2800  
                                         l9510 2836                                           l9360 2DC4  
                                         l9352 2D8E                                           l9416 3166  
                                         l9408 30F8                                           l9328 41A0  
                                         l9336 425C                                           l9440 3790  
                                         l9432 3758                                           l9504 2812  
                                         l9370 2E18                                           l9362 2DD0  
                                         l9354 2D92                                           l9346 2D5C  
                                         l9418 316C                                           l9450 41FE  
                                         l9338 4268                                           l9442 37BC  
                                         l9434 3764                                           l9426 3728  
                                         l9506 281E                                           l9522 3342  
                                         l9530 3408                                           l9514 3306  
                                         l9610 3A16                                           l9380 2E8C  
                                         l9372 2E2A                                           l9364 2DEE  
                                         l9356 2DA0                                           l9348 2D60  
                                         l9444 37D0                                           l9436 3778  
                                         l9428 3736                                           l9508 2826  
                                         l9460 25F8                                           l9452 2580  
                                         l9540 2860                                           l9524 339E  
                                         l9516 330A                                           l9620 3A3C  
                                         l9612 3A28                                           l9374 2E58  
                                         l9366 2DF6                                           l9382 2E92  
                                         l9358 2DC0                                           l9390 305A  
                                         l9438 378C                                           l9470 2650  
                                         l9462 25FA                                           l9454 25A0  
                                         l9550 28D0                                           l9542 2886  
                                         l9518 331C                                           l9526 3400  
                                         l9630 3AA4                                           l9622 3A76  
                                         l9614 3A38                                           l9800 3030  
                                         l9384 2EA2                                           l9376 2E78  
                                         l9368 2E0A                                           l9392 305E  
                                         l9448 41E4                                           l9480 26F0  
                                         l9472 2656                                           l9464 2614  
                                         l9456 25C8                                           l9560 299C  
                                         l9552 28F6                                           l9544 2894  
                                         l9624 3A78                                           l9632 3ABC  
                                         l9608 3A12                                           l9640 3976  
                                         l9802 303C                                           l9386 2EC2  
                                         l9378 2E7A                                           l9394 306C  
                                         l9490 2798                                           l9482 26F6  
                                         l9474 265E                                           l9466 2630  
                                         l9458 25E8                                           l9570 29D8  
                                         l9562 29AA                                           l9554 293E  
                                         l9546 28A6                                           l9810 4160  
                                         l9626 3A88                                           l9650 39C4  
                                         l9642 3986                                           l9730 37EA  
                                         l9804 3042                                           l9396 308C  
                                         l9492 27B2                                           l9484 26FC  
                                         l9476 2668                                           l9468 2642  
                                         l9564 29BE                                           l9548 28AA  
                                         l9812 4168                                           l9820 434E  
                                         l9900 3C30                                           l9628 3A9C  
                                         l9652 39C6                                           l9660 3A0A  
                                         l9636 3960                                           l9740 3832  
                                         l9732 37EA                                           l9806 3046  
                                         l9398 3090                                           l9494 27CC  
                                         l9478 266E                                           l9486 2760  
                                         l9558 2976                                           l9574 29E4  
                                         l9670 3EC6                                           l9814 4170  
                                         l9822 434E                                           l9830 3D18  
                                         l9902 3C38                                           l9590 31FA  
                                         l9582 31BE                                           l9654 39D6  
                                         l9638 3964                                           l9742 384A  
                                         l9734 37FC                                           l9488 277A  
                                         l9496 27DA                                           l9576 2A0A  
                                         l9568 29CA                                           l9664 3E8A  
                                         l9816 418C                                           l9808 414E  
                                         l9920 410C                                           l9824 4360  
                                         l9840 3D66                                           l9832 3D18  
                                         l9592 325C                                           l9584 31C2  
                                         l9680 3E82                                           l9672 3E1E  
                                         l9656 39EA                                           l9648 398A  
                                         l9760 3AC8                                           l9736 3802  
                                         l9744 3862                                           l9498 27EC  
                                         l9666 3E92                                           l9922 4126  
                                         l9826 4366                                           l9842 3D82  
                                         l9834 3D2A                                           l9906 3C3C  
                                         l9586 31D4                                           l9594 32B8  
                                         l9674 3E1E                                           l9658 39F2  
                                         l9770 3B26                                           l9762 3ADA  
                                         l9738 381A                                           l9780 2F02  
                                         l9668 3EA0                                           l9924 412C  
                                         l9916 40FA                                           l9844 3D9C  
                                         l9836 3D46                                           l9860 4084  
                                         l9852 4052                                           l9940 3F1A  
                                         l9676 3E30                                           l9772 3B5C  
                                         l9748 386A                                           l9782 2F0E  
                                         l9926 4146                                           l9918 40FA  
                                         l9870 40A6                                           l9838 3D60  
                                         l9846 3DA2                                           l9862 409E  
                                         l9854 4052                                           l9942 3F26  
                                         l9934 3EEE                                           l9598 32C0  
                                         l9678 3E52                                           l9766 3AF0  
                                         l9758 3AC4                                           STR_1 101B  
                                         l9792 2FB6                                           l9776 2EE4  
                                         l9928 414C                                           l9960 3FCC  
                                         l9880 40F2                                           l9872 40A6  
                                         l9856 4064                                           l9864 40A4  
                                         l9944 3F40                                           l9936 3EEE  
                                         l9768 3B22                                           l9794 2FE2  
                                         l9786 2F44                                           l9970 4316  
                                         l9962 3FE6                                           l9954 3FA6  
                                         l9874 40B8                                           l9882 40F8  
                                         l9890 3BFA                                           l9858 407E  
                                         l9946 3F44                                           l9938 3F00  
                                         STR_4 1011                                           l9788 2F9C  
                                         l9980 4334                                           l9972 4316  
                                         l9964 3FFA                                           l9956 3FA6  
                                         l9876 40D2                                           l9948 3F4C  
                                         l9798 2FFC                                           l9990 1576  
                                         l9982 4334                                           l9974 4328  
                                         l9958 3FB8                                           l9878 40D8  
                                         l9894 3C10                                           l9992 1582  
                                         l9984 4346                                           l9976 4332  
                                         l9896 3C18                                           l9888 3BFA  
                                         l9994 1590                                           l9986 434C  
                                         l9898 3C24                                           l9996 1592  
                                         l9998 15A2                                           _LATA 000F89  
                                         _LATB 000F8A                                           _LATC 000F8B  
                                         _LATD 000F8C                                           _LATE 000F8D  
               hal_ccp_readCaptureValue@ccpobj 0001                                           u9200 41E2  
                                         u9201 41DE                                           u9210 4284  
                                         u9211 4280                                           u9220 2D6E  
                                         u9300 309E                                           u9221 2D6A  
                                         u9301 309A                                           u9230 2DA0  
                                         u9310 30DC                                           u9231 2D9C  
                                         u9311 30D8                                           u9320 3106  
                                         u9160 3670                                           u9400 25B0  
                                         u9241 2DCA                                           u9321 3102  
                                         u9161 366C                                           u9401 25AA  
                                         u9250 2DEE                                           u9330 3134  
                                         u9170 3682                                           u9410 25B2  
                                         u9251 2DEA                                           u9331 3130  
                                         u9171 367E                                           u9260 2E18  
                                         u9340 317C                                           u9180 36AA  
                                         u9500 27CC                                           u9420 25C8  
                                         u9261 2E14                                           u9341 3178  
                                         u9181 36A6                                           u9501 27C8  
                                         u9421 25C4                                           u9270 2E58  
                                         u9190 36E0                                           u9350 3736  
                                         u9510 27DA                                           u9430 25F8  
                                         u9271 2E54                                           u9191 36DC  
                                         u9351 3732                                           u9511 27D6  
                                         u9431 25F4                                           u9280 2EA2  
                                         u9360 3758                                           u9520 27EC  
                                         u9440 2614                                           u9600 28D0  
                                         u9281 2E9E                                           u9361 3754  
                                         u9521 27E8                                           u9441 2610  
                                         u9601 28CC                                           u9290 306C  
                                         u9370 37AE                                           u9530 27FA  
                                         u9450 2642                                           u9610 28F6  
                                         u9291 3068                                           u9371 37AA  
                                         u9531 27F6                                           u9451 263E  
                                         u9611 28F2                                           u9380 37BC  
                                         u9540 2812                                           u9460 2650  
                                         u9620 299C                                           u9381 37B8  
                                         u9541 280E                                           u9461 264C  
                                         u9621 2998                                           u9390 41FE  
                                         u9470 277A                                           u9630 31D4  
                                         u9550 331C                                           u9710 3A88  
                                         u9391 41FA                                           u9471 2776  
                                         u9631 31D0                                           u9551 3318  
                                         u9711 3A84                                           u9480 2798  
                                         u9640 31F6                                           u9560 333E  
                                         u9704 3A66                                           u9720 3976  
                                         u9481 2794                                           u9641 31F2  
                                         u9561 333A                                           u9705 3A62  
                                         u9721 3972                                           u9490 27B2  
                                         u9491 27AE                                           u9900 2F40  
                                         u9740 39D6                                           u9901 2F3C  
                                         u9741 39D2                                           u9910 2FB2  
                                         u9590 2886                                           u9750 3EE4  
                                         u9670 32D8                                           u9654 321A  
                                         u9574 3362                                           u9734 39B4  
                                         u9830 37FC                                           u9911 2FAE  
                                         u9591 2882                                           u9751 3EE0  
                                         u9671 32D2                                           u9655 3216  
                                         u9575 335E                                           u9735 39B0  
                                         u9831 37F8                                           u9920 2FF8  
                                         u9680 32DA                                           u9664 327C  
                                         u9584 33BE                                           u9760 3E30  
                                         u9840 3ADA                                           u9921 2FF4  
                                         u9665 3278                                           u9585 33BA  
                                         u9761 3E2C                                           u9841 3AD6  
                                         u9930 3058                                           u9770 3E52  
                                         u9690 3A28                                           u9850 3AEC  
                                         u9931 3054                                           u9771 3E4E  
                                         u9691 3A24                                           u9851 3AE8  
                                         u9940 4360                                           u9860 3B1A  
                                         u9941 435C                                           u9950 3D2A  
                                         u9870 3B48                                           u9951 3D26  
                                         u9960 3D46                                           u9880 3B58  
                                         u9961 3D42                                           u9881 3B54  
                                         _TMR1 000FCE                                           u9890 2EFE  
                                         u9970 3D60                                           _TMR2 000FCC  
                                         u9891 2EFA                                           u9971 3D5C  
                                         u9867 3B10                                           _TMR3 000FB2  
                                         u9980 3D82                                           u9981 3D7E  
                                         u9877 3B3E                                           u9990 3D9C  
                                         u9991 3D98                 __end_of_hal_timer1_write_value 3F4E  
                                         abs@a 0020                                           _dbuf 0134  
                                         _main 2BD2                                           _dtoa 2580  
                                         _freq 0084                       _RB4_InterruptHandler_Low 00AC  
                             __end_of_CCP1_ISR 42F6                               __end_of_CCP2_ISR 4438  
                                         _tmr1 00DD                                           _prec 008C  
                                         _nout 0088                                           pad@i 0025  
                                         pad@p 0022                                           fsr0h 000FEA  
                                         fsr1h 000FE2                                           indf0 000FEF  
                                         fsr2h 000FDA                                           fsr0l 000FE9  
                                         indf2 000FDF                                           fsr1l 000FE1  
                                         pad@w 0027                                           fsr2l 000FD9  
                                         btemp 0072                       _RB7_InterruptHandler_Low 00A0  
                                         prodh 000FF4                                           prodl 000FF3  
                                         start 000E                                ___fldiv@new_exp 0046  
                __end_of_lcd_8bit_send_command 3AC4                                   ___param_bank 000000  
                            _hal_timer1_enable 4334                                          ??_abs 0022  
                         _gpio_pin_write_logic 3306                                          ??_pad 0024  
                             __end_of_INT0_ISR 4434                               __end_of_INT1_ISR 4430  
                             __end_of_INT2_ISR 442C                             ?_hal_timer1_enable 000E  
                                        l10000 15B2                                          l10010 15E2  
                                        l10002 15C2                                          l10100 17B4  
                                        l10020 160C                                          l10012 15F4  
                                        l10004 15C4                                          l10110 17E2  
                                        l10102 17C2                                          l10022 161C  
                                        l10030 1646                                          l10014 15F6  
                                        l10006 15CC                                          l10120 184E  
                                        l10112 17EC                                          l10104 17CE  
                                        l10040 167E                                          l10032 1656  
                                        l10024 162C                                          l10016 15FC  
                                        l10008 15DC                                          l10200 1E8C  
                                        l10122 185E                                          l10106 17D2  
                                        l10114 17F2                                          l10050 1692  
                                        l10042 1682                                          l10034 1668  
                                        l10026 163C                                          l10018 160A  
                                        l10210 1EC6                                          l10202 1E9C  
                                        l10140 18E0                                          l10132 18B8  
                                        l10116 1818                                          l10124 186E  
                                        l10108 17E0                                          l10060 16A6  
                                        l10052 1696                                          l10044 1686  
                                        l10036 1676                                          l10028 163E  
                                        l10300 2132                                          l10220 1EF2  
                                        l10212 1ECC                                          l10204 1EAC  
                                        l10142 18E8                                          l10134 18C2  
                                        l10126 1894                                          l10118 184C  
                                        l10150 190C                                          l10070 16BA  
                                        l10062 16AA                                          l10054 169A  
                                        l10046 168A                                          l10038 167A  
                                        l10310 219E                                          l10302 2140  
                                        l10230 1F2C                                          l10222 1F02  
                                        l10214 1ED2                                          l10206 1EAE  
                                        l10160 195E                                          l10152 1910  
                                        l10144 18EC                                          l10136 18D0  
                                        l10128 18A4                                          l10080 1732  
                                        l10072 16E4                                          l10064 16AE  
                                        l10056 169E                                          l10048 168E  
                                        l10320 21EC                                          l10312 21B8  
                                        l10304 216A                                          l10232 1F42  
                                        l10224 1F12                                          l10216 1EE0  
                                        l10208 1EB6                                          l10400 1C22  
                                        l10170 19C4                                          l10162 196A  
                                        l10154 191E                                          l10146 18FC  
                                        l10138 18D2                                          l10090 1772  
                                        l10082 1736                                          l10074 1700  
                                        l10066 16B2                                          l10058 16A2  
                                        l10322 21EE                                          l10314 21D4  
                                        l10306 216E                                          l10250 1F96  
                                        l10234 1F52                                          l10242 1F72  
                                        l10226 1F14                                          l10218 1EE2  
                                        l10410 1CB8                                          l10402 1C2E  
                                        l10330 1A36                                          l10180 1A0C  
                                        l10172 19D4                                          l10164 1978  
                                        l10156 1934                                          l10148 18FE  
                                        l10092 1782                                          l10084 1744  
                                        l10076 1710                                          l10068 16B6  
                                        l10316 21D8                                          l10308 2188  
                                        l10260 1FE8                                          l10252 1FB0  
                                        l10244 1F82                                          l10236 1F5A  
                                        l10228 1F1C                                          l10420 1D0E  
                                        l10412 1CD6                                          l10404 1C4A  
                                        l10340 1A72                                          l10332 1A42  
                                        l10500 364C                                          l10182 1A0E  
                                        l10174 19F4                                          l10166 19B2  
                                        l10086 1746                                          l10078 1726  
                                        l10318 21E6                                          l10270 2044  
                                        l10262 1FF8                                          l10254 1FC0  
                                        l10246 1F82                                          l10238 1F5E  
                                        l10430 1D78                                          l10422 1D12  
                                        l10414 1CE0                                          l10406 1C74  
                                        l10350 1AA4                                          l10342 1A82  
                                        l10334 1A50                                          l10510 2A84  
                                        l10184 1A14                                          l10176 19F8  
                                        l10168 19B4                                          l10096 1796  
                                        l10088 1750                                          l10280 2084  
                                        l10272 2046                                          l10264 200C  
                                        l10256 1FD0                                          l10192 1E60  
                                        l10440 1DDA                                          l10432 1D84  
                                        l10424 1D20                                          l10416 1CEE  
                                        l10408 1CAA                                          l10360 1AE4  
                                        l10352 1AB2                                          l10344 1A88  
                                        l10336 1A52                                          l10520 2AC2  
                                        l10512 2A9A                                          l10504 2A20  
                                        l10186 1A22                                          l10178 1A06  
                                        l10098 17A6                                          l10290 20C0  
                                        l10282 208E                                          l10274 2056  
                                        l10266 201A                                          l10258 1FE0  
                                        l10194 1E6C                                          l10450 1E42  
                                        l10442 1DEE                                          l10434 1D92  
                                        l10426 1D4E                                          l10418 1D00  
                                        l10370 1B2E                                          l10362 1AEA  
                                        l10354 1AB4                                          l10346 1A98  
                                        l10338 1A62                                          l10530 2B4A  
                                        l10522 2AF4                                          l10506 2A30  
                                        l11330 2BDE                                          l10700 4000  
                                        l10188 1A24                                          l10292 20CE  
                                        l10284 209C                                          l10276 2068  
                                        l10268 2026                                          l10196 1E7A  
                                        l10452 1E44                                          l10444 1E08  
                                        l10436 1DBC                                          l10380 1B7E  
                                        l10372 1B3A                                          l10364 1B0A  
                                        l10356 1AC4                                          l10348 1A9E  
                                        l10460 3556                                          l10540 2BA0  
                                        l10532 2B58                                          l10524 2AF6  
                                        l10516 2AAE                                          l10508 2A3E  
                                        l11340 2C2A                                          l11332 2C08  
                                        l10702 4014                                          l10294 20FC  
                                        l10278 207E                                          l10286 20AE  
                                        l10198 1E7C                                          l10446 1E24  
                                        l10454 1E4A                                          l10438 1DC0  
                                        l10390 1BC0                                          l10382 1B8A  
                                        l10374 1B44                                          l10366 1B1A  
                                        l10358 1AD4                                          l10470 35AE  
                                        l10462 356C                                          l10542 2BB0  
                                        l10534 2B76                                          l10526 2B02  
                                        l10518 2AB6                                          l10710 38A8  
                                        l11350 2CDC                                          l11342 2C3E  
                                        l11334 2C14                                          l10704 4030  
                                        l10288 20BC                                          l10456 1E4E  
                                        l10448 1E34                                          l10392 1BCC  
                                        l10384 1B96                                          l10376 1B5A  
                                        l10472 35BE                                          l10544 2BBE  
                                        l10536 2B78                                          l10528 2B3E  
                                        l10800 120C                                          l10720 38DE  
                                        l10712 38A8                                          l10640 3436  
                                        l11352 2D24                                          l11344 2C4E  
                                        l11336 2C16                                          l11328 2BD2  
                                        l10706 4050                                          l10298 2126  
                                        l10394 1BDC                                          l10386 1BA4  
                                        l10378 1B66                                          l10482 35E8  
                                        l10474 35C2                                          l10466 3580  
                                        l10546 2BC0                                          l10538 2B7C  
                                        l10810 1250                                          l10730 3936  
                                        l10722 38EA                                          l10714 38BA  
                                        l10642 343A                                          l11346 2C62  
                                        l11354 2D2A                                          l11338 2C18  
                                        l10396 1BF6                                          l10388 1BB0  
                                        l10492 3610                                          l10484 35F2  
                                        l10476 35D0                                          l10468 35AC  
                                        l10804 122C                                          l10740 1020  
                                        l10732 3942                                          l10724 38F6  
                                        l10716 38C6                                          l10660 34AC  
                                        l10652 3470                                          l10644 344C  
                                        l11356 2D38                                          l11348 2C92  
                                        l10398 1C06                                          l10494 361C  
                                        l10486 35FC                                          l10822 12C2  
                                        l10806 1238                                          l10750 1074  
                                        l10742 1020                                          l10734 394E  
                                        l10726 3902                                          l10718 38D2  
                                        l10670 3500                                          l10662 34BC  
                                        l10654 348C                                          l10646 346C  
                                        l10496 362C                                          l10840 1356  
                                        l10824 12CE                                          l10808 1244  
                                        l10816 125C                                          l10760 10B8  
                                        l10752 107C                                          l10744 1034  
                                        l10728 3922                                          l10736 395E  
                                        l10672 3510                                          l10664 34DA  
                                        l10656 348E                                          l10680 3554  
                                        l10498 363C                                          l10850 13A6  
                                        l10842 1372                                          l10826 12DA  
                                        l10834 12F2                                          l10818 12A2  
                                        l10770 10F4                                          l10762 10C4  
                                        l10754 107C                                          l10746 1050  
                                        l10674 3520                                          l10666 34E0  
                                        l10658 349E                                          l10690 3F78  
                                        l10860 151C                                          l10852 13FC  
                                        l10844 137E                                          l10828 12E6  
                                        l10780 1166                                          l10764 10D0  
                                        l10756 1098                                          l10748 1058  
                                        l11580 3C62                                          l10676 3530  
                                        l10668 34F0                                          l10692 3F8C  
                                        l10684 3F4E                                          l10870 156C  
                                        l10862 1520                                          l10854 1454  
                                        l10846 139A                                          l10838 1338  
                                        l10782 1172                                          l11582 1118  
                                        l10766 10DC                                          l10774 10F8  
                                        l10678 3540                                          l11574 387E  
                                        l10694 3FA4                                          l10686 3F4E  
                                        l10872 156C                                          l10864 1534  
                                        l10848 13A6                                          l11584 11C2  
                                        l10784 117E                                          l10768 10E8  
                                        l10776 1146                                          l11576 341C  
                                        l10688 3F60                                          l10698 4000  
                                        l10874 156E                                          l10866 1550  
                                        l11586 127C                                          l10786 118A  
                                        l10794 11A2                                          l10858 14FE  
                                        l11578 32EC                                          l10868 1554  
                                        l11588 1312                                          l10788 1196  
                                        l10876 1574                                          l10798 11F0  
                                ___fltol@sign1 0062                                __end_of___aodiv 2EE4  
                              __end_of___fladd 1A36                                          ?_main 0001  
                                        ?_dtoa 0029                                __end_of___aomod 31BE  
                              __end_of___fldiv 21FA                                          _EEADR 000FA9  
                              __end_of___flmul 1E60                                __end_of___fltol 365E  
                                        u10000 4064                                          u10001 4060  
                                        u10010 407E                                          u10011 407A  
                                        u10020 409E                                          u10100 3F00  
                                        u10021 409A                                          u10101 3EFC  
                                        u10030 40B8                                          u10110 3F1A  
                                        u10031 40B4                                          u10111 3F16  
                                        u10200 15B2                                          u11000 35A2  
                                        u10040 40D2                                          u10120 3F40  
                                        u10201 15AE                                          u10041 40CE  
                                        u10121 3F3C                                          u10210 15F4  
                                        u11010 35D0                                          u10130 3FB8  
                                        u10050 40F2                                          u10211 15F0  
                                        u11011 35CC                                          u10131 3FB4  
                                        u10051 40EE                                          u10300 1726  
                                        u10220 160A                                          u11020 35E4  
                                        u11100 2B3A                                          u10140 3FCC  
                                        u10060 3C0C                                          u10301 1722  
                                        u10221 1606                                          u11021 35E0  
                                        u11005 3596                                          u11101 2B36  
                                        u10141 3FC8                                          u10061 3C08  
                                        u10310 1744                                          u10230 161C  
                                        u11030 360C                                          u11110 2B58  
                                        u10070 410C                                          u10150 3FE6  
                                        u10311 1740                                          u10231 1618  
                                        u11031 3608                                          u11111 2B54  
                                        u10071 4108                                          u10151 3FE2  
                                        u10400 1894                                          u10320 1764  
                                        u10240 162C                                          u11040 362C  
                                        u11120 2B68                                          u10080 4126  
                                        u10160 4328                                          u10401 1890  
                                        u10321 1760                                          u10241 1628  
                                        u11041 3628                                          u11121 2B64  
                                        u10081 4122                                          u10161 4324  
                                        u10410 18A4                                          u10330 1772  
                                        u10250 1668                                          u11050 363C  
                                        u11130 2B76                                          u10090 4146  
                                        u10170 4346                                          u10411 18A0  
                                        u10331 176E                                          u10251 1664  
                                        u11051 3638                                          u11131 2B72  
                                        u10091 4142                                          u10171 4342  
                                        u10500 1978                                          u10420 18D0  
                                        u10340 1782                                          u10260 1676  
                                        u10180 1590                                          u11140 2BB0  
                                        u11060 2A30                                          u11300 1050  
                                        u10501 1974                                          u10421 18CC  
                                        u10341 177E                                          u10261 1672  
                                        u10181 158C                                          u11141 2BAC  
                                        u11061 2A2C                                          u11301 104C  
                                        u10510 19B2                                          u10430 18E0  
                                        u10350 17B4                                          u10270 16E4  
                                        u10190 15A2                                          u11150 2BBE  
                                        u11070 2A3E                                          u11310 1074  
                                        u11230 344C                                          u10511 19AE  
                                        u10431 18DC                                          u10351 17B0  
                                        u10271 16E0                                          u10191 159E  
                                        u11151 2BBA                                          u11071 2A3A  
                                        u11311 1070                                          u11231 3448  
                                        u10520 19C4                                          u10440 18FC  
                                        u10360 17C2                                          u10280 16FC  
                                        u10600 1EE0                                          u11080 2A9A  
                                        u11400 139A                                          u11320 1098  
                                        u11240 349E                                          u10521 19C0  
                                        u10441 18F8                                          u10361 17BE  
                                        u10281 16F6                                          u10601 1EDC  
                                        u11081 2A96                                          u11401 1396  
                                        u11321 1094                                          u11241 349A  
                                        u10530 19D4                                          u10450 190C  
                                        u10370 17E0                                          u10290 16FE  
                                        u10610 1EF2                                          u11090 2AF0  
                                        u11410 151C                                          u11330 10B4  
                                        u11250 3F60                                          u10531 19D0  
                                        u10451 1908                                          u10371 17DC  
                                        u10611 1EEE                                          u11091 2AEC  
                                        u11411 1518                                          u11331 10B0  
                                        u11251 3F5C                                          u10540 19F4  
                                        u10460 191E                                          u10380 1818  
                                        u10700 209C                                          u10620 1F02  
                                        u11420 1550                                          u11340 1162  
                                        u11260 3F78                                          u10541 19F0  
                                        u10461 191A                                          u10381 1814  
                                        u10701 2098                                          u10621 1EFE  
                                        u11421 154C                                          u11341 115E  
                                        u11261 3F74                                          u11270 4014  
                                        u10550 1A06                                          u10470 1934  
                                        u10390 185E                                          u10710 20BC  
                                        u10630 1F42                                          u11350 120C  
                                        u11271 4010                                          u10551 1A02  
                                        u10471 1930                                          u10391 185A  
                                        u10711 20B8                                          u10631 1F3E  
                                        u11351 1208                                          u10560 1A22  
                                        u10480 194A                                          u10720 20CE  
                                        u10640 1F82                                          u10800 1A50  
                                        u11360 1228                                          u11280 38BA  
                                        u10561 1A1E                                          u10481 1946  
                                        u10721 20CA                                          u10641 1F7E  
                                        u10801 1A4C                                          u11361 1224  
                                        u11281 38B6                                          u10490 195E  
                                        u10730 20FC                                          u10650 1FF8  
                                        u10570 1E7A                                          u10810 1A62  
                                        u11370 12BE                                          u11290 1034  
                                        u10491 195A                                          u10731 20F8  
                                        u10651 1FF4                                          u10571 1E76  
                                        u10811 1A5E                                          u11371 12BA  
                                        u11291 1030                                          u10740 2112  
                                        u10660 201A                                          u10580 1E8C  
                                        u10900 1D0E                                          u10820 1A72  
                                        u11380 1356                                          u10741 210E  
                                        u10661 2016                                          u10581 1E88  
                                        u10901 1D0A                                          u10821 1A6E  
                                        u11381 1352                                          u10750 2126  
                                        u10670 2044                                          u10590 1E9C  
                                        u10910 1D20                                          u10830 1AB2  
                                        u11390 1372                                          u10751 2122  
                                        u10671 2040                                          u10591 1E98  
                                        u10911 1D1C                                          u10831 1AAE  
                                        u11391 136E                                          u10760 2140  
                                        u10680 2068                                          u10920 1D4E  
                                        u10840 1AC4                                          u10761 213C  
                                        u10681 2064                                          u10921 1D4A  
                                        u10841 1AC0                                          u10770 2188  
                                        u10690 207E                                          u10930 1D64  
                                        u10850 1AD4                                          u10771 2184  
                                        u10691 207A                                          u10931 1D60  
                                        u10851 1AD0                                          u10780 21B8  
                                        u10940 1D78                                          u10860 1B0A  
                                        u10781 21B4                                          u10941 1D74  
                                        u10861 1B06                                          u10790 21E6  
                                        u10950 1D92                                          u10870 1B1A  
                                        u10791 21E2                                          u10951 1D8E  
                                        u10871 1B16                                          u10960 1DDA  
                                        u10880 1C94                                          u10961 1DD6  
                                        u10970 1E08                                          u10890 1CEE  
                                        u10971 1E04                                          u10891 1CEA  
                                        u11907 34A4                                          u10980 1E42  
                                        u11860 2C62                                          u10981 1E3E  
                                        u10885 1C8A                                          u11917 34C2  
                                        u11861 2C5E                                          u10990 356C  
                                        u10991 3568                                          u11927 34DC  
                                        u11937 3A9E                                          u11897 39EC  
                                        i2l391 443A                                          i2l801 43CE  
                                        i2l733 4432                                          i2l741 442A  
                                        i2l737 442E                                          i2l809 43B4  
                                        i2l817 439A                                          i2l825 4380  
                                        i2l898 256C                                   vfpfcnvrt@fmt 004F  
                                        _TMR0H 000FD7                                          _TMR1H 000FCF  
                                        _TMR0L 000FD6                                          _TMR1L 000FCE  
                                        _TMR3H 000FB3                                          _TMR3L 000FB2  
                                        _PORTA 000F80                                          _PORTB 000F81  
                                        _PORTC 000F82                                          _PORTD 000F83  
                                        _PORTE 000F84                                          _TRISA 000F92  
                                        _TRISB 000F93                                          _TRISC 000F94  
                                        _TRISD 000F95                                          _TRISE 000F96  
                          ??_hal_timer1_enable 0010                           __end_of_hal_ccp_init 1576  
                                        _lcd_1 012E                                          _lcd_2 0124  
                                        _flags 0065                                          _fputc 365E  
                                        _fputs 41A0                       ?_lcd_8bit_send_char_data 0018  
                                        pad@fp 001E                                          _width 008A  
                                        _putch 443C                                          _start 0092  
                                        dtoa@d 002B                                          dtoa@i 004B  
                                        main@x 0154                                          dtoa@n 0043  
                                        dtoa@p 003D                                          dtoa@s 0041  
                                        dtoa@w 003F                                          pclath 000FFA  
                                        pclatu 000FFB                                          tablat 000FF5  
                                        ttemp5 0073                                          ttemp6 0076  
                                        ttemp7 007A                                          status 000FD8  
                                        wtemp8 0073                                __end_of_sprintf 41A0  
    hal_timer1_config_timer1_oscillator@timer1 000E                 ?_gpio_pin_direction_initialize 000E  
                    __end_of_hal_timer1_enable 434E                                __initialization 3C8A  
                                 __end_of_main 2D5C                                   __end_of_dtoa 2860  
                        ?_gpio_pin_write_logic 000E                             _hal_timer1_disable 434E  
                                    ??_ADC_ISR 0001                         lcd_8bit_set_cursor@lcd 0021  
                       lcd_8bit_set_cursor@row 0023                                  _lat_registers 00C5  
                                       ??_main 00FB            hal_timer1_rw_8bit_16bit_mode@timer1 000E  
                                       ??_dtoa 0033                                  __activetblptr 000003  
                        _TMR3_InterruptHandler 0098                               led_turn_on@F2886 00BF  
                                    ??_RB4_ISR 0001                                      ??_RB5_ISR 0001  
                                    ??_RB6_ISR 0001                                      ??_RB7_ISR 0001  
                          ?_hal_timer1_disable 000E                                         ?_fputc 000E  
                                       ?_fputs 0017                                         _ADRESH 000FC4  
                                       _EEADRH 000FAA                                         _ADRESL 000FC3  
                                       _EEDATA 000FA8                                         _CCPR1H 000FBF  
                                       _CCPR2H 000FBC                                         _CCPR1L 000FBE  
                                       _CCPR2L 000FBB                                         _EECON2 000FA7  
                                       ?_putch 0001                                         i2l1038 4426  
                                       i2l1235 4416                                         i2l1172 4402  
                                       i2l1167 43E8                                         i2l1183 425A  
                                       i2l1600 42F4                                         i2l1426 3E1C  
                                       i2l1605 4436                                         i2l1429 441E  
                                       i2l1366 440E                                         i2l1558 3BF8  
                                       i2l7020 3DA8                                         i2l7030 3DF0  
                                       i2l7022 3DB8                                         i2l7032 3DF8  
                                       i2l7024 3DC8                                         i2l7034 3E0C  
                                       i2l7026 3DD8                                         i2l7018 3DA4  
                                       i2l7028 3DE8                                         i2l7036 3E18  
                                       i2l7038 4418                                         i2l6650 3B64  
                                       i2l6660 3BC0                                         i2l6652 3B76  
                                       i2l6662 3BDC                                         i2l6654 3B88  
                                       i2l6664 3BE4                                         i2l6656 3BA4  
                                       i2l6648 3B64                                         i2l6680 43D0  
                                       i2l7800 4386                                         i2l6658 3BAC  
                                       i2l6666 3BF8                                         i2l6690 43EA  
                                       i2l6682 43D0                                         i2l7810 436C  
                                       i2l6692 43EA                                         i2l6684 43E2  
                                       i2l7804 439A                                         i2l6694 43FC  
                                       i2l6686 43E8                                         i2l7814 4380  
                                       i2l7830 4242                                         i2l7822 4224  
                                       i2l7760 4438                                         i2l6696 4402  
                                       i2l7808 436A                                         i2l7824 4226  
                                       i2l7832 4410                                         i2l7840 440A  
                                       i2l7850 4434                                         i2l7770 442C  
                                       i2l7818 4424                                         i2l7826 422A  
                                       i2l7844 42C6                                         i2l7780 43BA  
                                       i2l7828 422E                                         i2l7836 4404  
                                       i2l8900 23A6                                         i2l7846 42C8  
                                       i2l7766 4430                                         i2l7774 4428  
                                       i2l7790 43A0                                         i2l7838 4406  
                                       i2l8910 23DC                                         i2l8902 23B6  
                                       i2l8830 221A                                         i2l7848 42DC  
                                       i2l7784 43CE                                         i2l8920 2412  
                                       i2l8912 23EA                                         i2l8904 23BA  
                                       i2l8840 224C                                         i2l8832 2228  
                                       i2l7778 43B8                                         i2l7794 43B4  
                                       i2l8922 2420                                         i2l8930 2448  
                                       i2l8914 23FA                                         i2l8906 23C0  
                                       i2l8850 2288                                         i2l8842 225A  
                                       i2l8834 222C                                         i2l7788 439E  
                                       i2l8940 2486                                         i2l8932 2456  
                                       i2l8924 242E                                         i2l8916 23FE  
                                       i2l8908 23CE                                         i2l8860 22BE  
                                       i2l8852 2296                                         i2l8844 2268  
                                       i2l8836 223A                                         i2l8828 220C  
                                       i2l7798 4384                                         i2l8950 24BA  
                                       i2l8934 2464                                         i2l8942 248C  
                                       i2l8926 243E                                         i2l8918 2404  
                                       i2l8862 22CC                                         i2l8870 22F4  
                                       i2l8854 22A6                                         i2l8846 226C  
                                       i2l8838 2248                                         i2l8960 24EC  
                                       i2l8952 24C8                                         i2l8944 249A  
                                       i2l8936 2472                                         i2l8928 2442  
                                       i2l8880 2332                                         i2l8872 2302  
                                       i2l8864 22DA                                         i2l8856 22AA  
                                       i2l8848 227A                                         i2l8970 2528  
                                       i2l8962 24FA                                         i2l8954 24CC  
                                       i2l8946 24A8                                         i2l8938 2482  
                                       i2l8890 2372                                         i2l8874 2310  
                                       i2l8882 2338                                         i2l8866 22EA  
                                       i2l8858 22B0                                         i2l8980 255A  
                                       i2l8972 252C                                         i2l8964 2508  
                                       i2l8956 24DA                                         i2l8948 24AC  
                                       i2l8892 2376                                         i2l8884 2346  
                                       i2l8876 231E                                         i2l8868 22EE  
                                       i2l8982 2568                                         i2l8974 253A  
                                       i2l8966 250C                                         i2l8958 24E8  
                                       i2l8886 2354                                         i2l8894 237C  
                                       i2l8878 232E                                         i2l8976 2548  
                                       i2l8968 251A                                         i2l8896 238A  
                                       i2l8888 2362                                         i2l8978 254C  
                                       i2l8898 2398                    __end_ofi2_hal_timer1_enable 43EA  
                             __end_of___xxtofl 2BD2                           ??_hal_timer1_disable 0010  
  __end_of_hal_timer1_config_timer1_oscillator 414E          ??_hal_timer1_config_timer1_oscillator 0010  
         ?_hal_timer1_config_timer1_oscillator 000E            _hal_timer1_config_timer1_oscillator 40FA  
                                   _Timer0_ISR 4424                                     _Timer1_ISR 4224  
                                   _Timer2_ISR 4410                                     _Timer3_ISR 4404  
                                 vfprintf@cfmt 0063                                      ??___aodiv 001E  
                                    ??___fladd 0056                                      ??___aomod 001E  
                                    ??___fldiv 003D                                      ??___flmul 0024  
                                    ??___fltol 00E5                           _lcd_8bit_send_string 3AC4  
                                       _memset 2EE4                                         clear_0 3CF0  
                                       clear_1 3CFC                                         clear_2 3D08  
                                       _period 00C1                                         isa$std 000001  
                 hal_timer1_write_value@timer1 000E                                         pad@buf 0020  
                                       dtoa@fp 0029                    lcd_8bit_send_string_pos@lcd 0028  
                                       _strlen 425C                      i2hal_timer1_enable@timer1 0001  
                  lcd_8bit_send_string_pos@row 002A                    lcd_8bit_send_string_pos@str 002C  
      hal_timer1_interrupt_handler_init@timer1 000E                                         fputc@c 000E  
                                    ?_CCP1_ISR 0001                                         fputs@c 001B  
                                       fputs@i 001C                                   __pdataCOMRAM 006E  
                                    ?_CCP2_ISR 0001                      lcd_8bit_initialize@Status 0026  
                                       fputs@s 0017                                   __mediumconst 0000  
                                       tblptrh 000FF7                                         tblptrl 000FF6  
                                       tblptru 000FF8                          _hal_timer1_initialize 38A8  
                 ?_hal_timer1_interrupt_enable 000E                                         putch@c 0001  
                             __end_of_vfprintf 3EEE                                      ??_sprintf 0065  
                                 ___xxtofl@arg 0018                                   ___xxtofl@exp 0017  
                                 ___xxtofl@val 000E                                     __accesstop 0080  
                      __end_of__initialization 3D0E                       ??_convert_byte_to_string 0065  
                                    ?_INT0_ISR 0001                                      ?_INT1_ISR 0001  
                                    ?_INT2_ISR 0001                                  ___rparam_used 000001  
                   ??_hal_ccp_readCaptureValue 0005                                     ___fltol@f1 005E  
    __end_of_hal_timer1_interrupt_handler_init 3FFC            ??_hal_timer1_interrupt_handler_init 0010  
           ?_hal_timer1_interrupt_handler_init 000E              _hal_timer1_interrupt_handler_init 3FA6  
                       ??_gpio_pin_write_logic 0011                                 __pcstackCOMRAM 0001  
                lcd_8bit_send_char_data@Status 001F                                   __pidataBANK0 42F6  
                                 __pidataBANK1 4292                                  RB4_ISR@source 0001  
               hal_timer1_set_prescaler@timer1 000E                                  __end_of_fputc 3728  
                                __end_of_fputs 41E4                          ?_lcd_8bit_send_string 0021  
                                __end_of_putch 443E                                     ??_CCP1_ISR 000A  
                                   ??_CCP2_ISR 0001                                  RB5_ISR@source 0001  
                                      ??_fputc 0012                                        ??_fputs 001B  
                                      ??_putch 000E                                     __pbssBANK0 0080  
                                   __pbssBANK1 0134                       _hal_timer1_set_prescaler 3BFA  
                        _INT0_InterruptHandler 00B4                                     ??_INT0_ISR 0001  
                                   ??_INT1_ISR 0001                                     ??_INT2_ISR 0001  
      lcd_8bit_send_command@l_lcd_pins_counter 0020                                    ?_Timer0_ISR 0001  
                                  ?_Timer1_ISR 0001                         lcd_8bit_initialize@lcd 0021  
                                  ?_Timer2_ISR 0001                                    ?_Timer3_ISR 0001  
             ??_hal_timer1_select_clock_source 0010                ?_hal_timer1_select_clock_source 000E  
                                 _hal_ccp_init 1020                                  RB6_ISR@source 0001  
                            led_turn_off@F2891 00BE                              fp__timer1_app_isr 0000  
                                      _ADC_ISR 4438                                        ?_memset 000E  
                              led_toggle@F2896 00BD    hal_timer1_synchronize_external_clock@timer1 000E  
                                relay_On@F2884 00BB                                        ?_strlen 000E  
                                      _RB4_ISR 43B6                                        _RB5_ISR 439C  
                                      _RB6_ISR 4382                                        _RB7_ISR 4368  
                                    ?___xxtofl 000E                         ?_hal_timer1_initialize 0012  
                    _RB6_InterruptHandler_High 00A6                                  RB7_ISR@source 0001  
                 __end_ofi2_hal_timer1_disable 4404                                 _tris_registers 00CF  
                     _RB6_InterruptHandler_Low 00A4         lcd_8bit_initialize@l_data_pins_counter 0025  
                         _ADC_InterruptHandler 00B6                                        __Hparam 0000  
                                      __Lparam 0000                         ??_lcd_8bit_send_string 0025  
                          _gpio_pin_initialize 3E1E                                        ___aodiv 2D5C  
                                      ___fladd 1576                          _lcd_8bit_send_command 3A12  
                                      ___aomod 305A                                        ___fldiv 1E60  
                                      ___flmul 1A36                                        ___fltol 3556  
                                      _ccp1obj 010A                                      ?_vfprintf 005D  
                                 __psmallconst 1000                                        _lcd8bit 011A  
                                      __pcinit 3C8A                                        __ramtop 1000  
                     _lcd_8bit_send_string_pos 3F4E                                        __ptext0 2BD2  
                                      __ptext1 3F4E                                        __ptext2 37EA  
                                      __ptext3 3AC4                                        __ptext4 3960  
                                      __ptext5 3436                                        __ptext6 3A12  
                                      __ptext7 3E1E                                        __ptext8 3306  
                                      __ptext9 31BE                                      _T0CONbits 000FD5  
                                    _T1CONbits 000FCD                ??_gpio_pin_direction_initialize 0010  
                                    _T2CONbits 000FCA                                     ??___xxtofl 0012  
                                    _T3CONbits 000FB1                           ?_gpio_pin_initialize 0018  
                                      main@arr 015C                                        _sprintf 414E  
          gpio_pin_direction_initialize@Status 0016                                 __pintcode_body 21FA  
                         end_of_initialization 3D0E                                        fputc@fp 0010  
                                      memset@c 0010                                        memset@k 0016  
                                      memset@n 0012                                        memset@s 0018  
                                      int_func 21FA                                        fputs@fp 0019  
             __end_of_hal_ccp_readCaptureValue 3BFA                              __end_of_vfpfcnvrt 2A1E  
                                      postdec1 000FE5                                        postdec2 000FDD  
                                      postinc0 000FEE                                        postinc1 000FE6  
                                      postinc2 000FDE                                     ??_vfprintf 0063  
                                      strlen@a 0010                                        strlen@s 000E  
                  lcd_8bit_send_command@Status 001F                                fp__ccp1_app_isr 0000  
                        _INT1_InterruptHandler 00B2                                      _PORTBbits 000F81  
                       _convert_byte_to_string 3FFC                               _InterruptManager 0008  
                                   _st_en_flag 006B              hal_timer1_interrupt_enable@timer1 000E  
                                  ___fladd@grs 005D                                  ___xxtofl@sign 0016  
              ??_hal_timer1_rw_8bit_16bit_mode 0010                          ??_gpio_pin_initialize 001A  
                     ??_hal_timer1_write_value 0012                                    ___fldiv@grs 0048  
                                  ___fldiv@rem 0041                                    ___flmul@grs 002A  
                                  _CCP1CONbits 000FBD                                    _CCP2CONbits 000FBA  
                  hal_timer1_initialize@timer1 0012                  hal_ccp_readCaptureValue@value 0003  
                       ?_lcd_8bit_send_command 0018                     i2hal_timer1_disable@timer1 0001  
               lcd_8bit_send_string_pos@column 002B                                 _timer1_app_isr 4418  
                         i2_hal_timer1_disable 43EA                                    vfpfcnvrt@ap 0051  
                                  vfpfcnvrt@fp 004D                                    vfpfcnvrt@ll 0055  
                                __pidataCOMRAM 4420                                 __end_of_memset 305A  
                               _timer2_preload 00B9                     ??_hal_timer1_set_prescaler 0010  
                               __end_of_strlen 4292                            start_initialization 3C8A  
                             _second_edge_flag 00B8                     lcd_8bit_send_string@Status 0025  
                          _lcd_8bit_initialize 3436                                  ?_ccp1_app_isr 0001  
                     _timer3_isr_preload_value 0067                                    __end_of_abs 4224  
                                  __end_of_pad 37EA          __end_of_gpio_pin_direction_initialize 3306  
                _gpio_pin_direction_initialize 31BE                                   ??_Timer0_ISR 0001  
                                 ??_Timer1_ISR 0001                                   ??_Timer2_ISR 0001  
                                 ??_Timer3_ISR 0001                           ?_lcd_8bit_initialize 0021  
                      _lcd_8bit_send_char_data 3960                         __end_of_timer1_app_isr 4420  
                                  vfprintf@fmt 005F                    hal_timer1_write_value@value 0010  
                        ?i2_hal_timer1_disable 0001                                    __pdataBANK0 00C5  
                                  __pdataBANK1 0100                      convert_byte_to_string@str 00F8  
                                     ?_ADC_ISR 0001                                       ??_memset 0014  
                          _lcd_8bit_set_cursor 37EA                                     memset@dest 000E  
                      ??_hal_timer1_initialize 0014                       lcd_8bit_send_command@lcd 0018  
                                     ??_strlen 0010                                      ___fladd@a 0052  
                                    ___fladd@b 004E                    convert_byte_to_string@value 00FA  
                    ?_hal_ccp_readCaptureValue 0001                                      ___fldiv@a 0039  
                                    ___fldiv@b 0035                                       ?_RB4_ISR 0001  
                                     ?_RB5_ISR 0001                                       ?_RB6_ISR 0001  
                                     ?_RB7_ISR 0001         __end_of_hal_timer1_select_clock_source 3DA4  
               _hal_timer1_select_clock_source 3D18                                      ___flmul@a 0020  
                                    ___flmul@b 001C                                    __pbssCOMRAM 0065  
                               ??_ccp1_app_isr 000A                                  __pcstackBANK0 00E5  
                                __pcstackBANK1 0154                               ___aodiv@dividend 000E  
                           __end_of_Timer0_ISR 4428                             __end_of_Timer1_ISR 425C  
                           __end_of_Timer2_ISR 4418                             __end_of_Timer3_ISR 4410  
        __end_of_hal_timer1_rw_8bit_16bit_mode 40FA                  _hal_timer1_rw_8bit_16bit_mode 40A6  
                         ?_lcd_8bit_set_cursor 0021                          _INT2_InterruptHandler 00B0  
               gpio_pin_write_logic@pin_config 000E                          _TMR0_InterruptHandler 009E  
                        ??_lcd_8bit_initialize 0023                     ??_lcd_8bit_send_string_pos 002E  
                                    _main$4670 0158                                      _dtoa$4175 003B  
                              ?_timer1_app_isr 0001                                      __pintcode 0008  
                  lcd_8bit_send_char_data@data 001A                                       ?___aodiv 000E  
                                     ?___fladd 004E                                       ?___aomod 000E  
                                     ?___fldiv 0035                               ___aodiv@quotient 0020  
                                     ?___flmul 001C                                       ?___fltol 005E  
                    gpio_pin_write_logic@logic 0010                      gpio_pin_initialize@Status 001B  
                                  __smallconst 1000                                       _CCP1_ISR 42C6  
                                     _CCP2_ISR 4434  __end_of_hal_timer1_synchronize_external_clock 40A6  
      ??_hal_timer1_synchronize_external_clock 0010         ?_hal_timer1_synchronize_external_clock 000E  
        _hal_timer1_synchronize_external_clock 4052                      _RB4_InterruptHandler_High 00AE  
          __end_of_hal_timer1_interrupt_enable 4334                    _hal_timer1_interrupt_enable 4316  
                    _RB7_InterruptHandler_High 00A2                                       ?_sprintf 00E5  
                        ??_lcd_8bit_set_cursor 0025                                       _INT0_ISR 4430  
                                     _INT1_ISR 442C                                       _INT2_ISR 4428  
                ??_hal_timer1_interrupt_enable 0010                       _RB5_InterruptHandler_Low 00A8  
                                     _RB4_Flag 0071                      ??_lcd_8bit_send_char_data 001B  
                                     _RB5_Flag 0070                                       _RB6_Flag 006F  
                          __end_of_keypad_btns 1011                                       _RB7_Flag 006E  
                     __end_of_InterruptManager 2580                                       _PIE1bits 000F9D  
                                     _PIE2bits 000FA0                                 relay_Off@F2889 00BA  
                                     _PIR1bits 000F9E                                       _PIR2bits 000FA1  
                                     i2u623_40 3DB8                                       i2u623_41 3DB4  
                                     i2u624_40 3DE8                                       i2u624_41 3DE4  
                                     i2u580_40 43FC                                       i2u900_40 255A  
                                     i2u580_41 43F8                                       i2u900_41 2556  
                                     i2u741_40 42DC                                       i2u740_48 4248  
                                     i2u901_40 2568                                       i2u741_41 42D8  
                                     i2u740_49 425A                                       i2u901_41 2564  
                                     i2u574_40 3B76                                       i2u574_41 3B72  
                                     i2u575_40 3B88                                       i2u742_48 42E2  
                                     i2u735_40 43CA                                       i2u575_41 3B84  
                                     i2u742_49 42F4                                       i2u735_41 43C6  
                                     i2u576_40 3BA4                                       i2u736_40 43B0  
                                     i2u576_41 3BA0                                       i2u736_41 43AC  
                                     i2u577_40 3BDC                                       i2u737_40 4396  
                                     i2u577_41 3BD8                                       i2u737_41 4392  
                                     i2u738_40 437C                                       i2u850_40 221A  
                                     i2u738_41 4378                                       i2u850_41 2216  
                                     i2u579_40 43E2                                       i2u739_40 4242  
                                     i2u851_40 2228                                       i2u579_41 43DE  
                                     i2u739_41 423E                                       i2u851_41 2224  
                                     i2u860_40 22BE                                       i2u852_40 223A  
                                     i2u860_41 22BA                                       i2u852_41 2236  
                                     i2u861_40 22CC                                       i2u853_40 2248  
                                     i2u861_41 22C8                                       i2u853_41 2244  
                                     i2u870_40 2362                                       i2u862_40 22DA  
                                     i2u854_40 225A                                       i2u870_41 235E  
                                     i2u862_41 22D6                                       i2u854_41 2256  
                                     i2u871_40 2372                                       i2u863_40 22EA  
                                     i2u855_40 2268                                       i2u871_41 236E  
                                     i2u863_41 22E6                                       i2u855_41 2264  
                                     i2u880_40 2412                                       i2u872_40 238A  
                                     i2u864_40 2302                                       i2u856_40 227A  
                                     i2u880_41 240E                                       i2u872_41 2386  
                                     i2u864_41 22FE                                       i2u856_41 2276  
                                     i2u881_40 2420                                       i2u873_40 2398  
                                     i2u865_40 2310                                       i2u857_40 2288  
                                     i2u881_41 241C                                       i2u873_41 2394  
                                     i2u865_41 230C                                       i2u857_41 2284  
                                     i2u890_40 24BA                                       i2u882_40 242E  
                                     i2u874_40 23A6                                       i2u866_40 231E  
                                     i2u858_40 2296                                       i2u890_41 24B6  
                                     i2u882_41 242A                                       i2u874_41 23A2  
                                     i2u866_41 231A                                       i2u858_41 2292  
                                     i2u891_40 24C8                                       i2u883_40 243E  
                                     i2u875_40 23B6                                       i2u867_40 232E  
                                     i2u859_40 22A6                                       i2u891_41 24C4  
                                     i2u883_41 243A                                       i2u875_41 23B2  
                                     i2u867_41 232A                                       i2u859_41 22A2  
                       _hal_timer1_write_value 3EEE                                       i2u892_40 24DA  
                                     i2u884_40 2456                                       i2u876_40 23CE  
                                     i2u868_40 2346                                       i2u892_41 24D6  
                                     i2u884_41 2452                                       i2u876_41 23CA  
                                     i2u868_41 2342                                       i2u893_40 24E8  
                                     i2u885_40 2464                                       i2u877_40 23DC  
                                     i2u869_40 2354                                       i2u893_41 24E4  
                                     i2u885_41 2460                                       i2u877_41 23D8  
                                     i2u869_41 2350                                       i2u894_40 24FA  
                                     i2u886_40 2472                                       i2u878_40 23EA  
                                     i2u894_41 24F6                                       i2u886_41 246E  
                                     i2u878_41 23E6                                       i2u895_40 2508  
                                     i2u887_40 2482                                       i2u879_40 23FA  
                                     i2u895_41 2504                                       i2u887_41 247E  
                                     i2u879_41 23F6                                       i2u896_40 251A  
                                     i2u888_40 249A                                       i2u896_41 2516  
                                     i2u888_41 2496                                       i2u897_40 2528  
                                     i2u889_40 24A8                                       i2u897_41 2524  
                                     i2u889_41 24A4                                       i2u898_40 253A  
                                     i2u898_41 2536                                       i2u899_40 2548  
                                     i2u899_41 2544                         ??i2_hal_timer1_disable 0003  
                                    main@F3567 00D9                                      main@F3569 0080  
                      ?_convert_byte_to_string 00F8                                      _vfpfcnvrt 2860  
                                   _ADCON0bits 000FC2                                     _ADCON1bits 000FC1  
                                   _ADCON2bits 000FC0               __end_of_hal_timer1_set_prescaler 3C8A  
      gpio_pin_direction_initialize@pin_config 000E                      lcd_8bit_set_cursor@Status 0027  
                    lcd_8bit_set_cursor@column 0024                            i2_hal_timer1_enable 43D0  
                                  _INTCON2bits 000FF1                                    _INTCON3bits 000FF0  
                                    copy_data0 3C9E                                      copy_data1 3CBE  
                                    copy_data2 3CDE                        ??_lcd_8bit_send_command 001B  
                                   _EECON1bits 000FA6                 ?_hal_timer1_rw_8bit_16bit_mode 000E  
                                     __Hrparam 0000                              _hal_ccp_init$4710 00F1  
                            _hal_ccp_init$4709 00ED                           __end_of_ccp1_app_isr 3E1E  
                                   vfprintf@ap 0061                                       __Lrparam 0000  
                                   vfprintf@fp 005D                 __end_of_convert_byte_to_string 4052  
                         ?i2_hal_timer1_enable 0001                       hal_timer1_disable@timer1 000E  
                        _CCP1_InterruptHandler 0090           hal_timer1_select_clock_source@timer1 000E  
                                   ?_vfpfcnvrt 004D                                       _ccp1_pin 00E4  
                              ___aodiv@divisor 0016      lcd_8bit_send_char_data@l_lcd_pins_counter 0020  
              __end_of_lcd_8bit_send_char_data 3A12                    __end_of_gpio_pin_initialize 3E8A  
                              ___aodiv@counter 001E                          _TMR1_InterruptHandler 009C  
                                   sprintf@fmt 00E7                                       ___xxtofl 2A1E  
                   lcd_8bit_send_char_data@lcd 0018                                       __ptext10 38A8  
                                     __ptext11 3EEE                                       __ptext20 40FA  
                                     __ptext12 4052                                       __ptext21 1020  
                                     __ptext13 3BFA                                       __ptext30 2860  
                                     __ptext22 2A1E                                       __ptext14 3D18  
                                     __ptext31 2580                                       __ptext23 3556  
                                     __ptext15 40A6                                       __ptext40 2EE4  
                                     __ptext32 3728                                       __ptext24 1A36  
                                     __ptext16 3FA6                                       __ptext33 425C  
                                     __ptext25 1E60                                       __ptext17 4316  
                                     __ptext50 43B6                                       __ptext42 4404  
                                     __ptext34 41A0                                       __ptext26 1576  
                                     __ptext18 4334                                       __ptext51 4428  
                                     __ptext43 4410                                       __ptext35 365E  
                                     __ptext27 3FFC                                       __ptext19 434E  
                                     __ptext60 4438                                       __ptext52 442C  
                                     __ptext44 4224                                       __ptext36 443C  
                                     __ptext28 414E                                       __ptext61 0000  
                                     __ptext53 4430                                       __ptext45 4418  
                                     __ptext37 41E4                                       __ptext29 3E8A  
                                     __ptext54 4434                                       __ptext46 4424  
                                     __ptext38 305A                                       __ptext55 42C6  
                                     __ptext47 4368                                       __ptext39 2D5C  
                                     __ptext56 3DA4                                       __ptext48 4382  
                                     __ptext57 43D0                                       __ptext49 439C  
                                     __ptext58 43EA                                       __ptext59 3B64  
                                  _keypad_btns 1001          hal_ccp_readCaptureValue@ccpr_val_3553 0008  
                                     _last_ovf 0094                     __end_of_hal_timer1_disable 4368  
                      hal_timer1_enable@timer1 000E               __end_of_lcd_8bit_send_string_pos 3FA6  
                        ??i2_hal_timer1_enable 0003                                       isa$xinst 000000  
                                ?_hal_ccp_init 00E9                                       int$flags 0072  
                                     _vfprintf 3E8A                               ___aomod@dividend 000E  
                __end_of_hal_timer1_initialize 3960                                     _INTCONbits 000FF2  
                     _timer1_isr_preload_value 0069                   __end_of_gpio_pin_write_logic 3436  
                           hal_ccp_init@ccpobj 00E9                                       intlevel2 0000  
                                    sprintf@ap 00EB                               ??_timer1_app_isr 0001  
                    ?_hal_timer1_set_prescaler 000E                                 ??_hal_ccp_init 00EB  
                   gpio_pin_write_logic@Status 0017                                ___aomod@divisor 0016  
                                  ??_vfpfcnvrt 0053                                ___aomod@counter 001E  
             hal_ccp_readCaptureValue@ccpr_val 0006                                       sprintf@f 00ED  
                                     sprintf@s 00E5                                 _port_registers 0100  
                                ___fladd@signs 005A                        lcd_8bit_send_string@lcd 0021  
                      lcd_8bit_send_string@str 0023                                   ___aodiv@sign 001F  
                        _CCP2_InterruptHandler 008E                    __end_of_lcd_8bit_initialize 3556  
                 lcd_8bit_send_command@command 001A                                   ___fladd@aexp 005B  
                                 ___fladd@bexp 005C                          _TMR2_InterruptHandler 009A  
                      ?_hal_timer1_write_value 000E                              ?_InterruptManager 0001  
                                 ___aomod@sign 001F  
